 TcSgSvrcd

 Timestamp is 56d833c3 (Thu Mar 03 20:53:23 2016)

 Preferred load address is 00400000

 Start         Length     Name                   Class
 0001:00000000 0018a1b1H .text                   CODE
 0001:0018a1c0 0000101eH .text$AFX_COL1          CODE
 0001:0018b1e0 0000aaf6H .text$x                 CODE
 0001:00195cd6 000b710aH .textbss                CODE
 0002:00000000 0000d5faH .rdata                  DATA
 0002:0000d600 000001a8H .rdata$r                DATA
 0002:0000d7a8 0000ac6fH .xdata$x                DATA
 0002:00018417 00000000H .edata                  DATA
 0003:00000000 00000104H .CRT$XCA                DATA
 0003:00000104 00000268H .CRT$XCU                DATA
 0003:0000036c 00000104H .CRT$XCZ                DATA
 0003:00000470 00000104H .CRT$XIA                DATA
 0003:00000574 00000104H .CRT$XIZ                DATA
 0003:00000680 00015738H .data                   DATA
 0003:00015db8 000090d4H .bss                    DATA
 0004:00000000 00000154H .idata$2                DATA
 0004:00000154 00000014H .idata$3                DATA
 0004:00000168 00000b8cH .idata$4                DATA
 0004:00000cf4 00000b8cH .idata$5                DATA
 0004:00001880 00001fa7H .idata$6                DATA
 0005:00000000 00000169H .rsrc$01                DATA
 0005:00000170 000007f0H .rsrc$02                DATA

  Address         Publics by Value              Rva+Base     Lib:Object

 0001:00004e37       ?Instance@DataRecord@@SAPAV1@XZ 00405e37 f   DataRecord.obj
 0001:00004ed8       ?Purge@DataRecord@@SAXXZ   00405ed8 f   DataRecord.obj
 0001:00004f4b       ??0DataRecord@@QAE@XZ      00405f4b f   DataRecord.obj
 0001:00005002       ??1DataRecord@@UAE@XZ      00406002 f   DataRecord.obj
 0001:000050a5       ?init@DataRecord@@UAEXQADPAVCGameServer@@@Z 004060a5 f   DataRecord.obj
 0001:000050f1       ?ResetInfos@DataRecord@@UAEXXZ 004060f1 f   DataRecord.obj
 0001:0000517a       ?UpdateInfos@DataRecord@@UAEXPAVCTable@@PAU_tagREFRESH_RESULT_EX@@PAU_tagGAME_RESULT_EX@@@Z 0040617a f   DataRecord.obj
 0001:000053ad       ?UpdateRoomBout@DataRecord@@UAEXHH@Z 004063ad f   DataRecord.obj
 0001:00005467       ?SaveInfos@DataRecord@@UAEXH@Z 00406467 f   DataRecord.obj
 0001:000062c4       ?ReadInfos@DataRecord@@UAEXXZ 004072c4 f   DataRecord.obj
 0001:00006994       ?GetRecordFile@DataRecord@@IAE?AVCString@@XZ 00407994 f   DataRecord.obj
 0001:00006aca       ?FormatStr@DataRecord@@IAEXAAVCString@@H@Z 00407aca f   DataRecord.obj
 0001:00006b04       ?FormatOneRowStr@DataRecord@@IAE?AVCString@@QAV2@HH@Z 00407b04 f   DataRecord.obj
 0001:00006c06       ?SplitStr@DataRecord@@IAEHQAVCString@@HABV2@D_N@Z 00407c06 f   DataRecord.obj
 0001:00006d6e       ?GetRoomKeyByNo@DataRecord@@IAEHHH@Z 00407d6e f   DataRecord.obj
 0001:00006da9       ?GetRoomKeyByIndex@DataRecord@@IAEHHH@Z 00407da9 f   DataRecord.obj
 0001:00006dc9       ?ParseRoomKey@DataRecord@@IAEXHAAH0@Z 00407dc9 f   DataRecord.obj
 0001:00006dfd       ?GetTableIndex@DataRecord@@IAEHHH@Z 00407dfd f   DataRecord.obj
 0001:00007125       ?IsTableDepositRoom@DataRecord@@MAEHH@Z 00408125 f   DataRecord.obj
 0001:00007166       ?GetRoomSvrIniFile@DataRecord@@IAEHHAAVCString@@@Z 00408166 f   DataRecord.obj
 0001:00007b30       ??_GDataRecord@@UAEPAXI@Z  00408b30 f i DataRecord.obj
 0001:00007b30       ??_EDataRecord@@UAEPAXI@Z  00408b30 f i DataRecord.obj
 0001:00007b80       ??1?$map@HU_tagPlayerInfo@@U?$less@H@std@@V?$allocator@U_tagPlayerInfo@@@3@@std@@QAE@XZ 00408b80 f i DataRecord.obj
 0001:00007bb0       ??1?$map@HU_tagRoomInfo@@U?$less@H@std@@V?$allocator@U_tagRoomInfo@@@3@@std@@QAE@XZ 00408bb0 f i DataRecord.obj
 0001:00007be0       ??Y_tagRoomInfo@@QAEABU0@ABU0@@Z 00408be0 f i DataRecord.obj
 0001:00007cd0       ??1?$set@HU?$less@H@std@@V?$allocator@H@2@@std@@QAE@XZ 00408cd0 f i DataRecord.obj
 0001:00007d00       ??0?$set@HU?$less@H@std@@V?$allocator@H@2@@std@@QAE@ABU?$less@H@1@ABV?$allocator@H@1@@Z 00408d00 f i DataRecord.obj
 0001:00007d40       ?begin@?$set@HU?$less@H@std@@V?$allocator@H@2@@std@@QBE?AVconst_iterator@?$_Tree@HHU_Kfn@?$set@HU?$less@H@std@@V?$allocator@H@2@@std@@U?$less@H@3@V?$allocator@H@3@@2@XZ 00408d40 f i DataRecord.obj
 0001:00007d90       ?end@?$set@HU?$less@H@std@@V?$allocator@H@2@@std@@QAE?AViterator@?$_Tree@HHU_Kfn@?$set@HU?$less@H@std@@V?$allocator@H@2@@std@@U?$less@H@3@V?$allocator@H@3@@2@XZ 00408d90 f i DataRecord.obj
 0001:00007de0       ?end@?$set@HU?$less@H@std@@V?$allocator@H@2@@std@@QBE?AVconst_iterator@?$_Tree@HHU_Kfn@?$set@HU?$less@H@std@@V?$allocator@H@2@@std@@U?$less@H@3@V?$allocator@H@3@@2@XZ 00408de0 f i DataRecord.obj
 0001:00007e30       ?size@?$set@HU?$less@H@std@@V?$allocator@H@2@@std@@QBEIXZ 00408e30 f i DataRecord.obj
 0001:00007e60       ?insert@?$set@HU?$less@H@std@@V?$allocator@H@2@@std@@QAE?AU?$pair@Viterator@?$_Tree@HHU_Kfn@?$set@HU?$less@H@std@@V?$allocator@H@2@@std@@U?$less@H@3@V?$allocator@H@3@@std@@_N@2@ABH@Z 00408e60 f i DataRecord.obj
 0001:00007ef0       ?find@?$set@HU?$less@H@std@@V?$allocator@H@2@@std@@QAE?AViterator@?$_Tree@HHU_Kfn@?$set@HU?$less@H@std@@V?$allocator@H@2@@std@@U?$less@H@3@V?$allocator@H@3@@2@ABH@Z 00408ef0 f i DataRecord.obj
 0001:00007f50       ??1?$_Tree@HHU_Kfn@?$set@HU?$less@H@std@@V?$allocator@H@2@@std@@U?$less@H@3@V?$allocator@H@3@@std@@QAE@XZ 00408f50 f i DataRecord.obj
 0001:00008070       ??Dconst_iterator@?$_Tree@HHU_Kfn@?$set@HU?$less@H@std@@V?$allocator@H@2@@std@@U?$less@H@3@V?$allocator@H@3@@std@@QBEABHXZ 00409070 f i DataRecord.obj
 0001:000080b0       ??Econst_iterator@?$_Tree@HHU_Kfn@?$set@HU?$less@H@std@@V?$allocator@H@2@@std@@U?$less@H@3@V?$allocator@H@3@@std@@QAEAAV012@XZ 004090b0 f i DataRecord.obj
 0001:000080e0       ??9const_iterator@?$_Tree@HHU_Kfn@?$set@HU?$less@H@std@@V?$allocator@H@2@@std@@U?$less@H@3@V?$allocator@H@3@@std@@QBE_NABV012@@Z 004090e0 f i DataRecord.obj
 0001:00008130       ??8iterator@?$_Tree@HHU_Kfn@?$set@HU?$less@H@std@@V?$allocator@H@2@@std@@U?$less@H@3@V?$allocator@H@3@@std@@QBE_NABV012@@Z 00409130 f i DataRecord.obj
 0001:00008160       ??0?$map@HU_tagPlayerInfo@@U?$less@H@std@@V?$allocator@U_tagPlayerInfo@@@3@@std@@QAE@ABU?$less@H@1@ABV?$allocator@U_tagPlayerInfo@@@1@@Z 00409160 f i DataRecord.obj
 0001:000081a0       ?begin@?$map@HU_tagPlayerInfo@@U?$less@H@std@@V?$allocator@U_tagPlayerInfo@@@3@@std@@QAE?AViterator@?$_Tree@HU?$pair@$$CBHU_tagPlayerInfo@@@std@@U_Kfn@?$map@HU_tagPlayerInfo@@U?$less@H@std@@V?$allocator@U_tagPlayerInfo@@@3@@2@U?$less@H@2@V?$allocator@U_tagPlayerInfo@@@2@@2@XZ 004091a0 f i DataRecord.obj
 0001:000081f0       ?end@?$map@HU_tagPlayerInfo@@U?$less@H@std@@V?$allocator@U_tagPlayerInfo@@@3@@std@@QAE?AViterator@?$_Tree@HU?$pair@$$CBHU_tagPlayerInfo@@@std@@U_Kfn@?$map@HU_tagPlayerInfo@@U?$less@H@std@@V?$allocator@U_tagPlayerInfo@@@3@@2@U?$less@H@2@V?$allocator@U_tagPlayerInfo@@@2@@2@XZ 004091f0 f i DataRecord.obj
 0001:00008240       ?size@?$map@HU_tagPlayerInfo@@U?$less@H@std@@V?$allocator@U_tagPlayerInfo@@@3@@std@@QBEIXZ 00409240 f i DataRecord.obj
 0001:00008270       ??A?$map@HU_tagPlayerInfo@@U?$less@H@std@@V?$allocator@U_tagPlayerInfo@@@3@@std@@QAEAAU_tagPlayerInfo@@ABH@Z 00409270 f i DataRecord.obj
 0001:000082f0       ??0_tagPlayerInfo@@QAE@XZ  004092f0 f i DataRecord.obj
 0001:00008360       ?clear@?$map@HU_tagPlayerInfo@@U?$less@H@std@@V?$allocator@U_tagPlayerInfo@@@3@@std@@QAEXXZ 00409360 f i DataRecord.obj
 0001:00008390       ??1?$_Tree@HU?$pair@$$CBHU_tagPlayerInfo@@@std@@U_Kfn@?$map@HU_tagPlayerInfo@@U?$less@H@std@@V?$allocator@U_tagPlayerInfo@@@3@@2@U?$less@H@2@V?$allocator@U_tagPlayerInfo@@@2@@std@@QAE@XZ 00409390 f i DataRecord.obj
 0001:000084b0       ??Citerator@?$_Tree@HU?$pair@$$CBHU_tagPlayerInfo@@@std@@U_Kfn@?$map@HU_tagPlayerInfo@@U?$less@H@std@@V?$allocator@U_tagPlayerInfo@@@3@@2@U?$less@H@2@V?$allocator@U_tagPlayerInfo@@@2@@std@@QBEPAU?$pair@$$CBHU_tagPlayerInfo@@@2@XZ 004094b0 f i DataRecord.obj
 0001:000084e0       ??Eiterator@?$_Tree@HU?$pair@$$CBHU_tagPlayerInfo@@@std@@U_Kfn@?$map@HU_tagPlayerInfo@@U?$less@H@std@@V?$allocator@U_tagPlayerInfo@@@3@@2@U?$less@H@2@V?$allocator@U_tagPlayerInfo@@@2@@std@@QAEAAV012@XZ 004094e0 f i DataRecord.obj
 0001:00008510       ??9iterator@?$_Tree@HU?$pair@$$CBHU_tagPlayerInfo@@@std@@U_Kfn@?$map@HU_tagPlayerInfo@@U?$less@H@std@@V?$allocator@U_tagPlayerInfo@@@3@@2@U?$less@H@2@V?$allocator@U_tagPlayerInfo@@@2@@std@@QBE_NABV012@@Z 00409510 f i DataRecord.obj
 0001:00008560       ??0?$map@HU_tagRoomInfo@@U?$less@H@std@@V?$allocator@U_tagRoomInfo@@@3@@std@@QAE@ABU?$less@H@1@ABV?$allocator@U_tagRoomInfo@@@1@@Z 00409560 f i DataRecord.obj
 0001:000085a0       ?begin@?$map@HU_tagRoomInfo@@U?$less@H@std@@V?$allocator@U_tagRoomInfo@@@3@@std@@QAE?AViterator@?$_Tree@HU?$pair@$$CBHU_tagRoomInfo@@@std@@U_Kfn@?$map@HU_tagRoomInfo@@U?$less@H@std@@V?$allocator@U_tagRoomInfo@@@3@@2@U?$less@H@2@V?$allocator@U_tagRoomInfo@@@2@@2@XZ 004095a0 f i DataRecord.obj
 0001:000085f0       ?end@?$map@HU_tagRoomInfo@@U?$less@H@std@@V?$allocator@U_tagRoomInfo@@@3@@std@@QAE?AViterator@?$_Tree@HU?$pair@$$CBHU_tagRoomInfo@@@std@@U_Kfn@?$map@HU_tagRoomInfo@@U?$less@H@std@@V?$allocator@U_tagRoomInfo@@@3@@2@U?$less@H@2@V?$allocator@U_tagRoomInfo@@@2@@2@XZ 004095f0 f i DataRecord.obj
 0001:00008640       ??A?$map@HU_tagRoomInfo@@U?$less@H@std@@V?$allocator@U_tagRoomInfo@@@3@@std@@QAEAAU_tagRoomInfo@@ABH@Z 00409640 f i DataRecord.obj
 0001:00008730       ??0_tagRoomInfo@@QAE@XZ    00409730 f i DataRecord.obj
 0001:000087f0       ??1_tagRoomInfo@@QAE@XZ    004097f0 f i DataRecord.obj
 0001:00008820       ?clear@?$set@HU?$less@H@std@@V?$allocator@H@2@@std@@QAEXXZ 00409820 f i DataRecord.obj
 0001:00008850       ?clear@?$map@HU_tagRoomInfo@@U?$less@H@std@@V?$allocator@U_tagRoomInfo@@@3@@std@@QAEXXZ 00409850 f i DataRecord.obj
 0001:00008880       ??1?$_Tree@HU?$pair@$$CBHU_tagRoomInfo@@@std@@U_Kfn@?$map@HU_tagRoomInfo@@U?$less@H@std@@V?$allocator@U_tagRoomInfo@@@3@@2@U?$less@H@2@V?$allocator@U_tagRoomInfo@@@2@@std@@QAE@XZ 00409880 f i DataRecord.obj
 0001:000089a0       ??Citerator@?$_Tree@HU?$pair@$$CBHU_tagRoomInfo@@@std@@U_Kfn@?$map@HU_tagRoomInfo@@U?$less@H@std@@V?$allocator@U_tagRoomInfo@@@3@@2@U?$less@H@2@V?$allocator@U_tagRoomInfo@@@2@@std@@QBEPAU?$pair@$$CBHU_tagRoomInfo@@@2@XZ 004099a0 f i DataRecord.obj
 0001:000089d0       ??Eiterator@?$_Tree@HU?$pair@$$CBHU_tagRoomInfo@@@std@@U_Kfn@?$map@HU_tagRoomInfo@@U?$less@H@std@@V?$allocator@U_tagRoomInfo@@@3@@2@U?$less@H@2@V?$allocator@U_tagRoomInfo@@@2@@std@@QAEAAV012@XZ 004099d0 f i DataRecord.obj
 0001:00008a00       ??9iterator@?$_Tree@HU?$pair@$$CBHU_tagRoomInfo@@@std@@U_Kfn@?$map@HU_tagRoomInfo@@U?$less@H@std@@V?$allocator@U_tagRoomInfo@@@3@@2@U?$less@H@2@V?$allocator@U_tagRoomInfo@@@2@@std@@QBE_NABV012@@Z 00409a00 f i DataRecord.obj
 0001:00008a50       ??1?$pair@$$CBHU_tagRoomInfo@@@std@@QAE@XZ 00409a50 f i DataRecord.obj
 0001:00008a80       ?_Value@?$_Tree@HHU_Kfn@?$set@HU?$less@H@std@@V?$allocator@H@2@@std@@U?$less@H@3@V?$allocator@H@3@@std@@KAAAHPAU_Node@12@@Z 00409a80 f i DataRecord.obj
 0001:00008a90       ??0?$_Tree@HHU_Kfn@?$set@HU?$less@H@std@@V?$allocator@H@2@@std@@U?$less@H@3@V?$allocator@H@3@@std@@QAE@ABU?$less@H@1@_NABV?$allocator@H@1@@Z 00409a90 f i DataRecord.obj
 0001:00008af0       ?begin@?$_Tree@HHU_Kfn@?$set@HU?$less@H@std@@V?$allocator@H@2@@std@@U?$less@H@3@V?$allocator@H@3@@std@@QAE?AViterator@12@XZ 00409af0 f i DataRecord.obj
 0001:00008b50       ?begin@?$_Tree@HHU_Kfn@?$set@HU?$less@H@std@@V?$allocator@H@2@@std@@U?$less@H@3@V?$allocator@H@3@@std@@QBE?AVconst_iterator@12@XZ 00409b50 f i DataRecord.obj
 0001:00008bb0       ?end@?$_Tree@HHU_Kfn@?$set@HU?$less@H@std@@V?$allocator@H@2@@std@@U?$less@H@3@V?$allocator@H@3@@std@@QAE?AViterator@12@XZ 00409bb0 f i DataRecord.obj
 0001:00008c00       ?end@?$_Tree@HHU_Kfn@?$set@HU?$less@H@std@@V?$allocator@H@2@@std@@U?$less@H@3@V?$allocator@H@3@@std@@QBE?AVconst_iterator@12@XZ 00409c00 f i DataRecord.obj
 0001:00008c50       ?size@?$_Tree@HHU_Kfn@?$set@HU?$less@H@std@@V?$allocator@H@2@@std@@U?$less@H@3@V?$allocator@H@3@@std@@QBEIXZ 00409c50 f i DataRecord.obj
 0001:00008c70       ?insert@?$_Tree@HHU_Kfn@?$set@HU?$less@H@std@@V?$allocator@H@2@@std@@U?$less@H@3@V?$allocator@H@3@@std@@QAE?AU?$pair@Viterator@?$_Tree@HHU_Kfn@?$set@HU?$less@H@std@@V?$allocator@H@2@@std@@U?$less@H@3@V?$allocator@H@3@@std@@_N@2@ABH@Z 00409c70 f i DataRecord.obj
 0001:00008f10       ?erase@?$_Tree@HHU_Kfn@?$set@HU?$less@H@std@@V?$allocator@H@2@@std@@U?$less@H@3@V?$allocator@H@3@@std@@QAE?AViterator@12@V312@0@Z 00409f10 f i DataRecord.obj
 0001:00009080       ?clear@?$_Tree@HHU_Kfn@?$set@HU?$less@H@std@@V?$allocator@H@2@@std@@U?$less@H@3@V?$allocator@H@3@@std@@QAEXXZ 0040a080 f i DataRecord.obj
 0001:000090f0       ?find@?$_Tree@HHU_Kfn@?$set@HU?$less@H@std@@V?$allocator@H@2@@std@@U?$less@H@3@V?$allocator@H@3@@std@@QAE?AViterator@12@ABH@Z 0040a0f0 f i DataRecord.obj
 0001:000091e0       ?_Init@?$_Tree@HHU_Kfn@?$set@HU?$less@H@std@@V?$allocator@H@2@@std@@U?$less@H@3@V?$allocator@H@3@@std@@IAEXXZ 0040a1e0 f i DataRecord.obj
 0001:00009360       ?_Freenode@?$_Tree@HHU_Kfn@?$set@HU?$less@H@std@@V?$allocator@H@2@@std@@U?$less@H@3@V?$allocator@H@3@@std@@IAEXPAU_Node@12@@Z 0040a360 f i DataRecord.obj
 0001:000093a0       ??8const_iterator@?$_Tree@HHU_Kfn@?$set@HU?$less@H@std@@V?$allocator@H@2@@std@@U?$less@H@3@V?$allocator@H@3@@std@@QBE_NABV012@@Z 0040a3a0 f i DataRecord.obj
 0001:000093d0       ?_Inc@const_iterator@?$_Tree@HHU_Kfn@?$set@HU?$less@H@std@@V?$allocator@H@2@@std@@U?$less@H@3@V?$allocator@H@3@@std@@QAEXXZ 0040a3d0 f i DataRecord.obj
 0001:000094b0       ??0?$pair@Viterator@?$_Tree@HHU_Kfn@?$set@HU?$less@H@std@@V?$allocator@H@2@@std@@U?$less@H@3@V?$allocator@H@3@@std@@_N@std@@QAE@ABViterator@?$_Tree@HHU_Kfn@?$set@HU?$less@H@std@@V?$allocator@H@2@@std@@U?$less@H@3@V?$allocator@H@3@@1@AB_N@Z 0040a4b0 f i DataRecord.obj
 0001:000094f0       ?insert@?$map@HU_tagPlayerInfo@@U?$less@H@std@@V?$allocator@U_tagPlayerInfo@@@3@@std@@QAE?AU?$pair@Viterator@?$_Tree@HU?$pair@$$CBHU_tagPlayerInfo@@@std@@U_Kfn@?$map@HU_tagPlayerInfo@@U?$less@H@std@@V?$allocator@U_tagPlayerInfo@@@3@@2@U?$less@H@2@V?$allocator@U_tagPlayerInfo@@@2@@std@@_N@2@ABU?$pair@$$CBHU_tagPlayerInfo@@@2@@Z 0040a4f0 f i DataRecord.obj
 0001:00009580       ??0?$_Tree@HU?$pair@$$CBHU_tagPlayerInfo@@@std@@U_Kfn@?$map@HU_tagPlayerInfo@@U?$less@H@std@@V?$allocator@U_tagPlayerInfo@@@3@@2@U?$less@H@2@V?$allocator@U_tagPlayerInfo@@@2@@std@@QAE@ABU?$less@H@1@_NABV?$allocator@U_tagPlayerInfo@@@1@@Z 0040a580 f i DataRecord.obj
 0001:000095e0       ?begin@?$_Tree@HU?$pair@$$CBHU_tagPlayerInfo@@@std@@U_Kfn@?$map@HU_tagPlayerInfo@@U?$less@H@std@@V?$allocator@U_tagPlayerInfo@@@3@@2@U?$less@H@2@V?$allocator@U_tagPlayerInfo@@@2@@std@@QAE?AViterator@12@XZ 0040a5e0 f i DataRecord.obj
 0001:00009640       ?end@?$_Tree@HU?$pair@$$CBHU_tagPlayerInfo@@@std@@U_Kfn@?$map@HU_tagPlayerInfo@@U?$less@H@std@@V?$allocator@U_tagPlayerInfo@@@3@@2@U?$less@H@2@V?$allocator@U_tagPlayerInfo@@@2@@std@@QAE?AViterator@12@XZ 0040a640 f i DataRecord.obj
 0001:00009690       ?size@?$_Tree@HU?$pair@$$CBHU_tagPlayerInfo@@@std@@U_Kfn@?$map@HU_tagPlayerInfo@@U?$less@H@std@@V?$allocator@U_tagPlayerInfo@@@3@@2@U?$less@H@2@V?$allocator@U_tagPlayerInfo@@@2@@std@@QBEIXZ 0040a690 f i DataRecord.obj
 0001:000096b0       ?erase@?$_Tree@HU?$pair@$$CBHU_tagPlayerInfo@@@std@@U_Kfn@?$map@HU_tagPlayerInfo@@U?$less@H@std@@V?$allocator@U_tagPlayerInfo@@@3@@2@U?$less@H@2@V?$allocator@U_tagPlayerInfo@@@2@@std@@QAE?AViterator@12@V312@0@Z 0040a6b0 f i DataRecord.obj
 0001:00009820       ?clear@?$_Tree@HU?$pair@$$CBHU_tagPlayerInfo@@@std@@U_Kfn@?$map@HU_tagPlayerInfo@@U?$less@H@std@@V?$allocator@U_tagPlayerInfo@@@3@@2@U?$less@H@2@V?$allocator@U_tagPlayerInfo@@@2@@std@@QAEXXZ 0040a820 f i DataRecord.obj
 0001:00009890       ?_Freenode@?$_Tree@HU?$pair@$$CBHU_tagPlayerInfo@@@std@@U_Kfn@?$map@HU_tagPlayerInfo@@U?$less@H@std@@V?$allocator@U_tagPlayerInfo@@@3@@2@U?$less@H@2@V?$allocator@U_tagPlayerInfo@@@2@@std@@IAEXPAU_Node@12@@Z 0040a890 f i DataRecord.obj
 0001:000098d0       ??0?$pair@$$CBHU_tagPlayerInfo@@@std@@QAE@ABHABU_tagPlayerInfo@@@Z 0040a8d0 f i DataRecord.obj
 0001:00009920       ?_Inc@const_iterator@?$_Tree@HU?$pair@$$CBHU_tagPlayerInfo@@@std@@U_Kfn@?$map@HU_tagPlayerInfo@@U?$less@H@std@@V?$allocator@U_tagPlayerInfo@@@3@@2@U?$less@H@2@V?$allocator@U_tagPlayerInfo@@@2@@std@@QAEXXZ 0040a920 f i DataRecord.obj
 0001:00009a00       ??Diterator@?$_Tree@HU?$pair@$$CBHU_tagPlayerInfo@@@std@@U_Kfn@?$map@HU_tagPlayerInfo@@U?$less@H@std@@V?$allocator@U_tagPlayerInfo@@@3@@2@U?$less@H@2@V?$allocator@U_tagPlayerInfo@@@2@@std@@QBEAAU?$pair@$$CBHU_tagPlayerInfo@@@2@XZ 0040aa00 f i DataRecord.obj
 0001:00009a40       ??8iterator@?$_Tree@HU?$pair@$$CBHU_tagPlayerInfo@@@std@@U_Kfn@?$map@HU_tagPlayerInfo@@U?$less@H@std@@V?$allocator@U_tagPlayerInfo@@@3@@2@U?$less@H@2@V?$allocator@U_tagPlayerInfo@@@2@@std@@QBE_NABV012@@Z 0040aa40 f i DataRecord.obj
 0001:00009a70       ?insert@?$map@HU_tagRoomInfo@@U?$less@H@std@@V?$allocator@U_tagRoomInfo@@@3@@std@@QAE?AU?$pair@Viterator@?$_Tree@HU?$pair@$$CBHU_tagRoomInfo@@@std@@U_Kfn@?$map@HU_tagRoomInfo@@U?$less@H@std@@V?$allocator@U_tagRoomInfo@@@3@@2@U?$less@H@2@V?$allocator@U_tagRoomInfo@@@2@@std@@_N@2@ABU?$pair@$$CBHU_tagRoomInfo@@@2@@Z 0040aa70 f i DataRecord.obj
 0001:00009b00       ??0?$_Tree@HU?$pair@$$CBHU_tagRoomInfo@@@std@@U_Kfn@?$map@HU_tagRoomInfo@@U?$less@H@std@@V?$allocator@U_tagRoomInfo@@@3@@2@U?$less@H@2@V?$allocator@U_tagRoomInfo@@@2@@std@@QAE@ABU?$less@H@1@_NABV?$allocator@U_tagRoomInfo@@@1@@Z 0040ab00 f i DataRecord.obj
 0001:00009b60       ?begin@?$_Tree@HU?$pair@$$CBHU_tagRoomInfo@@@std@@U_Kfn@?$map@HU_tagRoomInfo@@U?$less@H@std@@V?$allocator@U_tagRoomInfo@@@3@@2@U?$less@H@2@V?$allocator@U_tagRoomInfo@@@2@@std@@QAE?AViterator@12@XZ 0040ab60 f i DataRecord.obj
 0001:00009bc0       ?end@?$_Tree@HU?$pair@$$CBHU_tagRoomInfo@@@std@@U_Kfn@?$map@HU_tagRoomInfo@@U?$less@H@std@@V?$allocator@U_tagRoomInfo@@@3@@2@U?$less@H@2@V?$allocator@U_tagRoomInfo@@@2@@std@@QAE?AViterator@12@XZ 0040abc0 f i DataRecord.obj
 0001:00009c10       ?erase@?$_Tree@HU?$pair@$$CBHU_tagRoomInfo@@@std@@U_Kfn@?$map@HU_tagRoomInfo@@U?$less@H@std@@V?$allocator@U_tagRoomInfo@@@3@@2@U?$less@H@2@V?$allocator@U_tagRoomInfo@@@2@@std@@QAE?AViterator@12@V312@0@Z 0040ac10 f i DataRecord.obj
 0001:00009d80       ?clear@?$_Tree@HU?$pair@$$CBHU_tagRoomInfo@@@std@@U_Kfn@?$map@HU_tagRoomInfo@@U?$less@H@std@@V?$allocator@U_tagRoomInfo@@@3@@2@U?$less@H@2@V?$allocator@U_tagRoomInfo@@@2@@std@@QAEXXZ 0040ad80 f i DataRecord.obj
 0001:00009df0       ?_Freenode@?$_Tree@HU?$pair@$$CBHU_tagRoomInfo@@@std@@U_Kfn@?$map@HU_tagRoomInfo@@U?$less@H@std@@V?$allocator@U_tagRoomInfo@@@3@@2@U?$less@H@2@V?$allocator@U_tagRoomInfo@@@2@@std@@IAEXPAU_Node@12@@Z 0040adf0 f i DataRecord.obj
 0001:00009e30       ??0?$pair@$$CBHU_tagRoomInfo@@@std@@QAE@ABHABU_tagRoomInfo@@@Z 0040ae30 f i DataRecord.obj
 0001:00009e80       ??0_tagRoomInfo@@QAE@ABU0@@Z 0040ae80 f i DataRecord.obj
 0001:00009ef0       ??0?$set@HU?$less@H@std@@V?$allocator@H@2@@std@@QAE@ABV01@@Z 0040aef0 f i DataRecord.obj
 0001:00009f30       ??0?$_Tree@HHU_Kfn@?$set@HU?$less@H@std@@V?$allocator@H@2@@std@@U?$less@H@3@V?$allocator@H@3@@std@@QAE@ABV01@@Z 0040af30 f i DataRecord.obj
 0001:00009fa0       ?_Copy@?$_Tree@HHU_Kfn@?$set@HU?$less@H@std@@V?$allocator@H@2@@std@@U?$less@H@3@V?$allocator@H@3@@std@@IAEXABV12@@Z 0040afa0 f i DataRecord.obj
 0001:0000a0a0       ?_Inc@const_iterator@?$_Tree@HU?$pair@$$CBHU_tagRoomInfo@@@std@@U_Kfn@?$map@HU_tagRoomInfo@@U?$less@H@std@@V?$allocator@U_tagRoomInfo@@@3@@2@U?$less@H@2@V?$allocator@U_tagRoomInfo@@@2@@std@@QAEXXZ 0040b0a0 f i DataRecord.obj
 0001:0000a180       ??Diterator@?$_Tree@HU?$pair@$$CBHU_tagRoomInfo@@@std@@U_Kfn@?$map@HU_tagRoomInfo@@U?$less@H@std@@V?$allocator@U_tagRoomInfo@@@3@@2@U?$less@H@2@V?$allocator@U_tagRoomInfo@@@2@@std@@QBEAAU?$pair@$$CBHU_tagRoomInfo@@@2@XZ 0040b180 f i DataRecord.obj
 0001:0000a1c0       ??8iterator@?$_Tree@HU?$pair@$$CBHU_tagRoomInfo@@@std@@U_Kfn@?$map@HU_tagRoomInfo@@U?$less@H@std@@V?$allocator@U_tagRoomInfo@@@3@@2@U?$less@H@2@V?$allocator@U_tagRoomInfo@@@2@@std@@QBE_NABV012@@Z 0040b1c0 f i DataRecord.obj
 0001:0000a1f0       ??R?$less@H@std@@QBE_NABH0@Z 0040b1f0 f i DataRecord.obj
 0001:0000a220       ??R_Kfn@?$set@HU?$less@H@std@@V?$allocator@H@2@@std@@QBEABHABH@Z 0040b220 f i DataRecord.obj
 0001:0000a240       ?_Key@?$_Tree@HHU_Kfn@?$set@HU?$less@H@std@@V?$allocator@H@2@@std@@U?$less@H@3@V?$allocator@H@3@@std@@KAABHPAU_Node@12@@Z 0040b240 f i DataRecord.obj
 0001:0000a280       ?_Left@?$_Tree@HHU_Kfn@?$set@HU?$less@H@std@@V?$allocator@H@2@@std@@U?$less@H@3@V?$allocator@H@3@@std@@KAAAPAU_Node@12@PAU312@@Z 0040b280 f i DataRecord.obj
 0001:0000a290       ?_Parent@?$_Tree@HHU_Kfn@?$set@HU?$less@H@std@@V?$allocator@H@2@@std@@U?$less@H@3@V?$allocator@H@3@@std@@KAAAPAU_Node@12@PAU312@@Z 0040b290 f i DataRecord.obj
 0001:0000a2a0       ?_Right@?$_Tree@HHU_Kfn@?$set@HU?$less@H@std@@V?$allocator@H@2@@std@@U?$less@H@3@V?$allocator@H@3@@std@@KAAAPAU_Node@12@PAU312@@Z 0040b2a0 f i DataRecord.obj
 0001:0000a2b0       ?erase@?$_Tree@HHU_Kfn@?$set@HU?$less@H@std@@V?$allocator@H@2@@std@@U?$less@H@3@V?$allocator@H@3@@std@@QAE?AViterator@12@V312@@Z 0040b2b0 f i DataRecord.obj
 0001:0000ad60       ?lower_bound@?$_Tree@HHU_Kfn@?$set@HU?$less@H@std@@V?$allocator@H@2@@std@@U?$less@H@3@V?$allocator@H@3@@std@@QAE?AViterator@12@ABH@Z 0040bd60 f i DataRecord.obj
 0001:0000adc0       ?_Copy@?$_Tree@HHU_Kfn@?$set@HU?$less@H@std@@V?$allocator@H@2@@std@@U?$less@H@3@V?$allocator@H@3@@std@@IAEPAU_Node@12@PAU312@0@Z 0040bdc0 f i DataRecord.obj
 0001:0000af10       ?_Erase@?$_Tree@HHU_Kfn@?$set@HU?$less@H@std@@V?$allocator@H@2@@std@@U?$less@H@3@V?$allocator@H@3@@std@@IAEXPAU_Node@12@@Z 0040bf10 f i DataRecord.obj
 0001:0000afc0       ?_Insert@?$_Tree@HHU_Kfn@?$set@HU?$less@H@std@@V?$allocator@H@2@@std@@U?$less@H@3@V?$allocator@H@3@@std@@IAE?AViterator@12@PAU_Node@12@0ABH@Z 0040bfc0 f i DataRecord.obj
 0001:0000b590       ?_Lmost@?$_Tree@HHU_Kfn@?$set@HU?$less@H@std@@V?$allocator@H@2@@std@@U?$less@H@3@V?$allocator@H@3@@std@@IAEAAPAU_Node@12@XZ 0040c590 f i DataRecord.obj
 0001:0000b5d0       ?_Lmost@?$_Tree@HHU_Kfn@?$set@HU?$less@H@std@@V?$allocator@H@2@@std@@U?$less@H@3@V?$allocator@H@3@@std@@IBEAAPAU_Node@12@XZ 0040c5d0 f i DataRecord.obj
 0001:0000b610       ?_Max@?$_Tree@HHU_Kfn@?$set@HU?$less@H@std@@V?$allocator@H@2@@std@@U?$less@H@3@V?$allocator@H@3@@std@@KAPAU_Node@12@PAU312@@Z 0040c610 f i DataRecord.obj
 0001:0000b660       ?_Min@?$_Tree@HHU_Kfn@?$set@HU?$less@H@std@@V?$allocator@H@2@@std@@U?$less@H@3@V?$allocator@H@3@@std@@KAPAU_Node@12@PAU312@@Z 0040c660 f i DataRecord.obj
 0001:0000b6b0       ?_Rmost@?$_Tree@HHU_Kfn@?$set@HU?$less@H@std@@V?$allocator@H@2@@std@@U?$less@H@3@V?$allocator@H@3@@std@@IAEAAPAU_Node@12@XZ 0040c6b0 f i DataRecord.obj
 0001:0000b6f0       ?_Root@?$_Tree@HHU_Kfn@?$set@HU?$less@H@std@@V?$allocator@H@2@@std@@U?$less@H@3@V?$allocator@H@3@@std@@IAEAAPAU_Node@12@XZ 0040c6f0 f i DataRecord.obj
 0001:0000b730       ?_Root@?$_Tree@HHU_Kfn@?$set@HU?$less@H@std@@V?$allocator@H@2@@std@@U?$less@H@3@V?$allocator@H@3@@std@@IBEAAPAU_Node@12@XZ 0040c730 f i DataRecord.obj
 0001:0000b770       ?_Buynode@?$_Tree@HHU_Kfn@?$set@HU?$less@H@std@@V?$allocator@H@2@@std@@U?$less@H@3@V?$allocator@H@3@@std@@IAEPAU_Node@12@PAU312@W4_Redbl@12@@Z 0040c770 f i DataRecord.obj
 0001:0000b7e0       ?deallocate@?$allocator@H@std@@QAEXPAXI@Z 0040c7e0 f i DataRecord.obj
 0001:0000b820       ??0const_iterator@?$_Tree@HHU_Kfn@?$set@HU?$less@H@std@@V?$allocator@H@2@@std@@U?$less@H@3@V?$allocator@H@3@@std@@QAE@PAU_Node@12@@Z 0040c820 f i DataRecord.obj
 0001:0000b850       ?_Mynode@const_iterator@?$_Tree@HHU_Kfn@?$set@HU?$less@H@std@@V?$allocator@H@2@@std@@U?$less@H@3@V?$allocator@H@3@@std@@QBEPAU_Node@23@XZ 0040c850 f i DataRecord.obj
 0001:0000b870       ??0iterator@?$_Tree@HHU_Kfn@?$set@HU?$less@H@std@@V?$allocator@H@2@@std@@U?$less@H@3@V?$allocator@H@3@@std@@QAE@PAU_Node@12@@Z 0040c870 f i DataRecord.obj
 0001:0000b8b0       ??Eiterator@?$_Tree@HHU_Kfn@?$set@HU?$less@H@std@@V?$allocator@H@2@@std@@U?$less@H@3@V?$allocator@H@3@@std@@QAE?AV012@H@Z 0040c8b0 f i DataRecord.obj
 0001:0000b910       ??Fiterator@?$_Tree@HHU_Kfn@?$set@HU?$less@H@std@@V?$allocator@H@2@@std@@U?$less@H@3@V?$allocator@H@3@@std@@QAEAAV012@XZ 0040c910 f i DataRecord.obj
 0001:0000b940       ??9iterator@?$_Tree@HHU_Kfn@?$set@HU?$less@H@std@@V?$allocator@H@2@@std@@U?$less@H@3@V?$allocator@H@3@@std@@QBE_NABV012@@Z 0040c940 f i DataRecord.obj
 0001:0000b990       ?deallocate@?$allocator@U_tagPlayerInfo@@@std@@QAEXPAXI@Z 0040c990 f i DataRecord.obj
 0001:0000b9d0       ?_Parent@?$_Tree@HU?$pair@$$CBHU_tagPlayerInfo@@@std@@U_Kfn@?$map@HU_tagPlayerInfo@@U?$less@H@std@@V?$allocator@U_tagPlayerInfo@@@3@@2@U?$less@H@2@V?$allocator@U_tagPlayerInfo@@@2@@std@@KAAAPAU_Node@12@PAU312@@Z 0040c9d0 f i DataRecord.obj
 0001:0000b9e0       ?_Right@?$_Tree@HU?$pair@$$CBHU_tagPlayerInfo@@@std@@U_Kfn@?$map@HU_tagPlayerInfo@@U?$less@H@std@@V?$allocator@U_tagPlayerInfo@@@3@@2@U?$less@H@2@V?$allocator@U_tagPlayerInfo@@@2@@std@@KAAAPAU_Node@12@PAU312@@Z 0040c9e0 f i DataRecord.obj
 0001:0000b9f0       ?_Value@?$_Tree@HU?$pair@$$CBHU_tagPlayerInfo@@@std@@U_Kfn@?$map@HU_tagPlayerInfo@@U?$less@H@std@@V?$allocator@U_tagPlayerInfo@@@3@@2@U?$less@H@2@V?$allocator@U_tagPlayerInfo@@@2@@std@@KAAAU?$pair@$$CBHU_tagPlayerInfo@@@2@PAU_Node@12@@Z 0040c9f0 f i DataRecord.obj
 0001:0000ba00       ?insert@?$_Tree@HU?$pair@$$CBHU_tagPlayerInfo@@@std@@U_Kfn@?$map@HU_tagPlayerInfo@@U?$less@H@std@@V?$allocator@U_tagPlayerInfo@@@3@@2@U?$less@H@2@V?$allocator@U_tagPlayerInfo@@@2@@std@@QAE?AU?$pair@Viterator@?$_Tree@HU?$pair@$$CBHU_tagPlayerInfo@@@std@@U_Kfn@?$map@HU_tagPlayerInfo@@U?$less@H@std@@V?$allocator@U_tagPlayerInfo@@@3@@2@U?$less@H@2@V?$allocator@U_tagPlayerInfo@@@2@@std@@_N@2@ABU?$pair@$$CBHU_tagPlayerInfo@@@2@@Z 0040ca00 f i DataRecord.obj
 0001:0000bca0       ?erase@?$_Tree@HU?$pair@$$CBHU_tagPlayerInfo@@@std@@U_Kfn@?$map@HU_tagPlayerInfo@@U?$less@H@std@@V?$allocator@U_tagPlayerInfo@@@3@@2@U?$less@H@2@V?$allocator@U_tagPlayerInfo@@@2@@std@@QAE?AViterator@12@V312@@Z 0040cca0 f i DataRecord.obj
 0001:0000c750       ?_Erase@?$_Tree@HU?$pair@$$CBHU_tagPlayerInfo@@@std@@U_Kfn@?$map@HU_tagPlayerInfo@@U?$less@H@std@@V?$allocator@U_tagPlayerInfo@@@3@@2@U?$less@H@2@V?$allocator@U_tagPlayerInfo@@@2@@std@@IAEXPAU_Node@12@@Z 0040d750 f i DataRecord.obj
 0001:0000c800       ?_Init@?$_Tree@HU?$pair@$$CBHU_tagPlayerInfo@@@std@@U_Kfn@?$map@HU_tagPlayerInfo@@U?$less@H@std@@V?$allocator@U_tagPlayerInfo@@@3@@2@U?$less@H@2@V?$allocator@U_tagPlayerInfo@@@2@@std@@IAEXXZ 0040d800 f i DataRecord.obj
 0001:0000c980       ?_Lmost@?$_Tree@HU?$pair@$$CBHU_tagPlayerInfo@@@std@@U_Kfn@?$map@HU_tagPlayerInfo@@U?$less@H@std@@V?$allocator@U_tagPlayerInfo@@@3@@2@U?$less@H@2@V?$allocator@U_tagPlayerInfo@@@2@@std@@IAEAAPAU_Node@12@XZ 0040d980 f i DataRecord.obj
 0001:0000c9c0       ?_Min@?$_Tree@HU?$pair@$$CBHU_tagPlayerInfo@@@std@@U_Kfn@?$map@HU_tagPlayerInfo@@U?$less@H@std@@V?$allocator@U_tagPlayerInfo@@@3@@2@U?$less@H@2@V?$allocator@U_tagPlayerInfo@@@2@@std@@KAPAU_Node@12@PAU312@@Z 0040d9c0 f i DataRecord.obj
 0001:0000ca10       ?_Rmost@?$_Tree@HU?$pair@$$CBHU_tagPlayerInfo@@@std@@U_Kfn@?$map@HU_tagPlayerInfo@@U?$less@H@std@@V?$allocator@U_tagPlayerInfo@@@3@@2@U?$less@H@2@V?$allocator@U_tagPlayerInfo@@@2@@std@@IAEAAPAU_Node@12@XZ 0040da10 f i DataRecord.obj
 0001:0000ca50       ?_Root@?$_Tree@HU?$pair@$$CBHU_tagPlayerInfo@@@std@@U_Kfn@?$map@HU_tagPlayerInfo@@U?$less@H@std@@V?$allocator@U_tagPlayerInfo@@@3@@2@U?$less@H@2@V?$allocator@U_tagPlayerInfo@@@2@@std@@IAEAAPAU_Node@12@XZ 0040da50 f i DataRecord.obj
 0001:0000ca90       ??0iterator@?$_Tree@HU?$pair@$$CBHU_tagPlayerInfo@@@std@@U_Kfn@?$map@HU_tagPlayerInfo@@U?$less@H@std@@V?$allocator@U_tagPlayerInfo@@@3@@2@U?$less@H@2@V?$allocator@U_tagPlayerInfo@@@2@@std@@QAE@PAU_Node@12@@Z 0040da90 f i DataRecord.obj
 0001:0000cad0       ??Eiterator@?$_Tree@HU?$pair@$$CBHU_tagPlayerInfo@@@std@@U_Kfn@?$map@HU_tagPlayerInfo@@U?$less@H@std@@V?$allocator@U_tagPlayerInfo@@@3@@2@U?$less@H@2@V?$allocator@U_tagPlayerInfo@@@2@@std@@QAE?AV012@H@Z 0040dad0 f i DataRecord.obj
 0001:0000cb30       ?deallocate@?$allocator@U_tagRoomInfo@@@std@@QAEXPAXI@Z 0040db30 f i DataRecord.obj
 0001:0000cb70       ?_Parent@?$_Tree@HU?$pair@$$CBHU_tagRoomInfo@@@std@@U_Kfn@?$map@HU_tagRoomInfo@@U?$less@H@std@@V?$allocator@U_tagRoomInfo@@@3@@2@U?$less@H@2@V?$allocator@U_tagRoomInfo@@@2@@std@@KAAAPAU_Node@12@PAU312@@Z 0040db70 f i DataRecord.obj
 0001:0000cb80       ?_Right@?$_Tree@HU?$pair@$$CBHU_tagRoomInfo@@@std@@U_Kfn@?$map@HU_tagRoomInfo@@U?$less@H@std@@V?$allocator@U_tagRoomInfo@@@3@@2@U?$less@H@2@V?$allocator@U_tagRoomInfo@@@2@@std@@KAAAPAU_Node@12@PAU312@@Z 0040db80 f i DataRecord.obj
 0001:0000cb90       ?_Value@?$_Tree@HU?$pair@$$CBHU_tagRoomInfo@@@std@@U_Kfn@?$map@HU_tagRoomInfo@@U?$less@H@std@@V?$allocator@U_tagRoomInfo@@@3@@2@U?$less@H@2@V?$allocator@U_tagRoomInfo@@@2@@std@@KAAAU?$pair@$$CBHU_tagRoomInfo@@@2@PAU_Node@12@@Z 0040db90 f i DataRecord.obj
 0001:0000cba0       ?size@?$_Tree@HU?$pair@$$CBHU_tagRoomInfo@@@std@@U_Kfn@?$map@HU_tagRoomInfo@@U?$less@H@std@@V?$allocator@U_tagRoomInfo@@@3@@2@U?$less@H@2@V?$allocator@U_tagRoomInfo@@@2@@std@@QBEIXZ 0040dba0 f i DataRecord.obj
 0001:0000cbc0       ?insert@?$_Tree@HU?$pair@$$CBHU_tagRoomInfo@@@std@@U_Kfn@?$map@HU_tagRoomInfo@@U?$less@H@std@@V?$allocator@U_tagRoomInfo@@@3@@2@U?$less@H@2@V?$allocator@U_tagRoomInfo@@@2@@std@@QAE?AU?$pair@Viterator@?$_Tree@HU?$pair@$$CBHU_tagRoomInfo@@@std@@U_Kfn@?$map@HU_tagRoomInfo@@U?$less@H@std@@V?$allocator@U_tagRoomInfo@@@3@@2@U?$less@H@2@V?$allocator@U_tagRoomInfo@@@2@@std@@_N@2@ABU?$pair@$$CBHU_tagRoomInfo@@@2@@Z 0040dbc0 f i DataRecord.obj
 0001:0000ce60       ?erase@?$_Tree@HU?$pair@$$CBHU_tagRoomInfo@@@std@@U_Kfn@?$map@HU_tagRoomInfo@@U?$less@H@std@@V?$allocator@U_tagRoomInfo@@@3@@2@U?$less@H@2@V?$allocator@U_tagRoomInfo@@@2@@std@@QAE?AViterator@12@V312@@Z 0040de60 f i DataRecord.obj
 0001:0000d910       ?_Erase@?$_Tree@HU?$pair@$$CBHU_tagRoomInfo@@@std@@U_Kfn@?$map@HU_tagRoomInfo@@U?$less@H@std@@V?$allocator@U_tagRoomInfo@@@3@@2@U?$less@H@2@V?$allocator@U_tagRoomInfo@@@2@@std@@IAEXPAU_Node@12@@Z 0040e910 f i DataRecord.obj
 0001:0000d9c0       ?_Init@?$_Tree@HU?$pair@$$CBHU_tagRoomInfo@@@std@@U_Kfn@?$map@HU_tagRoomInfo@@U?$less@H@std@@V?$allocator@U_tagRoomInfo@@@3@@2@U?$less@H@2@V?$allocator@U_tagRoomInfo@@@2@@std@@IAEXXZ 0040e9c0 f i DataRecord.obj
 0001:0000db40       ?_Lmost@?$_Tree@HU?$pair@$$CBHU_tagRoomInfo@@@std@@U_Kfn@?$map@HU_tagRoomInfo@@U?$less@H@std@@V?$allocator@U_tagRoomInfo@@@3@@2@U?$less@H@2@V?$allocator@U_tagRoomInfo@@@2@@std@@IAEAAPAU_Node@12@XZ 0040eb40 f i DataRecord.obj
 0001:0000db80       ?_Min@?$_Tree@HU?$pair@$$CBHU_tagRoomInfo@@@std@@U_Kfn@?$map@HU_tagRoomInfo@@U?$less@H@std@@V?$allocator@U_tagRoomInfo@@@3@@2@U?$less@H@2@V?$allocator@U_tagRoomInfo@@@2@@std@@KAPAU_Node@12@PAU312@@Z 0040eb80 f i DataRecord.obj
 0001:0000dbd0       ?_Rmost@?$_Tree@HU?$pair@$$CBHU_tagRoomInfo@@@std@@U_Kfn@?$map@HU_tagRoomInfo@@U?$less@H@std@@V?$allocator@U_tagRoomInfo@@@3@@2@U?$less@H@2@V?$allocator@U_tagRoomInfo@@@2@@std@@IAEAAPAU_Node@12@XZ 0040ebd0 f i DataRecord.obj
 0001:0000dc10       ?_Root@?$_Tree@HU?$pair@$$CBHU_tagRoomInfo@@@std@@U_Kfn@?$map@HU_tagRoomInfo@@U?$less@H@std@@V?$allocator@U_tagRoomInfo@@@3@@2@U?$less@H@2@V?$allocator@U_tagRoomInfo@@@2@@std@@IAEAAPAU_Node@12@XZ 0040ec10 f i DataRecord.obj
 0001:0000dc50       ??0iterator@?$_Tree@HU?$pair@$$CBHU_tagRoomInfo@@@std@@U_Kfn@?$map@HU_tagRoomInfo@@U?$less@H@std@@V?$allocator@U_tagRoomInfo@@@3@@2@U?$less@H@2@V?$allocator@U_tagRoomInfo@@@2@@std@@QAE@PAU_Node@12@@Z 0040ec50 f i DataRecord.obj
 0001:0000dc90       ??Eiterator@?$_Tree@HU?$pair@$$CBHU_tagRoomInfo@@@std@@U_Kfn@?$map@HU_tagRoomInfo@@U?$less@H@std@@V?$allocator@U_tagRoomInfo@@@3@@2@U?$less@H@2@V?$allocator@U_tagRoomInfo@@@2@@std@@QAE?AV012@H@Z 0040ec90 f i DataRecord.obj
 0001:0000dcf0       ??0?$pair@Viterator@?$_Tree@HU?$pair@$$CBHU_tagPlayerInfo@@@std@@U_Kfn@?$map@HU_tagPlayerInfo@@U?$less@H@std@@V?$allocator@U_tagPlayerInfo@@@3@@2@U?$less@H@2@V?$allocator@U_tagPlayerInfo@@@2@@std@@_N@std@@QAE@ABViterator@?$_Tree@HU?$pair@$$CBHU_tagPlayerInfo@@@std@@U_Kfn@?$map@HU_tagPlayerInfo@@U?$less@H@std@@V?$allocator@U_tagPlayerInfo@@@3@@2@U?$less@H@2@V?$allocator@U_tagPlayerInfo@@@2@@1@AB_N@Z 0040ecf0 f i DataRecord.obj
 0001:0000dd30       ??0?$pair@Viterator@?$_Tree@HU?$pair@$$CBHU_tagRoomInfo@@@std@@U_Kfn@?$map@HU_tagRoomInfo@@U?$less@H@std@@V?$allocator@U_tagRoomInfo@@@3@@2@U?$less@H@2@V?$allocator@U_tagRoomInfo@@@2@@std@@_N@std@@QAE@ABViterator@?$_Tree@HU?$pair@$$CBHU_tagRoomInfo@@@std@@U_Kfn@?$map@HU_tagRoomInfo@@U?$less@H@std@@V?$allocator@U_tagRoomInfo@@@3@@2@U?$less@H@2@V?$allocator@U_tagRoomInfo@@@2@@1@AB_N@Z 0040ed30 f i DataRecord.obj
 0001:0000dd70       ?_Color@?$_Tree@HHU_Kfn@?$set@HU?$less@H@std@@V?$allocator@H@2@@std@@U?$less@H@3@V?$allocator@H@3@@std@@KAAAW4_Redbl@12@PAU_Node@12@@Z 0040ed70 f i DataRecord.obj
 0001:0000dd80       ?_Lbound@?$_Tree@HHU_Kfn@?$set@HU?$less@H@std@@V?$allocator@H@2@@std@@U?$less@H@3@V?$allocator@H@3@@std@@IBEPAU_Node@12@ABH@Z 0040ed80 f i DataRecord.obj
 0001:0000de50       ?_Lrotate@?$_Tree@HHU_Kfn@?$set@HU?$less@H@std@@V?$allocator@H@2@@std@@U?$less@H@3@V?$allocator@H@3@@std@@IAEXPAU_Node@12@@Z 0040ee50 f i DataRecord.obj
 0001:0000dfe0       ?_Rrotate@?$_Tree@HHU_Kfn@?$set@HU?$less@H@std@@V?$allocator@H@2@@std@@U?$less@H@3@V?$allocator@H@3@@std@@IAEXPAU_Node@12@@Z 0040efe0 f i DataRecord.obj
 0001:0000e170       ?_Consval@?$_Tree@HHU_Kfn@?$set@HU?$less@H@std@@V?$allocator@H@2@@std@@U?$less@H@3@V?$allocator@H@3@@std@@IAEXPAHABH@Z 0040f170 f i DataRecord.obj
 0001:0000e1b0       ?_Destval@?$_Tree@HHU_Kfn@?$set@HU?$less@H@std@@V?$allocator@H@2@@std@@U?$less@H@3@V?$allocator@H@3@@std@@IAEXPAH@Z 0040f1b0 f i DataRecord.obj
 0001:0000e1f0       ?_Charalloc@?$allocator@H@std@@QAEPADI@Z 0040f1f0 f i DataRecord.obj
 0001:0000e230       ?_Dec@const_iterator@?$_Tree@HHU_Kfn@?$set@HU?$less@H@std@@V?$allocator@H@2@@std@@U?$less@H@3@V?$allocator@H@3@@std@@QAEXXZ 0040f230 f i DataRecord.obj
 0001:0000e350       ??Eiterator@?$_Tree@HHU_Kfn@?$set@HU?$less@H@std@@V?$allocator@H@2@@std@@U?$less@H@3@V?$allocator@H@3@@std@@QAEAAV012@XZ 0040f350 f i DataRecord.obj
 0001:0000e380       ??R_Kfn@?$map@HU_tagPlayerInfo@@U?$less@H@std@@V?$allocator@U_tagPlayerInfo@@@3@@std@@QBEABHABU?$pair@$$CBHU_tagPlayerInfo@@@2@@Z 0040f380 f i DataRecord.obj
 0001:0000e3a0       ?_Color@?$_Tree@HU?$pair@$$CBHU_tagPlayerInfo@@@std@@U_Kfn@?$map@HU_tagPlayerInfo@@U?$less@H@std@@V?$allocator@U_tagPlayerInfo@@@3@@2@U?$less@H@2@V?$allocator@U_tagPlayerInfo@@@2@@std@@KAAAW4_Redbl@12@PAU_Node@12@@Z 0040f3a0 f i DataRecord.obj
 0001:0000e3b0       ?_Key@?$_Tree@HU?$pair@$$CBHU_tagPlayerInfo@@@std@@U_Kfn@?$map@HU_tagPlayerInfo@@U?$less@H@std@@V?$allocator@U_tagPlayerInfo@@@3@@2@U?$less@H@2@V?$allocator@U_tagPlayerInfo@@@2@@std@@KAABHPAU_Node@12@@Z 0040f3b0 f i DataRecord.obj
 0001:0000e3f0       ?_Left@?$_Tree@HU?$pair@$$CBHU_tagPlayerInfo@@@std@@U_Kfn@?$map@HU_tagPlayerInfo@@U?$less@H@std@@V?$allocator@U_tagPlayerInfo@@@3@@2@U?$less@H@2@V?$allocator@U_tagPlayerInfo@@@2@@std@@KAAAPAU_Node@12@PAU312@@Z 0040f3f0 f i DataRecord.obj
 0001:0000e400       ?_Insert@?$_Tree@HU?$pair@$$CBHU_tagPlayerInfo@@@std@@U_Kfn@?$map@HU_tagPlayerInfo@@U?$less@H@std@@V?$allocator@U_tagPlayerInfo@@@3@@2@U?$less@H@2@V?$allocator@U_tagPlayerInfo@@@2@@std@@IAE?AViterator@12@PAU_Node@12@0ABU?$pair@$$CBHU_tagPlayerInfo@@@2@@Z 0040f400 f i DataRecord.obj
 0001:0000e9d0       ?_Lrotate@?$_Tree@HU?$pair@$$CBHU_tagPlayerInfo@@@std@@U_Kfn@?$map@HU_tagPlayerInfo@@U?$less@H@std@@V?$allocator@U_tagPlayerInfo@@@3@@2@U?$less@H@2@V?$allocator@U_tagPlayerInfo@@@2@@std@@IAEXPAU_Node@12@@Z 0040f9d0 f i DataRecord.obj
 0001:0000eb60       ?_Max@?$_Tree@HU?$pair@$$CBHU_tagPlayerInfo@@@std@@U_Kfn@?$map@HU_tagPlayerInfo@@U?$less@H@std@@V?$allocator@U_tagPlayerInfo@@@3@@2@U?$less@H@2@V?$allocator@U_tagPlayerInfo@@@2@@std@@KAPAU_Node@12@PAU312@@Z 0040fb60 f i DataRecord.obj
 0001:0000ebb0       ?_Rrotate@?$_Tree@HU?$pair@$$CBHU_tagPlayerInfo@@@std@@U_Kfn@?$map@HU_tagPlayerInfo@@U?$less@H@std@@V?$allocator@U_tagPlayerInfo@@@3@@2@U?$less@H@2@V?$allocator@U_tagPlayerInfo@@@2@@std@@IAEXPAU_Node@12@@Z 0040fbb0 f i DataRecord.obj
 0001:0000ed40       ?_Buynode@?$_Tree@HU?$pair@$$CBHU_tagPlayerInfo@@@std@@U_Kfn@?$map@HU_tagPlayerInfo@@U?$less@H@std@@V?$allocator@U_tagPlayerInfo@@@3@@2@U?$less@H@2@V?$allocator@U_tagPlayerInfo@@@2@@std@@IAEPAU_Node@12@PAU312@W4_Redbl@12@@Z 0040fd40 f i DataRecord.obj
 0001:0000edb0       ?_Destval@?$_Tree@HU?$pair@$$CBHU_tagPlayerInfo@@@std@@U_Kfn@?$map@HU_tagPlayerInfo@@U?$less@H@std@@V?$allocator@U_tagPlayerInfo@@@3@@2@U?$less@H@2@V?$allocator@U_tagPlayerInfo@@@2@@std@@IAEXPAU?$pair@$$CBHU_tagPlayerInfo@@@2@@Z 0040fdb0 f i DataRecord.obj
 0001:0000edf0       ??0const_iterator@?$_Tree@HU?$pair@$$CBHU_tagPlayerInfo@@@std@@U_Kfn@?$map@HU_tagPlayerInfo@@U?$less@H@std@@V?$allocator@U_tagPlayerInfo@@@3@@2@U?$less@H@2@V?$allocator@U_tagPlayerInfo@@@2@@std@@QAE@PAU_Node@12@@Z 0040fdf0 f i DataRecord.obj
 0001:0000ee20       ?_Mynode@const_iterator@?$_Tree@HU?$pair@$$CBHU_tagPlayerInfo@@@std@@U_Kfn@?$map@HU_tagPlayerInfo@@U?$less@H@std@@V?$allocator@U_tagPlayerInfo@@@3@@2@U?$less@H@2@V?$allocator@U_tagPlayerInfo@@@2@@std@@QBEPAU_Node@23@XZ 0040fe20 f i DataRecord.obj
 0001:0000ee40       ??Fiterator@?$_Tree@HU?$pair@$$CBHU_tagPlayerInfo@@@std@@U_Kfn@?$map@HU_tagPlayerInfo@@U?$less@H@std@@V?$allocator@U_tagPlayerInfo@@@3@@2@U?$less@H@2@V?$allocator@U_tagPlayerInfo@@@2@@std@@QAEAAV012@XZ 0040fe40 f i DataRecord.obj
 0001:0000ee70       ??R_Kfn@?$map@HU_tagRoomInfo@@U?$less@H@std@@V?$allocator@U_tagRoomInfo@@@3@@std@@QBEABHABU?$pair@$$CBHU_tagRoomInfo@@@2@@Z 0040fe70 f i DataRecord.obj
 0001:0000ee90       ?_Color@?$_Tree@HU?$pair@$$CBHU_tagRoomInfo@@@std@@U_Kfn@?$map@HU_tagRoomInfo@@U?$less@H@std@@V?$allocator@U_tagRoomInfo@@@3@@2@U?$less@H@2@V?$allocator@U_tagRoomInfo@@@2@@std@@KAAAW4_Redbl@12@PAU_Node@12@@Z 0040fe90 f i DataRecord.obj
 0001:0000eea0       ?_Key@?$_Tree@HU?$pair@$$CBHU_tagRoomInfo@@@std@@U_Kfn@?$map@HU_tagRoomInfo@@U?$less@H@std@@V?$allocator@U_tagRoomInfo@@@3@@2@U?$less@H@2@V?$allocator@U_tagRoomInfo@@@2@@std@@KAABHPAU_Node@12@@Z 0040fea0 f i DataRecord.obj
 0001:0000eee0       ?_Left@?$_Tree@HU?$pair@$$CBHU_tagRoomInfo@@@std@@U_Kfn@?$map@HU_tagRoomInfo@@U?$less@H@std@@V?$allocator@U_tagRoomInfo@@@3@@2@U?$less@H@2@V?$allocator@U_tagRoomInfo@@@2@@std@@KAAAPAU_Node@12@PAU312@@Z 0040fee0 f i DataRecord.obj
 0001:0000eef0       ?_Insert@?$_Tree@HU?$pair@$$CBHU_tagRoomInfo@@@std@@U_Kfn@?$map@HU_tagRoomInfo@@U?$less@H@std@@V?$allocator@U_tagRoomInfo@@@3@@2@U?$less@H@2@V?$allocator@U_tagRoomInfo@@@2@@std@@IAE?AViterator@12@PAU_Node@12@0ABU?$pair@$$CBHU_tagRoomInfo@@@2@@Z 0040fef0 f i DataRecord.obj
 0001:0000f4c0       ?_Lrotate@?$_Tree@HU?$pair@$$CBHU_tagRoomInfo@@@std@@U_Kfn@?$map@HU_tagRoomInfo@@U?$less@H@std@@V?$allocator@U_tagRoomInfo@@@3@@2@U?$less@H@2@V?$allocator@U_tagRoomInfo@@@2@@std@@IAEXPAU_Node@12@@Z 004104c0 f i DataRecord.obj
 0001:0000f650       ?_Max@?$_Tree@HU?$pair@$$CBHU_tagRoomInfo@@@std@@U_Kfn@?$map@HU_tagRoomInfo@@U?$less@H@std@@V?$allocator@U_tagRoomInfo@@@3@@2@U?$less@H@2@V?$allocator@U_tagRoomInfo@@@2@@std@@KAPAU_Node@12@PAU312@@Z 00410650 f i DataRecord.obj
 0001:0000f6a0       ?_Rrotate@?$_Tree@HU?$pair@$$CBHU_tagRoomInfo@@@std@@U_Kfn@?$map@HU_tagRoomInfo@@U?$less@H@std@@V?$allocator@U_tagRoomInfo@@@3@@2@U?$less@H@2@V?$allocator@U_tagRoomInfo@@@2@@std@@IAEXPAU_Node@12@@Z 004106a0 f i DataRecord.obj
 0001:0000f830       ?_Buynode@?$_Tree@HU?$pair@$$CBHU_tagRoomInfo@@@std@@U_Kfn@?$map@HU_tagRoomInfo@@U?$less@H@std@@V?$allocator@U_tagRoomInfo@@@3@@2@U?$less@H@2@V?$allocator@U_tagRoomInfo@@@2@@std@@IAEPAU_Node@12@PAU312@W4_Redbl@12@@Z 00410830 f i DataRecord.obj
 0001:0000f8a0       ?_Destval@?$_Tree@HU?$pair@$$CBHU_tagRoomInfo@@@std@@U_Kfn@?$map@HU_tagRoomInfo@@U?$less@H@std@@V?$allocator@U_tagRoomInfo@@@3@@2@U?$less@H@2@V?$allocator@U_tagRoomInfo@@@2@@std@@IAEXPAU?$pair@$$CBHU_tagRoomInfo@@@2@@Z 004108a0 f i DataRecord.obj
 0001:0000f8e0       ??0const_iterator@?$_Tree@HU?$pair@$$CBHU_tagRoomInfo@@@std@@U_Kfn@?$map@HU_tagRoomInfo@@U?$less@H@std@@V?$allocator@U_tagRoomInfo@@@3@@2@U?$less@H@2@V?$allocator@U_tagRoomInfo@@@2@@std@@QAE@PAU_Node@12@@Z 004108e0 f i DataRecord.obj
 0001:0000f910       ?_Mynode@const_iterator@?$_Tree@HU?$pair@$$CBHU_tagRoomInfo@@@std@@U_Kfn@?$map@HU_tagRoomInfo@@U?$less@H@std@@V?$allocator@U_tagRoomInfo@@@3@@2@U?$less@H@2@V?$allocator@U_tagRoomInfo@@@2@@std@@QBEPAU_Node@23@XZ 00410910 f i DataRecord.obj
 0001:0000f930       ??Fiterator@?$_Tree@HU?$pair@$$CBHU_tagRoomInfo@@@std@@U_Kfn@?$map@HU_tagRoomInfo@@U?$less@H@std@@V?$allocator@U_tagRoomInfo@@@3@@2@U?$less@H@2@V?$allocator@U_tagRoomInfo@@@2@@std@@QAEAAV012@XZ 00410930 f i DataRecord.obj
 0001:0000f960       ?_Charalloc@?$allocator@U_tagPlayerInfo@@@std@@QAEPADI@Z 00410960 f i DataRecord.obj
 0001:0000f9a0       ?_Consval@?$_Tree@HU?$pair@$$CBHU_tagPlayerInfo@@@std@@U_Kfn@?$map@HU_tagPlayerInfo@@U?$less@H@std@@V?$allocator@U_tagPlayerInfo@@@3@@2@U?$less@H@2@V?$allocator@U_tagPlayerInfo@@@2@@std@@IAEXPAU?$pair@$$CBHU_tagPlayerInfo@@@2@ABU32@@Z 004109a0 f i DataRecord.obj
 0001:0000f9e0       ?_Dec@const_iterator@?$_Tree@HU?$pair@$$CBHU_tagPlayerInfo@@@std@@U_Kfn@?$map@HU_tagPlayerInfo@@U?$less@H@std@@V?$allocator@U_tagPlayerInfo@@@3@@2@U?$less@H@2@V?$allocator@U_tagPlayerInfo@@@2@@std@@QAEXXZ 004109e0 f i DataRecord.obj
 0001:0000fb00       ?_Charalloc@?$allocator@U_tagRoomInfo@@@std@@QAEPADI@Z 00410b00 f i DataRecord.obj
 0001:0000fb40       ?_Consval@?$_Tree@HU?$pair@$$CBHU_tagRoomInfo@@@std@@U_Kfn@?$map@HU_tagRoomInfo@@U?$less@H@std@@V?$allocator@U_tagRoomInfo@@@3@@2@U?$less@H@2@V?$allocator@U_tagRoomInfo@@@2@@std@@IAEXPAU?$pair@$$CBHU_tagRoomInfo@@@2@ABU32@@Z 00410b40 f i DataRecord.obj
 0001:0000fb80       ?_Dec@const_iterator@?$_Tree@HU?$pair@$$CBHU_tagRoomInfo@@@std@@U_Kfn@?$map@HU_tagRoomInfo@@U?$less@H@std@@V?$allocator@U_tagRoomInfo@@@3@@2@U?$less@H@2@V?$allocator@U_tagRoomInfo@@@2@@std@@QAEXXZ 00410b80 f i DataRecord.obj
 0001:0000fca0       ??0CCritSec@@QAE@XZ        00410ca0 f i DataRecord.obj
 0001:0000fcf0       ??1CCritSec@@QAE@XZ        00410cf0 f i DataRecord.obj
 0001:0000fd30       ??0CAutoLock@@QAE@PAVCCritSec@@@Z 00410d30 f i DataRecord.obj
 0001:0000fd70       ?Lock@CCritSec@@QAEXXZ     00410d70 f i DataRecord.obj
 0001:0000fdb0       ??1CAutoLock@@QAE@XZ       00410db0 f i DataRecord.obj
 0001:0000fde0       ?Unlock@CCritSec@@QAEXXZ   00410de0 f i DataRecord.obj
 0001:0000fe20       ?swap@std@@YAXAAW4_Redbl@?$_Tree@HHU_Kfn@?$set@HU?$less@H@std@@V?$allocator@H@2@@std@@U?$less@H@3@V?$allocator@H@3@@1@0@Z 00410e20 f i DataRecord.obj
 0001:0000fe60       ?swap@std@@YAXAAW4_Redbl@?$_Tree@HU?$pair@$$CBHU_tagPlayerInfo@@@std@@U_Kfn@?$map@HU_tagPlayerInfo@@U?$less@H@std@@V?$allocator@U_tagPlayerInfo@@@3@@2@U?$less@H@2@V?$allocator@U_tagPlayerInfo@@@2@@1@0@Z 00410e60 f i DataRecord.obj
 0001:0000fea0       ?swap@std@@YAXAAW4_Redbl@?$_Tree@HU?$pair@$$CBHU_tagRoomInfo@@@std@@U_Kfn@?$map@HU_tagRoomInfo@@U?$less@H@std@@V?$allocator@U_tagRoomInfo@@@3@@2@U?$less@H@2@V?$allocator@U_tagRoomInfo@@@2@@1@0@Z 00410ea0 f i DataRecord.obj
 0001:0000fee0       ?_Construct@std@@YAXPAHABH@Z 00410ee0 f i DataRecord.obj
 0001:0000ff50       ??2@YAPAXIPAX@Z            00410f50 f i DataRecord.obj
 0001:0000ff60       ?_Destroy@std@@YAXPAH@Z    00410f60 f i DataRecord.obj
 0001:0000ff70       ?_Allocate@std@@YAPADHPAD@Z 00410f70 f i DataRecord.obj
 0001:0000ffa0       ?_Destroy@std@@YAXPAU?$pair@$$CBHU_tagPlayerInfo@@@1@@Z 00410fa0 f i DataRecord.obj
 0001:0000ffb0       ?_Destroy@std@@YAXPAU?$pair@$$CBHU_tagRoomInfo@@@1@@Z 00410fb0 f i DataRecord.obj
 0001:0000ffd0       ?_Construct@std@@YAXPAU?$pair@$$CBHU_tagPlayerInfo@@@1@ABU21@@Z 00410fd0 f i DataRecord.obj
 0001:00010040       ?_Construct@std@@YAXPAU?$pair@$$CBHU_tagRoomInfo@@@1@ABU21@@Z 00411040 f i DataRecord.obj
 0001:000100f0       ??3@YAXPAX0@Z              004110f0 f i DataRecord.obj
 0001:00010100       ??_G?$pair@$$CBHU_tagRoomInfo@@@std@@QAEPAXI@Z 00411100 f i DataRecord.obj
 0001:00010150       ??0?$pair@$$CBHU_tagRoomInfo@@@std@@QAE@ABU01@@Z 00411150 f i DataRecord.obj
 0001:000101a0       ?Svr_RetrieveFields@@YAHPADPAPADH1@Z 004111a0 f i DataRecord.obj
 0001:00010300       ?x_StrInsertReplace@@YAXAAVCString@@HHABV1@@Z 00411300 f   Markup.obj
 0001:00010404       ?x_Hash@@YAHPBDH@Z         00411404 f   Markup.obj
 0001:00010447       ?x_IntToStr@@YA?AVCString@@H@Z 00411447 f   Markup.obj
 0001:000104f9       ?x_StrNCmp@@YAHPBD0HH@Z    004114f9 f   Markup.obj
 0001:00010630       ?x_AddResult@@YAXAAVCString@@UMCD_CSTR@@1HHH@Z 00411630 f   Markup.obj
 0001:00010867       ?x_GetEncodingCodePage@@YAHUMCD_CSTR@@@Z 00411867 f   Markup.obj
 0001:00010a1f       ?CanConvert@TextEncoding@@SA_NUMCD_CSTR@@0@Z 00411a1f f   Markup.obj
 0001:00010abc       ?x_NoDefaultChar@@YA_NH@Z  00411abc f   Markup.obj
 0001:00010b4a       ?PerformConversion@TextEncoding@@QAEHPAXUMCD_CSTR@@@Z 00411b4a f   Markup.obj
 0001:00010f0f       ?FindRaggedEnd@TextEncoding@@QAE_NAAH@Z 00411f0f f   Markup.obj
 0001:000115e9       ?x_EndianSwapRequired@@YA_NH@Z 004125e9 f   Markup.obj
 0001:00011638       ?x_EndianSwapUTF16@@YAXPAGH@Z 00412638 f   Markup.obj
 0001:0001168a       ?CopyElemPosTree@ElemPosTree@@QAEXPAU1@H@Z 0041268a f   Markup.obj
 0001:000117b6       ?GrowElemPosTree@ElemPosTree@@QAEXH@Z 004127b6 f   Markup.obj
 0001:000119ec       ?FindAttrib@TokenPos@@QAE_NPBDHPAVCString@@@Z 004129ec f   Markup.obj
 0001:00011d9e       ?CalcSlot@ElemStack@@SAHPBDH_N@Z 00412d9e f   Markup.obj
 0001:00011e21       ?PushTagAndCount@ElemStack@@QAEXAAUTokenPos@@@Z 00412e21 f   Markup.obj
 0001:000120c3       ?FileErrorAddResult@FilePos@@QAE_NXZ 004130c3 f   Markup.obj
 0001:0001227b       ?FileSpecifyEncoding@FilePos@@QAEXPAVCString@@@Z 0041327b f   Markup.obj
 0001:000122f8       ?FileAtTop@FilePos@@QAE_NXZ 004132f8 f   Markup.obj
 0001:00012344       ?FileOpen@FilePos@@QAE_NUMCD_CSTR@@@Z 00413344 f   Markup.obj
 0001:00012875       ?FileRead@FilePos@@QAE_NPAX@Z 00413875 f   Markup.obj
 0001:00012b09       ?FileCheckRaggedEnd@FilePos@@QAE_NPAX@Z 00413b09 f   Markup.obj
 0001:00012cc6       ?FileReadText@FilePos@@QAE_NAAVCString@@@Z 00413cc6 f   Markup.obj
 0001:0001356a       ?FileWrite@FilePos@@QAE_NPAXPBX@Z 0041456a f   Markup.obj
 0001:00013720       ?FileWriteText@FilePos@@QAE_NABVCString@@H@Z 00414720 f   Markup.obj
 0001:00013ab7       ?FileClose@FilePos@@QAE_NXZ 00414ab7 f   Markup.obj
 0001:00013b1f       ?FileReadNextBuffer@FilePos@@QAE_NXZ 00414b1f f   Markup.obj
 0001:00013d33       ?FileGatherStart@FilePos@@QAEXH@Z 00414d33 f   Markup.obj
 0001:00013d53       ?FileGatherEnd@FilePos@@QAEHAAVCString@@@Z 00414d53 f   Markup.obj
 0001:00013db5       ?FileFlush@FilePos@@QAE_NAAVCString@@H_N@Z 00414db5 f   Markup.obj
 0001:00013f6a       ?ParsePath@PathPos@@AAE_NXZ 00414f6a f   Markup.obj
 0001:00014117       ?AttribPredicateMatch@PathPos@@QAE_NAAUTokenPos@@@Z 00415117 f   Markup.obj
 0001:00014276       ?GetMap@SavedPosMapArray@@QAE_NAAPAUSavedPosMap@@HH@Z 00415276 f   Markup.obj
 0001:00014419       ?CopySavedPosMaps@SavedPosMapArray@@QAEXPAU1@@Z 00415419 f   Markup.obj
 0001:00014635       ?ParseNode@TokenPos@@QAEHAAUNodePos@@@Z 00415635 f   Markup.obj
 0001:00015131       ??1CMarkup@@QAE@XZ         00416131 f   Markup.obj
 0001:000151ff       ??4CMarkup@@QAEXABV0@@Z    004161ff f   Markup.obj
 0001:000152ff       ?SetDoc@CMarkup@@QAE_NPBD@Z 004162ff f   Markup.obj
 0001:000153c4       ?SetDoc@CMarkup@@QAE_NABVCString@@@Z 004163c4 f   Markup.obj
 0001:00015415       ?IsWellFormed@CMarkup@@QAE_NXZ 00416415 f   Markup.obj
 0001:000154d6       ?GetError@CMarkup@@QBE?AVCString@@XZ 004164d6 f   Markup.obj
 0001:0001645d       ?Load@CMarkup@@QAE_NUMCD_CSTR@@@Z 0041745d f   Markup.obj
 0001:000164c4       ?ReadTextFile@CMarkup@@SA_NUMCD_CSTR@@AAVCString@@PAV3@PAH2@Z 004174c4 f   Markup.obj
 0001:00016610       ?Save@CMarkup@@QAE_NUMCD_CSTR@@@Z 00417610 f   Markup.obj
 0001:00016662       ?WriteTextFile@CMarkup@@SA_NUMCD_CSTR@@ABVCString@@PAV3@PAH2@Z 00417662 f   Markup.obj
 0001:00016830       ?FindElem@CMarkup@@QAE_NUMCD_CSTR@@@Z 00417830 f   Markup.obj
 0001:000168e6       ?FindChildElem@CMarkup@@QAE_NUMCD_CSTR@@@Z 004178e6 f   Markup.obj
 0001:000169b5       ?EscapeText@CMarkup@@SA?AVCString@@UMCD_CSTR@@H@Z 004179b5 f   Markup.obj
 0001:00016d18       ?UnescapeText@CMarkup@@SA?AVCString@@UMCD_CSTR@@HH@Z 00417d18 f   Markup.obj
 0001:000171c3       ?DetectUTF8@CMarkup@@SA_NPBDHPAHPA_N@Z 004181c3 f   Markup.obj
 0001:0001727e       ?DecodeCharUTF8@CMarkup@@SAHAAPBDPBD@Z 0041827e f   Markup.obj
 0001:00017377       ?EncodeCharUTF16@CMarkup@@SAXHPAGAAH@Z 00418377 f   Markup.obj
 0001:0001742a       ?DecodeCharUTF16@CMarkup@@SAHAAPBGPBG@Z 0041842a f   Markup.obj
 0001:000174b4       ?EncodeCharUTF8@CMarkup@@SAXHPADAAH@Z 004184b4 f   Markup.obj
 0001:000176aa       ?UTF16To8@CMarkup@@SAHPADPBGH@Z 004186aa f   Markup.obj
 0001:00017770       ?UTF8To16@CMarkup@@SAHPAGPBDH@Z 00418770 f   Markup.obj
 0001:00017824       ?UTF8ToA@CMarkup@@SA?AVCString@@UMCD_CSTR@@PAH@Z 00418824 f   Markup.obj
 0001:0001794e       ?AToUTF8@CMarkup@@SA?AVCString@@UMCD_CSTR@@@Z 0041894e f   Markup.obj
 0001:00017a5d       ?GetDeclaredEncoding@CMarkup@@SA?AVCString@@UMCD_CSTR@@@Z 00418a5d f   Markup.obj
 0001:00017dfa       ?GetEncodingCodePage@CMarkup@@SAHUMCD_CSTR@@@Z 00418dfa f   Markup.obj
 0001:00017e12       ?FindNode@CMarkup@@QAEHH@Z 00418e12 f   Markup.obj
 0001:0001811e       ?RemoveNode@CMarkup@@QAE_NXZ 0041911e f   Markup.obj
 0001:000181a0       ?GetTagName@CMarkup@@QBE?AVCString@@XZ 004191a0 f   Markup.obj
 0001:0001849c       ?IntoElem@CMarkup@@QAE_NXZ 0041949c f   Markup.obj
 0001:000184e8       ?OutOfElem@CMarkup@@QAE_NXZ 004194e8 f   Markup.obj
 0001:0001853f       ?GetNthAttrib@CMarkup@@QBE_NHAAVCString@@0@Z 0041953f f   Markup.obj
 0001:0001867b       ?GetAttribName@CMarkup@@QBE?AVCString@@H@Z 0041967b f   Markup.obj
 0001:00018786       ?SavePos@CMarkup@@QAE_NUMCD_CSTR@@H@Z 00419786 f   Markup.obj
 0001:00018b1d       ?RestorePos@CMarkup@@QAE_NUMCD_CSTR@@H@Z 00419b1d f   Markup.obj
 0001:00018cd7       ?SetMapSize@CMarkup@@QAE_NHH@Z 00419cd7 f   Markup.obj
 0001:00018d26       ?RemoveElem@CMarkup@@QAE_NXZ 00419d26 f   Markup.obj
 0001:00018d9b       ?RemoveChildElem@CMarkup@@QAE_NXZ 00419d9b f   Markup.obj
 0001:00018e0c       ?x_InitMarkup@CMarkup@@IAEXXZ 00419e0c f   Markup.obj
 0001:00018f0c       ?x_GetParent@CMarkup@@IAEHH@Z 00419f0c f   Markup.obj
 0001:00018f3c       ?x_SetPos@CMarkup@@IAEXHHH@Z 00419f3c f   Markup.obj
 0001:00018fa0       ?x_SetDebugState@CMarkup@@IAEXXZ 00419fa0 f   Markup.obj
 0001:000190f3       ?x_GetFreePos@CMarkup@@IAEHXZ 0041a0f3 f   Markup.obj
 0001:00019141       ?x_AllocElemPos@CMarkup@@IAE_NH@Z 0041a141 f   Markup.obj
 0001:00019199       ?x_ParseDoc@CMarkup@@IAE_NXZ 0041a199 f   Markup.obj
 0001:0001930a       ?x_ParseElem@CMarkup@@IAEHHAAUTokenPos@@@Z 0041a30a f   Markup.obj
 0001:00019aa3       ?x_FindElem@CMarkup@@IBEHHHAAUPathPos@@@Z 0041aaa3 f   Markup.obj
 0001:00019be0       ?x_GetPath@CMarkup@@IBE?AVCString@@H@Z 0041abe0 f   Markup.obj
 0001:00019ed6       ?x_GetTagName@CMarkup@@IBE?AVCString@@H@Z 0041aed6 f   Markup.obj
 0001:00019f8c       ?x_GetAttrib@CMarkup@@IBE?AVCString@@HPBD@Z 0041af8c f   Markup.obj
 0001:0001a0c5       ?x_SetAttrib@CMarkup@@IAE_NHPBDHH@Z 0041b0c5 f   Markup.obj
 0001:0001a134       ?x_SetAttrib@CMarkup@@IAE_NHPBD0H@Z 0041b134 f   Markup.obj
 0001:0001a5a9       ?x_CreateNode@CMarkup@@KA_NAAVCString@@HPBD@Z 0041b5a9 f   Markup.obj
 0001:0001a809       ?x_EncodeCDATASection@CMarkup@@KA?AVCString@@PBD@Z 0041b809 f   Markup.obj
 0001:0001a948       ?x_SetData@CMarkup@@IAE_NHH@Z 0041b948 f   Markup.obj
 0001:0001a9b1       ?x_SetData@CMarkup@@IAE_NHPBDH@Z 0041b9b1 f   Markup.obj
 0001:0001acdc       ?x_GetData@CMarkup@@IAE?AVCString@@H@Z 0041bcdc f   Markup.obj
 0001:0001b40d       ?x_GetElemContent@CMarkup@@IBE?AVCString@@H@Z 0041c40d f   Markup.obj
 0001:0001b4ba       ?x_SetElemContent@CMarkup@@IAE_NPBD@Z 0041c4ba f   Markup.obj
 0001:0001b7bb       ?x_DocChange@CMarkup@@IAEXHHABVCString@@@Z 0041c7bb f   Markup.obj
 0001:0001b7f4       ?x_Adjust@CMarkup@@IAEXHH_N@Z 0041c7f4 f   Markup.obj
 0001:0001b9a1       ?x_InsertNew@CMarkup@@IAEHHAAHAAUNodePos@@@Z 0041c9a1 f   Markup.obj
 0001:0001c07a       ?x_AddElem@CMarkup@@IAE_NPBDHH@Z 0041d07a f   Markup.obj
 0001:0001c0e5       ?x_AddElem@CMarkup@@IAE_NPBD0H@Z 0041d0e5 f   Markup.obj
 0001:0001c6be       ?x_GetSubDoc@CMarkup@@IAE?AVCString@@H@Z 0041d6be f   Markup.obj
 0001:0001c79e       ?x_AddSubDoc@CMarkup@@IAE_NPBDH@Z 0041d79e f   Markup.obj
 0001:0001cdd8       ?x_RemoveElem@CMarkup@@IAEHH@Z 0041ddd8 f   Markup.obj
 0001:0001cef6       ?x_LinkElem@CMarkup@@IAEXHHH@Z 0041def6 f   Markup.obj
 0001:0001d149       ?x_UnlinkElem@CMarkup@@IAEHH@Z 0041e149 f   Markup.obj
 0001:0001d29c       ?x_UnlinkPrevElem@CMarkup@@IAEHHHH@Z 0041e29c f   Markup.obj
 0001:0001d36e       ?x_ReleasePos@CMarkup@@IAEHH@Z 0041e36e f   Markup.obj
 0001:0001d3e4       ?x_ReleaseSubDoc@CMarkup@@IAEHH@Z 0041e3e4 f   Markup.obj
 0001:0001d4af       ?x_CheckSavedPos@CMarkup@@IAEXXZ 0041e4af f   Markup.obj
 0001:0001d662       ?x_AdjustForNode@CMarkup@@IAEXHHH@Z 0041e662 f   Markup.obj
 0001:0001d712       ?x_AddNode@CMarkup@@IAE_NHPBDH@Z 0041e712 f   Markup.obj
 0001:0001d98a       ?x_RemoveNode@CMarkup@@IAEXHAAH000@Z 0041e98a f   Markup.obj
 0001:000212b0       ??0MCD_CSTR@@QAE@PBD@Z     004222b0 f i Markup.obj
 0001:000212e0       ??0MCD_CSTR@@QAE@ABVCString@@@Z 004222e0 f i Markup.obj
 0001:00021320       ??0CMarkup@@QAE@UMCD_CSTR@@@Z 00422320 f i Markup.obj
 0001:000213d0       ??BMCD_CSTR@@QBEPBDXZ      004223d0 f i Markup.obj
 0001:000213f0       ?GetDoc@CMarkup@@QBEABVCString@@XZ 004223f0 f i Markup.obj
 0001:00021410       ?AddElem@CMarkup@@QAE_NUMCD_CSTR@@0H@Z 00422410 f i Markup.obj
 0001:00021460       ?SetAttrib@CMarkup@@QAE_NUMCD_CSTR@@0H@Z 00422460 f i Markup.obj
 0001:000214c0       ?SetAttrib@CMarkup@@QAE_NUMCD_CSTR@@HH@Z 004224c0 f i Markup.obj
 0001:00021510       ?ReleaseElemPosTree@ElemPosTree@@QAEXXZ 00422510 f i Markup.obj
 0001:00021550       ?Release@ElemPosTree@@QAEXXZ 00422550 f i Markup.obj
 0001:000215f0       ?Clear@ElemPosTree@@QAEXXZ 004225f0 f i Markup.obj
 0001:00021630       ?SegsUsed@ElemPosTree@@QBEHXZ 00422630 f i Markup.obj
 0001:00021660       ?GetTokenText@TokenPos@@QBE?AVCString@@XZ 00422660 f i Markup.obj
 0001:000216d0       ?Length@TokenPos@@QBEHXZ   004226d0 f i Markup.obj
 0001:00021700       ?GetTokenPtr@TokenPos@@QBEPBDXZ 00422700 f i Markup.obj
 0001:00021730       ?NextChar@TokenPos@@QAEDXZ 00422730 f i Markup.obj
 0001:000217a0       ?FindAny@TokenPos@@QAE_NXZ 004227a0 f i Markup.obj
 0001:00021890       ?Match@TokenPos@@QAE_NUMCD_CSTR@@@Z 00422890 f i Markup.obj
 0001:000219a0       ??_ETagPos@@QAEPAXI@Z      004229a0 f i Markup.obj
 0001:00021a50       ??1TagPos@@QAE@XZ          00422a50 f i Markup.obj
 0001:00021a80       ?Init@TagPos@@QAEXHH@Z     00422a80 f i Markup.obj
 0001:00021af0       ?IncCount@TagPos@@QAEXXZ   00422af0 f i Markup.obj
 0001:00021b30       ?Current@ElemStack@@QAEAAUTagPos@@XZ 00422b30 f i Markup.obj
 0001:00021b60       ?Push@ElemStack@@QAEXPBDH@Z 00422b60 f i Markup.obj
 0001:00021c20       ?SetTagName@TagPos@@QAEXPBDH@Z 00422c20 f i Markup.obj
 0001:00021c80       ?Slot@ElemStack@@QAEXH@Z   00422c80 f i Markup.obj
 0001:00021d30       ?Unslot@ElemStack@@QAEXAAUTagPos@@@Z 00422d30 f i Markup.obj
 0001:00021dd0       ?Alloc@ElemStack@@IAEXH@Z  00422dd0 f i Markup.obj
 0001:00021ef0       ??0TagPos@@QAE@XZ          00422ef0 f i Markup.obj
 0001:00021f70       ?Copy@ElemStack@@IAEXPAUTagPos@@@Z 00422f70 f i Markup.obj
 0001:00022050       ??4TagPos@@QAEAAU0@ABU0@@Z 00423050 f i Markup.obj
 0001:00022100       ??0TextEncoding@@QAE@UMCD_CSTR@@PBXH@Z 00423100 f i Markup.obj
 0001:000221d0       ??1TextEncoding@@QAE@XZ    004231d0 f i Markup.obj
 0001:00022250       ?GetTypeAndInc@PathPos@@QAEHXZ 00423250 f i Markup.obj
 0001:00022300       ?GetNumAndInc@PathPos@@QAEHXZ 00423300 f i Markup.obj
 0001:000223a0       ?GetValAndInc@PathPos@@QAEPBDXZ 004233a0 f i Markup.obj
 0001:000224b0       ?GetChar@PathPos@@QAEDXZ   004234b0 f i Markup.obj
 0001:000224e0       ?SaveOffset@PathPos@@QAEXXZ 004234e0 f i Markup.obj
 0001:00022510       ?RevertOffset@PathPos@@QAEXXZ 00423510 f i Markup.obj
 0001:00022540       ?IncWord@PathPos@@QAEXXZ   00423540 f i Markup.obj
 0001:00022640       ?IncWord@PathPos@@QAEXD@Z  00423640 f i Markup.obj
 0001:000226e0       ?IncChar@PathPos@@QAEXXZ   004236e0 f i Markup.obj
 0001:00022710       ?IsAnywherePath@PathPos@@QAE_NXZ 00423710 f i Markup.obj
 0001:00022740       ?GetValOrWordLen@PathPos@@QAEHXZ 00423740 f i Markup.obj
 0001:00022760       ?GetPtr@PathPos@@QAEPBDXZ  00423760 f i Markup.obj
 0001:00022790       ??_ESavedPos@@QAEPAXI@Z    00423790 f i Markup.obj
 0001:00022840       ??1SavedPos@@QAE@XZ        00423840 f i Markup.obj
 0001:00022870       ??0SavedPosMap@@QAE@H@Z    00423870 f i Markup.obj
 0001:00022900       ??0SavedPos@@QAE@XZ        00423900 f i Markup.obj
 0001:00022950       ?ReleaseMaps@SavedPosMapArray@@QAEXXZ 00423950 f i Markup.obj
 0001:00022a10       ??_GSavedPosMap@@QAEPAXI@Z 00423a10 f i Markup.obj
 0001:00022a60       ??1SavedPosMap@@QAE@XZ     00423a60 f i Markup.obj
 0001:00022b30       ??4SavedPos@@QAEAAU0@ABU0@@Z 00423b30 f i Markup.obj
 0001:00022b90       ??_GSavedPosMapArray@@QAEPAXI@Z 00423b90 f i Markup.obj
 0001:00022be0       ??1SavedPosMapArray@@QAE@XZ 00423be0 f i Markup.obj
 0001:00022c10       ??_GElemPosTree@@QAEPAXI@Z 00423c10 f i Markup.obj
 0001:00022c60       ??1ElemPosTree@@QAE@XZ     00423c60 f i Markup.obj
 0001:00022c90       ?GetSize@ElemPosTree@@QBEHXZ 00423c90 f i Markup.obj
 0001:00022cb0       ?GetRefElemPosAt@ElemPosTree@@QBEAAUElemPos@@H@Z 00423cb0 f i Markup.obj
 0001:00022cf0       ?GetAttrib@CMarkup@@QBE?AVCString@@UMCD_CSTR@@@Z 00423cf0 f i Markup.obj
 0001:00022d60       ??0FilePos@@QAE@XZ         00423d60 f i Markup.obj
 0001:00022eb0       ??0ElemStack@@QAE@XZ       00423eb0 f i Markup.obj
 0001:00022f50       ??1ElemStack@@QAE@XZ       00423f50 f i Markup.obj
 0001:00022fd0       ?InitTable@ElemStack@@QAEXXZ 00423fd0 f i Markup.obj
 0001:00023010       ??1FilePos@@QAE@XZ         00424010 f i Markup.obj
 0001:000230b0       ??0PathPos@@QAE@PBD_N@Z    004240b0 f i Markup.obj
 0001:00023150       ??0NodePos@@QAE@XZ         00424150 f i Markup.obj
 0001:00023190       ??0TokenPos@@QAE@UMCD_CSTR@@HPAUFilePos@@@Z 00424190 f i Markup.obj
 0001:000231f0       ?Clear@TokenPos@@QAEXXZ    004241f0 f i Markup.obj
 0001:00023230       ?FindName@TokenPos@@QAE_NXZ 00424230 f i Markup.obj
 0001:00023330       ??1NodePos@@QAE@XZ         00424330 f i Markup.obj
 0001:00023360       ?IsEmptyElement@ElemPos@@QAE_NXZ 00424360 f i Markup.obj
 0001:000233a0       ?StartTagLen@ElemPos@@QBEHXZ 004243a0 f i Markup.obj
 0001:000233d0       ?StartContent@ElemPos@@QBEHXZ 004243d0 f i Markup.obj
 0001:00023410       ?ContentLen@ElemPos@@QBEHXZ 00424410 f i Markup.obj
 0001:00023460       ?EndTagLen@ElemPos@@QBEHXZ 00424460 f i Markup.obj
 0001:00023490       ?StartAfter@ElemPos@@QBEHXZ 00424490 f i Markup.obj
 0001:000234c0       ??0ElemPosTree@@QAE@XZ     004244c0 f i Markup.obj
 0001:000234f0       ??0SavedPosMapArray@@QAE@XZ 004244f0 f i Markup.obj
 0001:00023520       ?ResetPos@CMarkup@@QAEXXZ  00424520 f i Markup.obj
 0001:00023560       ?ClearVirtualParent@ElemPos@@QAEXXZ 00424560 f i Markup.obj
 0001:000235a0       ?SetStartTagLen@ElemPos@@QAEXH@Z 004245a0 f i Markup.obj
 0001:000235e0       ?SetEndTagLen@ElemPos@@QAEXH@Z 004245e0 f i Markup.obj
 0001:00023620       ?Level@ElemPos@@QBEHXZ     00424620 f i Markup.obj
 0001:00023650       ?SetLevel@ElemPos@@QAEXH@Z 00424650 f i Markup.obj
 0001:00023690       ?GetRefTagPosAt@ElemStack@@QAEAAUTagPos@@H@Z 00424690 f i Markup.obj
 0001:000236c0       ?PushIntoLevel@ElemStack@@QAEXPBDH@Z 004246c0 f i Markup.obj
 0001:00023740       ?PopOutOfLevel@ElemStack@@QAEXXZ 00424740 f i Markup.obj
 0001:00023770       ?IsAbsolutePath@PathPos@@QAE_NXZ 00424770 f i Markup.obj
 0001:000237a0       ?IsPath@PathPos@@QAE_NXZ   004247a0 f i Markup.obj
 0001:000237d0       ?ValidPath@PathPos@@QAE_NXZ 004247d0 f i Markup.obj
 0001:00023800       ?AdjustStartTagLen@ElemPos@@QAEXH@Z 00424800 f i Markup.obj
 0001:00023850       ??0NodePos@@QAE@H@Z        00424850 f i Markup.obj
 0001:000238c0       ?IsUnparsed@ElemPos@@QAE_NXZ 004248c0 f i Markup.obj
 0001:00023900       ?OutOfLevel@ElemStack@@QAEXXZ 00424900 f i Markup.obj
 0001:00023970       ?Pop@ElemStack@@QAEXXZ     00424970 f i Markup.obj
 0001:00023a20       ?WhitespaceToTag@TokenPos@@QAEHH@Z 00424a20 f i Markup.obj
 0001:00023ab0       ?OnRequest@CMySockClit@@MAEHPAX0@Z 00424ab0 f   MySockClit.obj
 0001:00023c30       ?OnResponse@CMySockClit@@MAEHPAU_tagCONTEXT_HEAD@@PAVREQUEST@@1@Z 00424c30 f   MySockClit.obj
 0001:00023c79       ?OnNotifyClient@CMySockClit@@MAEHPAVREQUEST@@@Z 00424c79 f   MySockClit.obj
 0001:00023cf6       ?OnSendPulse@CMySockClit@@MAEHPAVREQUEST@@@Z 00424cf6 f   MySockClit.obj
 0001:00023de0       ??0REQUEST@@QAE@XZ         00424de0 f i MySockClit.obj
 0001:00023e20       ??1REQUEST@@QAE@XZ         00424e20 f i MySockClit.obj
 0001:00023e40       ?OnRequest@CGameServer@@MAEHPAX0@Z 00424e40 f   Server.obj
 0001:0002416d       ?OnNewTable@CGameServer@@MAEPAVCTable@@HHH@Z 0042516d f   Server.obj
 0001:00024258       ?OnSeverAutoPlay@CGameServer@@UAEXPAVCRoom@@PAVCTable@@H@Z 00425258 f   Server.obj
 0001:00024562       ?OnSendSysMsgToServer@CGameServer@@MAEHPAU_tagCONTEXT_HEAD@@PAVREQUEST@@PAVCWorkerContext@@@Z 00425562 f   Server.obj
 0001:00025917       ?OnZuPai@CGameServer@@QAEHPAU_tagCONTEXT_HEAD@@PAVREQUEST@@PAVCWorkerContext@@@Z 00426917 f   Server.obj
 0001:000261c2       ?OnQiangZhuang@CGameServer@@QAEHPAU_tagCONTEXT_HEAD@@PAVREQUEST@@PAVCWorkerContext@@@Z 004271c2 f   Server.obj
 0001:00026a21       ?OnYaZhu@CGameServer@@QAEHPAU_tagCONTEXT_HEAD@@PAVREQUEST@@PAVCWorkerContext@@@Z 00427a21 f   Server.obj
 0001:00027284       ?Initialize@CGameServer@@UAEHXZ 00428284 f   Server.obj
 0001:00027308       ?ReadChunkSvrFromProfile@CGameServer@@QAEHXZ 00428308 f   Server.obj
 0001:0002737f       ?InitSockToChunk@CGameServer@@QAEHXZ 0042837f f   Server.obj
 0001:00027721       ?Shutdown@CGameServer@@UAEXXZ 00428721 f   Server.obj
 0001:00027757       ?ShutDownSockToChunk@CGameServer@@QAEXXZ 00428757 f   Server.obj
 0001:00027979       ?OnAskExit@CGameServer@@MAEHPAU_tagCONTEXT_HEAD@@PAVREQUEST@@PAVCWorkerContext@@@Z 00428979 f   Server.obj
 0001:00027f24       ?NotifyPlayersAskExit@CGameServer@@QAEXPAVCGameTable@@PAU_tagASK_EXIT@@JH@Z 00428f24 f   Server.obj
 0001:00028002       ?OnGameWin@CGameServer@@UAEHPAU_tagCONTEXT_HEAD@@PAVCRoom@@PAVCTable@@HHH@Z 00429002 f   Server.obj
 0001:00028972       ?GetRoomSvrIniFile@CGameServer@@UAEHHAAVCString@@@Z 00429972 f   Server.obj
 0001:00028caa       ?GetTableDepositMin@CGameServer@@UAEHHH@Z 00429caa f   Server.obj
 0001:00028fe1       ?GetMinPlayingDeposit@CGameServer@@UAEHPAVCTable@@H@Z 00429fe1 f   Server.obj
 0001:00029170       ?IsTableDepositRoom@CGameServer@@UAEHH@Z 0042a170 f   Server.obj
 0001:000291bc       ?OnStartGameEx@CGameServer@@UAEHPAU_tagCONTEXT_HEAD@@PAVREQUEST@@PAVCWorkerContext@@@Z 0042a1bc f   Server.obj
 0001:00029d86       ?ReadTableGrade@CGameServer@@QAEHHPAU_tagTABLESILVERGRADEALL@@@Z 0042ad86 f   Server.obj
 0001:0002a0b9       ?NotifyTableGrade@CGameServer@@QAEXHIJ@Z 0042b0b9 f   Server.obj
 0001:0002a289       ?PostAskNewTableByTableGrade@CGameServer@@QAEXHHHH@Z 0042b289 f   Server.obj
 0001:0002a325       ?OnEnterGameDXXW@CGameServer@@UAEHPAU_tagCONTEXT_HEAD@@PAU_tagENTER_GAME_EX@@@Z 0042b325 f   Server.obj
 0001:0002a3aa       ?OnPlayerEnterGame@CGameServer@@UAEHPAU_tagCONTEXT_HEAD@@PAU_tagENTER_GAME_OK_EX@@PAVREQUEST@@@Z 0042b3aa f   Server.obj
 0001:0002ad9e       ?SendWelfareActivityID@CGameServer@@QAEXIJ@Z 0042bd9e f   Server.obj
 0001:0002ae20       ?SendIsTongbiRoom@CGameServer@@QAEXHIJ@Z 0042be20 f   Server.obj
 0001:0002aed3       ?OnChatToTableEx@CGameServer@@UAEHPAU_tagCONTEXT_HEAD@@PAVREQUEST@@PAVCWorkerContext@@@Z 0042bed3 f   Server.obj
 0001:0002b7c2       ?CopyWaitResultMap@CGameServer@@QAEXAAV?$CMap@KKU_tagWAIT_FRESHRESULT@@AAU1@@@@Z 0042c7c2 f   Server.obj
 0001:0002b885       ?RemoveWaitResultByKey@CGameServer@@QAEXK@Z 0042c885 f   Server.obj
 0001:0002b904       ?CheckGameWin@CGameServer@@UAEXXZ 0042c904 f   Server.obj
 0001:0002bb55       ?GetThreadID_ChunkConnect@CGameServer@@QAEIXZ 0042cb55 f   Server.obj
 0001:0002bb70       ?Chunk_BaseVerify@CGameServer@@QAEHHH@Z 0042cb70 f   Server.obj
 0001:0002bba2       ?Chunk_TransmitRequest@CGameServer@@QAEHPAU_tagCONTEXT_HEAD@@PAVREQUEST@@@Z 0042cba2 f   Server.obj
 0001:0002bd5c       ?Chunk_SendPulseData@CGameServer@@QAEXXZ 0042cd5c f   Server.obj
 0001:0002be83       ?Chunk_SendThreadFunc@CGameServer@@KGIPAX@Z 0042ce83 f   Server.obj
 0001:0002beac       ?Chunk_ConnectThreadFunc@CGameServer@@KGIPAX@Z 0042ceac f   Server.obj
 0001:0002bed5       ?Chunk_ServerPulseThreadFunc@CGameServer@@KGIPAX@Z 0042ced5 f   Server.obj
 0001:0002befe       ?Chunk_TimerThreadFunc@CGameServer@@KGIPAX@Z 0042cefe f   Server.obj
 0001:0002bf27       ?Chunk_SendThreadProc@CGameServer@@IAEIXZ 0042cf27 f   Server.obj
 0001:0002c1b3       ?Chunk_ConnectThreadProc@CGameServer@@IAEIXZ 0042d1b3 f   Server.obj
 0001:0002c4a9       ?Chunk_ServerPulseThreadProc@CGameServer@@IAEIXZ 0042d4a9 f   Server.obj
 0001:0002c70f       ?Chunk_TimerThreadProc@CGameServer@@IAEIXZ 0042d70f f   Server.obj
 0001:0002c88e       ?Chunk_ValidateClientEx@CGameServer@@IAEHXZ 0042d88e f   Server.obj
 0001:0002c8a5       ?Chunk_ValidateClientInfo@CGameServer@@IAEHH@Z 0042d8a5 f   Server.obj
 0001:0002caa7       ?Chunk_IsTimingOK@CGameServer@@IAEHKAAH00@Z 0042daa7 f   Server.obj
 0001:0002cbfb       ?Chunk_DoTimingWork@CGameServer@@IAEHXZ 0042dbfb f   Server.obj
 0001:0002cc71       ?Chunk_OnTimerTriggered@CGameServer@@IAEHKAAH00@Z 0042dc71 f   Server.obj
 0001:0002ccb7       ?Chunk_OnHourTriggered@CGameServer@@IAEXAAH@Z 0042dcb7 f   Server.obj
 0001:0002cccb       ?OnChunkSendPulse@CGameServer@@QAEHPAVREQUEST@@@Z 0042dccb f   Server.obj
 0001:0002cd57       ?Chunk_SetIsConnectChunkSvr@CGameServer@@IAEXH@Z 0042dd57 f   Server.obj
 0001:0002cd77       ?Chunk_GetIsConnectChunkSvr@CGameServer@@IAEHXZ 0042dd77 f   Server.obj
 0001:0002cd92       ?OnRoomLimit@CGameServer@@UAEHPAU_tagCONTEXT_HEAD@@PAVREQUEST@@PAVCWorkerContext@@@Z 0042dd92 f   Server.obj
 0001:0002d2a4       ?OnChargeBtn@CGameServer@@UAEHPAU_tagCONTEXT_HEAD@@PAVREQUEST@@PAVCWorkerContext@@@Z 0042e2a4 f   Server.obj
 0001:0002d6f3       ?SendChargeUrl@CGameServer@@QAEXIJ@Z 0042e6f3 f   Server.obj
 0001:0002d876       ?OnNewTableChair@CGameServer@@UAEHHHHH@Z 0042e876 f   Server.obj
 0001:0002da19       ?ResetTableBanker@CGameServer@@QAEXPAVCTable@@H@Z 0042ea19 f   Server.obj
 0001:0002daee       ?OnUserStart@CGameServer@@UAEHPAVCTable@@H@Z 0042eaee f   Server.obj
 0001:00030580       ??_GREQUEST@@QAEPAXI@Z     00431580 f i Server.obj
 0001:000305d0       ?Lookup@?$CMap@HHPAVCTable@@PAV1@@@QBEHHAAPAVCTable@@@Z 004315d0 f i Server.obj
 0001:00030660       ?Lookup@?$CMap@HHPAVCRoom@@PAV1@@@QBEHHAAPAVCRoom@@@Z 00431660 f i Server.obj
 0001:000306f0       ?Lookup@?$CMap@HHU_tagUSER_DATA@@AAU1@@@QBEHHAAU_tagUSER_DATA@@@Z 004316f0 f i Server.obj
 0001:00030790       ??0?$CMap@KKU_tagWAIT_FRESHRESULT@@AAU1@@@QAE@H@Z 00431790 f i Server.obj
 0001:00030880       ?GetCount@?$CMap@KKU_tagWAIT_FRESHRESULT@@AAU1@@@QBEHXZ 00431880 f i Server.obj
 0001:000308a0       ?SetAt@?$CMap@KKU_tagWAIT_FRESHRESULT@@AAU1@@@QAEXKAAU_tagWAIT_FRESHRESULT@@@Z 004318a0 f i Server.obj
 0001:000308f0       ?RemoveKey@?$CMap@KKU_tagWAIT_FRESHRESULT@@AAU1@@@QAEHK@Z 004318f0 f i Server.obj
 0001:000309e0       ?GetStartPosition@?$CMap@KKU_tagWAIT_FRESHRESULT@@AAU1@@@QBEPAU__POSITION@@XZ 004319e0 f i Server.obj
 0001:00030a10       ?GetNextAssoc@?$CMap@KKU_tagWAIT_FRESHRESULT@@AAU1@@@QBEXAAPAU__POSITION@@AAKAAU_tagWAIT_FRESHRESULT@@@Z 00431a10 f i Server.obj
 0001:00030c00       ??1?$CMap@KKU_tagWAIT_FRESHRESULT@@AAU1@@@UAE@XZ 00431c00 f i Server.obj
 0001:00030cb0       ?Serialize@?$CMap@KKU_tagWAIT_FRESHRESULT@@AAU1@@@UAEXAAVCArchive@@@Z 00431cb0 f i Server.obj
 0001:00030e60       ?Dump@?$CMap@KKU_tagWAIT_FRESHRESULT@@AAU1@@@UBEXAAVCDumpContext@@@Z 00431e60 f i Server.obj
 0001:00030f70       ?AssertValid@?$CMap@KKU_tagWAIT_FRESHRESULT@@AAU1@@@UBEXXZ 00431f70 f i Server.obj
 0001:00031010       ??_E?$CMap@KKU_tagWAIT_FRESHRESULT@@AAU1@@@UAEPAXI@Z 00432010 f i Server.obj
 0001:00031010       ??_G?$CMap@KKU_tagWAIT_FRESHRESULT@@AAU1@@@UAEPAXI@Z 00432010 f i Server.obj
 0001:00031060       ?SerializeElements@@YGXAAVCArchive@@PAKH@Z 00432060 f i Server.obj
 0001:00031100       ?DumpElements@@YGXAAVCDumpContext@@PBKH@Z 00432100 f i Server.obj
 0001:00031160       ?GetAssocAt@?$CMap@HHPAVCTable@@PAV1@@@IBEPAUCAssoc@1@HAAI@Z 00432160 f i Server.obj
 0001:00031210       ?GetAssocAt@?$CMap@HHPAVCRoom@@PAV1@@@IBEPAUCAssoc@1@HAAI@Z 00432210 f i Server.obj
 0001:000312c0       ?GetAssocAt@?$CMap@HHU_tagUSER_DATA@@AAU1@@@IBEPAUCAssoc@1@HAAI@Z 004322c0 f i Server.obj
 0001:00031370       ??A?$CMap@KKU_tagWAIT_FRESHRESULT@@AAU1@@@QAEAAU_tagWAIT_FRESHRESULT@@K@Z 00432370 f i Server.obj
 0001:00031460       ?RemoveAll@?$CMap@KKU_tagWAIT_FRESHRESULT@@AAU1@@@QAEXXZ 00432460 f i Server.obj
 0001:00031590       ?FreeAssoc@?$CMap@KKU_tagWAIT_FRESHRESULT@@AAU1@@@IAEXPAUCAssoc@1@@Z 00432590 f i Server.obj
 0001:00031650       ?HashKey@@YGIK@Z           00432650 f i Server.obj
 0001:00031660       ?CompareElements@@YGHPBK0@Z 00432660 f i Server.obj
 0001:00031700       ?SerializeElements@@YGXAAVCArchive@@PAU_tagWAIT_FRESHRESULT@@H@Z 00432700 f i Server.obj
 0001:000317a0       ?DumpElements@@YGXAAVCDumpContext@@PBU_tagWAIT_FRESHRESULT@@H@Z 004327a0 f i Server.obj
 0001:00031800       ?DestructElements@@YGXPAKH@Z 00432800 f i Server.obj
 0001:00031880       ?HashKey@@YGIH@Z           00432880 f i Server.obj
 0001:00031890       ?CompareElements@@YGHPBH0@Z 00432890 f i Server.obj
 0001:00031930       ?InitHashTable@?$CMap@KKU_tagWAIT_FRESHRESULT@@AAU1@@@QAEXIH@Z 00432930 f i Server.obj
 0001:00031a70       ?NewAssoc@?$CMap@KKU_tagWAIT_FRESHRESULT@@AAU1@@@IAEPAUCAssoc@1@XZ 00432a70 f i Server.obj
 0001:00031c00       ?GetAssocAt@?$CMap@KKU_tagWAIT_FRESHRESULT@@AAU1@@@IBEPAUCAssoc@1@KAAI@Z 00432c00 f i Server.obj
 0001:00031cb0       ?DestructElements@@YGXPAU_tagWAIT_FRESHRESULT@@H@Z 00432cb0 f i Server.obj
 0001:00031d30       ?ConstructElements@@YGXPAKH@Z 00432d30 f i Server.obj
 0001:00031df0       ?ConstructElements@@YGXPAU_tagWAIT_FRESHRESULT@@H@Z 00432df0 f i Server.obj
 0001:0003202d       ?WriteMiniDMP@@YAXPAU_EXCEPTION_POINTERS@@@Z 0043302d f   TcSgSvr.obj
 0001:000321ca       ?ExpFilter@@YGJPAU_EXCEPTION_POINTERS@@@Z 004331ca f   TcSgSvr.obj
 0001:000321e9       _main                      004331e9 f   TcSgSvr.obj
 0001:00032480       ??0CGameServer@@QAE@PBD00HHKK@Z 00433480 f i TcSgSvr.obj
 0001:00032680       ?CheckBeforeGameStart@CBaseServer@@UAEHPAVCTable@@@Z 00433680 f i TcSgSvr.obj
 0001:000326a0       ?OnSeverAutoPlay@CMainServer@@MAEXPAVCTable@@H@Z 004336a0 f i TcSgSvr.obj
 0001:000326c0       ??0CSkServer@@QAE@PBD00HHKK@Z 004336c0 f i TcSgSvr.obj
 0001:00032730       ??_ECSkServer@@UAEPAXI@Z   00433730 f i TcSgSvr.obj
 0001:00032730       ??_GCSkServer@@UAEPAXI@Z   00433730 f i TcSgSvr.obj
 0001:00032780       ??1CSkServer@@UAE@XZ       00433780 f i TcSgSvr.obj
 0001:000327b0       ??0CMySockClit@@QAE@PAVCBaseServer@@HKK@Z 004337b0 f i TcSgSvr.obj
 0001:00032810       ??0CSockClient@@QAE@PAVCBaseServer@@HKK@Z 00433810 f i TcSgSvr.obj
 0001:00032880       ??_ECSockClient@@UAEPAXI@Z 00433880 f i TcSgSvr.obj
 0001:00032880       ??_GCSockClient@@UAEPAXI@Z 00433880 f i TcSgSvr.obj
 0001:000328d0       ??1CSockClient@@UAE@XZ     004338d0 f i TcSgSvr.obj
 0001:00032900       ??_ECMySockClit@@UAEPAXI@Z 00433900 f i TcSgSvr.obj
 0001:00032900       ??_GCMySockClit@@UAEPAXI@Z 00433900 f i TcSgSvr.obj
 0001:00032950       ??1CMySockClit@@UAE@XZ     00433950 f i TcSgSvr.obj
 0001:00032980       ??_GCGameServer@@UAEPAXI@Z 00433980 f i TcSgSvr.obj
 0001:00032980       ??_ECGameServer@@UAEPAXI@Z 00433980 f i TcSgSvr.obj
 0001:000329d0       ??1CGameServer@@UAE@XZ     004339d0 f i TcSgSvr.obj
 0001:00032a60       ?TCSG_CalcCardValue@@YAHH@Z 00433a60 f   TcSgTbl.obj
 0001:00032a83       ?TCSG_CalcCardPoint@@YAHH@Z 00433a83 f   TcSgTbl.obj
 0001:00032b2c       ??0CGameTable@@QAE@HHHHKKHHHHHHHHQAHHHHHHHP6AHHK@Z111P6AHHHK@Z2@Z 00433b2c f   TcSgTbl.obj
 0001:00032cee       ??1CGameTable@@UAE@XZ      00433cee f   TcSgTbl.obj
 0001:00032d7f       ?InitialGameTableInfo@@YAXPAU_tagGAME_TABLE_INFO@@@Z 00433d7f f   TcSgTbl.obj
 0001:00032e0f       ?My_GetIndexPRI@@YAHHHK@Z  00433e0f f   TcSgTbl.obj
 0001:00032e40       ?GetGameTableInfo@CGameTable@@QAEPAU_tagGAME_TABLE_INFO@@XZ 00433e40 f   TcSgTbl.obj
 0001:00032e87       ?GetPublicInfo@CGameTable@@QAEPAU_tagGAME_PUBLIC_INFO@@XZ 00433e87 f   TcSgTbl.obj
 0001:00032ed3       ?GetStartInfo@CGameTable@@QAEPAU_tagGAME_START_INFO@@XZ 00433ed3 f   TcSgTbl.obj
 0001:00032f1a       ?GetPlayerInfo@CGameTable@@QAEPAU_tagGAME_PLAYER_INFO@@H@Z 00433f1a f   TcSgTbl.obj
 0001:00032f73       ?ResetMembers@CGameTable@@UAEXH@Z 00433f73 f   TcSgTbl.obj
 0001:0003311a       ?ResetTable@CGameTable@@UAEXXZ 0043411a f   TcSgTbl.obj
 0001:00033193       ?GetGameTableInfoSize@CGameTable@@UAEHXZ 00434193 f   TcSgTbl.obj
 0001:000331aa       ?FillupGameTableInfo@CGameTable@@UAEXPAXHHH@Z 004341aa f   TcSgTbl.obj
 0001:00033655       ?GetEnterGameInfoSize@CGameTable@@UAEHXZ 00434655 f   TcSgTbl.obj
 0001:0003366c       ?FillupEnterGameInfo@CGameTable@@UAEXPAXHHH@Z 0043466c f   TcSgTbl.obj
 0001:000336ed       ?GetGameStartSize@CGameTable@@UAEHXZ 004346ed f   TcSgTbl.obj
 0001:00033704       ?FillupGameStart@CGameTable@@UAEXPAXHHH@Z 00434704 f   TcSgTbl.obj
 0001:000337b5       ?GetGameWinSize@CGameTable@@UAEHXZ 004347b5 f   TcSgTbl.obj
 0001:000337cc       ?FillupGameWin@CGameTable@@UAEHPAXHH@Z 004347cc f   TcSgTbl.obj
 0001:00033a65       ?FillupStartData@CGameTable@@UAEXPAXH@Z 00434a65 f   TcSgTbl.obj
 0001:00033bfe       ?CalcBankerChairBefore@CGameTable@@UAEHXZ 00434bfe f   TcSgTbl.obj
 0001:00033cb7       ?CalcBankerChairAfter@CGameTable@@UAEHPAXH@Z 00434cb7 f   TcSgTbl.obj
 0001:00033cd4       ?CalcWinPoints@CGameTable@@UAEHPAXHHQAH@Z 00434cd4 f   TcSgTbl.obj
 0001:00033e98       ?CalcResultDiffs@CGameTable@@UAEHPAXHQAH1@Z 00434e98 f   TcSgTbl.obj
 0001:000340b4       ?ConstructGameData@CGameTable@@UAEXXZ 004350b4 f   TcSgTbl.obj
 0001:00034113       ?GetRandomBombNum@CGameTable@@QAEHH@Z 00435113 f   TcSgTbl.obj
 0001:00034222       ?MakeDealCards@CGameTable@@QAEHH@Z 00435222 f   TcSgTbl.obj
 0001:000344a3       ?MakeCardsLayIn@CGameTable@@QAEXHHAAHQAH@Z 004354a3 f   TcSgTbl.obj
 0001:00034561       ?DealCardNormal@CGameTable@@QAEXXZ 00435561 f   TcSgTbl.obj
 0001:0003458d       ?DealCardNormal_Begin@CGameTable@@QAEXXZ 0043558d f   TcSgTbl.obj
 0001:00034740       ?DealCardNormal_End@CGameTable@@QAEXXZ 00435740 f   TcSgTbl.obj
 0001:00034947       ?CalcCardType@CGameTable@@UAEHHPAU_tagSANGONG_DETAIL@@@Z 00435947 f   TcSgTbl.obj
 0001:00034a6f       ?IsMakedCard@CGameTable@@QAEHH@Z 00435a6f f   TcSgTbl.obj
 0001:00034b19       ?StartDeal@CGameTable@@UAEXXZ 00435b19 f   TcSgTbl.obj
 0001:00034d3c       ?CheckCards@CGameTable@@UAEHXZ 00435d3c f   TcSgTbl.obj
 0001:00034e2e       ?ReadCardsFromFile@CGameTable@@QAEHXZ 00435e2e f   TcSgTbl.obj
 0001:00035181       ?RetrieveFields@CGameTable@@QAEHPADPAPADH1@Z 00436181 f   TcSgTbl.obj
 0001:00035299       ?GetINIFileName@CGameTable@@QAE?AVCString@@XZ 00436299 f   TcSgTbl.obj
 0001:000353d0       ?CatchOneCard@CGameTable@@UAEHH@Z 004363d0 f   TcSgTbl.obj
 0001:000354ed       ?GiveCard@CGameTable@@UAEHHHH@Z 004364ed f   TcSgTbl.obj
 0001:000355c8       ?ValidateThrow@CGameTable@@UAEHPAU_tagCARDS_THROW@@@Z 004365c8 f   TcSgTbl.obj
 0001:0003582b       ?ThrowCards@CGameTable@@UAEHPAU_tagCARDS_THROW@@@Z 0043682b f   TcSgTbl.obj
 0001:00035a45       ?GetCard@CGameTable@@UAEPAU_tagCARDINFO@@H@Z 00436a45 f   TcSgTbl.obj
 0001:00035ac9       ?SetCardStatus@CGameTable@@UAEHHHH@Z 00436ac9 f   TcSgTbl.obj
 0001:00035b68       ?CalcWinOnThrow@CGameTable@@UAEHPAU_tagCARDS_THROW@@@Z 00436b68 f   TcSgTbl.obj
 0001:00035dae       ?CalcWinOnPass@CGameTable@@UAEHPAU_tagCARDS_PASS@@@Z 00436dae f   TcSgTbl.obj
 0001:00035fb4       ?PutThrowCardsToCost@CGameTable@@UAEXH@Z 00436fb4 f   TcSgTbl.obj
 0001:0003604b       ?PutAllCardsToCost@CGameTable@@UAEXXZ 0043704b f   TcSgTbl.obj
 0001:000360cb       ?GetTributeCard@CGameTable@@UAEHH@Z 004370cb f   TcSgTbl.obj
 0001:00036220       ?GetInHandCard@CGameTable@@UAEHHQAH@Z 00437220 f   TcSgTbl.obj
 0001:000362db       ?SetCurrentRank@CGameTable@@UAEXH@Z 004372db f   TcSgTbl.obj
 0001:0003630a       ?GetCurrentRank@CGameTable@@UAEHXZ 0043730a f   TcSgTbl.obj
 0001:00036334       ?CalcChairThrowTime@CGameTable@@UAEHH@Z 00437334 f   TcSgTbl.obj
 0001:000363cb       ?CalcBombInThrow@CGameTable@@UAEXPAU_tagCARDS_THROW@@@Z 004373cb f   TcSgTbl.obj
 0001:00036450       ?IsCardInHand@CGameTable@@UAEHHQAHH@Z 00437450 f   TcSgTbl.obj
 0001:000364e6       ?OnPass@CGameTable@@UAEXPAU_tagCARDS_PASS@@@Z 004374e6 f   TcSgTbl.obj
 0001:00036522       ?ValidatePass@CGameTable@@UAEHPAU_tagCARDS_PASS@@@Z 00437522 f   TcSgTbl.obj
 0001:000365ee       ?FillupNextBoutInfo@CGameTable@@UAEXPAXHH@Z 004375ee f   TcSgTbl.obj
 0001:00036725       ?GetCardType_Bomb@CGameTable@@UAEHQAHH0HHAAU_tagUNITE_TYPE@@H@Z 00437725 f   TcSgTbl.obj
 0001:0003699c       ?GetUniteDetails@CGameTable@@UAEHHQAHHAAU_tagCARD_UNITE@@K@Z 0043799c f   TcSgTbl.obj
 0001:00036ce0       ?SetStatusOnStart@CGameTable@@UAEKXZ 00437ce0 f   TcSgTbl.obj
 0001:00036d1f       ?SetCurrentChairOnStart@CGameTable@@UAEHXZ 00437d1f f   TcSgTbl.obj
 0001:00036d7f       ?CaclCardType_Three_1@CGameTable@@UAEHQAHHHPAU_tagCARD_UNITE@@@Z 00437d7f f   TcSgTbl.obj
 0001:00036e8f       ?GetCardType_Three_1@CGameTable@@UAEHQAHH0HHAAU_tagUNITE_TYPE@@@Z 00437e8f f   TcSgTbl.obj
 0001:0003707e       ?CaclCardType_ABT_Single@CGameTable@@UAEHQAHHHPAU_tagCARD_UNITE@@@Z 0043807e f   TcSgTbl.obj
 0001:000371cb       ?GetCardType_ABT_Single@CGameTable@@UAEHQAHH0HHAAU_tagUNITE_TYPE@@H@Z 004381cb f   TcSgTbl.obj
 0001:000374ee       ?CaclCardType_ABT_Couple@CGameTable@@UAEHQAHHHPAU_tagCARD_UNITE@@@Z 004384ee f   TcSgTbl.obj
 0001:0003762c       ?GetCardType_ABT_Couple@CGameTable@@UAEHQAHH0HHAAU_tagUNITE_TYPE@@H@Z 0043862c f   TcSgTbl.obj
 0001:0003791f       ?CaclCardType_ABT_Three_Couple@CGameTable@@UAEHQAHHHPAU_tagCARD_UNITE@@@Z 0043891f f   TcSgTbl.obj
 0001:00037a5b       ?GetCardType_ABT_Three_Couple@CGameTable@@UAEHQAHH0HHAAU_tagUNITE_TYPE@@H@Z 00438a5b f   TcSgTbl.obj
 0001:0003805a       ?GetIndexByIndex@CGameTable@@QAEHQAHHH@Z 0043905a f   TcSgTbl.obj
 0001:000380c1       ?GetBit1Count@CGameTable@@QAEHI@Z 004390c1 f   TcSgTbl.obj
 0001:00038107       ?GetLayPri@CGameTable@@QAEHQAHH@Z 00439107 f   TcSgTbl.obj
 0001:00038197       ?GetLayPriEx@CGameTable@@QAEHQAHH@Z 00439197 f   TcSgTbl.obj
 0001:0003822d       ?CaclCardType_ABT_Three_1@CGameTable@@UAEHQAHHHPAU_tagCARD_UNITE@@@Z 0043922d f   TcSgTbl.obj
 0001:0003836f       ?GetCardType_ABT_Three_1@CGameTable@@UAEHQAHH0HHAAU_tagUNITE_TYPE@@H@Z 0043936f f   TcSgTbl.obj
 0001:00038875       ?CalcCardType_Four_2@CGameTable@@UAEHQAHHHPAU_tagCARD_UNITE@@@Z 00439875 f   TcSgTbl.obj
 0001:000389aa       ?GetCardType_Four_2@CGameTable@@UAEHQAHH0HHAAU_tagUNITE_TYPE@@@Z 004399aa f   TcSgTbl.obj
 0001:00038e4d       ?CalcCardType_Four_2_Couple@CGameTable@@UAEHQAHHHPAU_tagCARD_UNITE@@@Z 00439e4d f   TcSgTbl.obj
 0001:00038f82       ?GetCardType_Four_2_Couple@CGameTable@@UAEHQAHH0HHAAU_tagUNITE_TYPE@@@Z 00439f82 f   TcSgTbl.obj
 0001:000394b3       ?CalcCardType_BOMB_2King@CGameTable@@UAEHQAHHHPAU_tagCARD_UNITE@@@Z 0043a4b3 f   TcSgTbl.obj
 0001:000395cd       ?GetCardType_BOMB_2King@CGameTable@@UAEHQAHH0HHAAU_tagUNITE_TYPE@@@Z 0043a5cd f   TcSgTbl.obj
 0001:0003972d       ?IsGameMsg@CGameTable@@UAEHI@Z 0043a72d f   TcSgTbl.obj
 0001:000397b0       ?ActuallizeResults@CGameTable@@UAEXPAXH@Z 0043a7b0 f   TcSgTbl.obj
 0001:00039901       ?OnPlayerPassiveEvent@CGameTable@@QAEXH@Z 0043a901 f   TcSgTbl.obj
 0001:0003995c       ?OnPlayerActiveEvent@CGameTable@@QAEXH@Z 0043a95c f   TcSgTbl.obj
 0001:000399ab       ?IsTooManyAutoPlay@CGameTable@@QAEHH@Z 0043a9ab f   TcSgTbl.obj
 0001:00039a04       ?CalcDoubleOfScore@CGameTable@@UAEHHHH@Z 0043aa04 f   TcSgTbl.obj
 0001:00039a6e       ?CalcBreakDeposit@CGameTable@@UAEHHHAAH@Z 0043aa6e f   TcSgTbl.obj
 0001:00039ad8       ?GetBestUnitType@CGameTable@@UAEHAAU_tagUNITE_TYPE@@AAU_tagCARD_UNITE@@@Z 0043aad8 f   TcSgTbl.obj
 0001:00039d32       ?GetBestUnitType@CGameTable@@UAEHAAU_tagCARD_UNITE@@@Z 0043ad32 f   TcSgTbl.obj
 0001:00039f56       ?OnZuPai@CGameTable@@UAEHPAU_tagZuPai@@@Z 0043af56 f   TcSgTbl.obj
 0001:0003a045       ?AllZuPai@CGameTable@@UAEHXZ 0043b045 f   TcSgTbl.obj
 0001:0003a0b4       ?CalcMaxCard@CGameTable@@UAEHQAU_tagCARDINFO@@H@Z 0043b0b4 f   TcSgTbl.obj
 0001:0003a1da       ?CalcMaxCard@CGameTable@@UAEHQAHH@Z 0043b1da f   TcSgTbl.obj
 0001:0003a2eb       ?IsNeedCountdown@CGameTable@@UAEHXZ 0043b2eb f   TcSgTbl.obj
 0001:0003a302       ?CalcBetDeposit@CGameTable@@UAEHXZ 0043b302 f   TcSgTbl.obj
 0001:0003a43e       ?CalcPlayerBaseDeposit@CGameTable@@QAEHHH@Z 0043b43e f   TcSgTbl.obj
 0001:0003a559       ?CalcBaseDeposit@CGameTable@@UAEHQAHH@Z 0043b559 f   TcSgTbl.obj
 0001:0003a6c5       ?CalcOpeTime@CGameTable@@UAEHXZ 0043b6c5 f   TcSgTbl.obj
 0001:0003a746       ?IsAllAllowExit@CGameTable@@UAEHH@Z 0043b746 f   TcSgTbl.obj
 0001:0003a7d1       ?SetStatusOnFinishQZ@CGameTable@@QAEKXZ 0043b7d1 f   TcSgTbl.obj
 0001:0003a83f       ?SetStatusOnFinishYaZhu@CGameTable@@QAEKXZ 0043b83f f   TcSgTbl.obj
 0001:0003a8ad       ?DealCardAfterYaZhu@CGameTable@@QAEXXZ 0043b8ad f   TcSgTbl.obj
 0001:0003ab90       ?FillupHandCardAfterYaZhu@CGameTable@@QAEXPAU_tagYAZHU@@@Z 0043bb90 f   TcSgTbl.obj
 0001:0003ac2e       ?ValidateBetDbl@CGameTable@@QAEHH@Z 0043bc2e f   TcSgTbl.obj
 0001:0003ac5d       ?GetWinGains@CGameTable@@QAEHAAU_tagSANGONG_DETAIL@@0@Z 0043bc5d f   TcSgTbl.obj
 0001:0003ae3e       ?CompensateDeposits@CGameTable@@UAEHQAH0@Z 0043be3e f   TcSgTbl.obj
 0001:0003b382       ?UpdataGameWin@CGameTable@@UAEHPAU_tagREFRESH_RESULT_EX@@AAV?$CMap@HHU_tagPLAYERLEVEL_EX@@U1@@@@Z 0043c382 f   TcSgTbl.obj
 0001:0003b3b0       ?OnQiangZhuang@CGameTable@@QAEHPAU_tagQZ@@@Z 0043c3b0 f   TcSgTbl.obj
 0001:0003b453       ?AllFinishQZ@CGameTable@@QAEHPAU_tagQZ@@@Z 0043c453 f   TcSgTbl.obj
 0001:0003b6f1       ?OnYaZhu@CGameTable@@QAEHPAU_tagYAZHU@@@Z 0043c6f1 f   TcSgTbl.obj
 0001:0003b7ac       ?AllFinishYaZhu@CGameTable@@QAEHPAU_tagYAZHU@@@Z 0043c7ac f   TcSgTbl.obj
 0001:0003b83f       ?SetResetBanker@CGameTable@@QAEXH@Z 0043c83f f   TcSgTbl.obj
 0001:0003b85f       ?TellBreakChair@CGameTable@@UAEHHK@Z 0043c85f f   TcSgTbl.obj
 0001:0003b876       ?IsOperateTimeOver@CGameTable@@UAEHXZ 0043c876 f   TcSgTbl.obj
 0001:0003dd70       ??_GCGameTable@@UAEPAXI@Z  0043ed70 f i TcSgTbl.obj
 0001:0003dd70       ??_ECGameTable@@UAEPAXI@Z  0043ed70 f i TcSgTbl.obj
 0001:0003ddc0       ?random_shuffle@std@@YAXPAH0@Z 0043edc0 f i TcSgTbl.obj
 0001:0003de00       ?_Dist_type@std@@YAPAHPBH@Z 0043ee00 f i TcSgTbl.obj
 0001:0003de10       ?_Random_shuffle@std@@YAXPAH00@Z 0043ee10 f i TcSgTbl.obj
 0001:0003df20       ?SvrXygRandomSort@@YAXQAHHH@Z 0043ef20 f i TcSgTbl.obj
 0001:0003e020       ?SvrReversalMoreByValue@@YAXQAH0H@Z 0043f020 f i TcSgTbl.obj
 0001:0003e120       ?iter_swap@std@@YAXPAH0@Z  0043f120 f i TcSgTbl.obj
 0001:0003e160       ?_Val_type@std@@YAPAHPBH@Z 0043f160 f i TcSgTbl.obj
 0001:0003e170       ?_Iter_swap@std@@YAXPAH00@Z 0043f170 f i TcSgTbl.obj
 0001:0003e1b0       _soap_getheader            0043f1b0 f   soapC.obj
 0001:0003e20b       _soap_putheader            0043f20b f   soapC.obj
 0001:0003e276       _soap_serializeheader      0043f276 f   soapC.obj
 0001:0003e2af       _soap_header               0043f2af f   soapC.obj
 0001:0003e300       _soap_fault                0043f300 f   soapC.obj
 0001:0003e3f2       _soap_serializefault       0043f3f2 f   soapC.obj
 0001:0003e42c       _soap_putfault             0043f42c f   soapC.obj
 0001:0003e465       _soap_getfault             0043f465 f   soapC.obj
 0001:0003e49e       _soap_faultcode            0043f49e f   soapC.obj
 0001:0003e4e8       _soap_faultsubcode         0043f4e8 f   soapC.obj
 0001:0003e571       _soap_check_faultsubcode   0043f571 f   soapC.obj
 0001:0003e5ea       _soap_faultstring          0043f5ea f   soapC.obj
 0001:0003e628       _soap_faultdetail          0043f628 f   soapC.obj
 0001:0003e6ea       _soap_check_faultdetail    0043f6ea f   soapC.obj
 0001:0003e74e       ?soap_getindependent@@YAHPAUsoap@@@Z 0043f74e f   soapC.obj
 0001:0003e7d5       _soap_getelement           0043f7d5 f   soapC.obj
 0001:0003f7fc       ?soap_ignore_element@@YAHPAUsoap@@@Z 004407fc f   soapC.obj
 0001:0003fb25       ?soap_putindependent@@YAHPAUsoap@@@Z 00440b25 f   soapC.obj
 0001:0003fc09       _soap_putelement           00440c09 f   soapC.obj
 0001:000407e0       _soap_markelement          004417e0 f   soapC.obj
 0001:000411e3       ?soap_instantiate@@YAPAXPAUsoap@@HPBD1PAI@Z 004421e3 f   soapC.obj
 0001:00041a60       ?soap_fdelete@@YAHPAUsoap_clist@@@Z 00442a60 f   soapC.obj
 0001:000436d3       ?soap_class_id_enter@@YAPAXPAUsoap@@PBDPAXHI11@Z 004446d3 f   soapC.obj
 0001:0004370a       ?soap_default_byte@@YAXPAUsoap@@PAD@Z 0044470a f   soapC.obj
 0001:00043715       ?soap_out_byte@@YAHPAUsoap@@PBDH11@Z 00444715 f   soapC.obj
 0001:0004373f       ?soap_in_byte@@YAPADPAUsoap@@PBDPAD1@Z 0044473f f   soapC.obj
 0001:00043778       ?soap_put_byte@@YAHPAUsoap@@PBD11@Z 00444778 f   soapC.obj
 0001:00043803       ?soap_get_byte@@YAPADPAUsoap@@PADPBD2@Z 00444803 f   soapC.obj
 0001:00043847       ?soap_default_int@@YAXPAUsoap@@PAH@Z 00444847 f   soapC.obj
 0001:00043855       ?soap_out_int@@YAHPAUsoap@@PBDHPBH1@Z 00444855 f   soapC.obj
 0001:0004387f       ?soap_in_int@@YAPAHPAUsoap@@PBDPAH1@Z 0044487f f   soapC.obj
 0001:000438b8       ?soap_put_int@@YAHPAUsoap@@PBHPBD2@Z 004448b8 f   soapC.obj
 0001:00043943       ?soap_get_int@@YAPAHPAUsoap@@PAHPBD2@Z 00444943 f   soapC.obj
 0001:00043987       ?soap_default_time@@YAXPAUsoap@@PAJ@Z 00444987 f   soapC.obj
 0001:00043995       ?soap_out_time@@YAHPAUsoap@@PBDHPBJ1@Z 00444995 f   soapC.obj
 0001:000439bf       ?soap_in_time@@YAPAJPAUsoap@@PBDPAJ1@Z 004449bf f   soapC.obj
 0001:000439f8       ?soap_put_time@@YAHPAUsoap@@PBJPBD2@Z 004449f8 f   soapC.obj
 0001:00043a83       ?soap_get_time@@YAPAJPAUsoap@@PAJPBD2@Z 00444a83 f   soapC.obj
 0001:00043ac7       ?soap_default_bool@@YAXPAUsoap@@PA_N@Z 00444ac7 f   soapC.obj
 0001:00043ad2       ?soap_bool2s@@YAPBDPAUsoap@@_N@Z 00444ad2 f   soapC.obj
 0001:00043afa       ?soap_out_bool@@YAHPAUsoap@@PBDHPB_N1@Z 00444afa f   soapC.obj
 0001:00043b73       ?soap_s2bool@@YAHPAUsoap@@PBDPA_N@Z 00444b73 f   soapC.obj
 0001:00043c1a       ?soap_in_bool@@YAPA_NPAUsoap@@PBDPA_N1@Z 00444c1a f   soapC.obj
 0001:00043d89       ?soap_put_bool@@YAHPAUsoap@@PB_NPBD2@Z 00444d89 f   soapC.obj
 0001:00043e14       ?soap_get_bool@@YAPA_NPAUsoap@@PA_NPBD2@Z 00444e14 f   soapC.obj
 0001:00043e58       ?soap_default_ns1__ItemTypeEnum@@YAXPAUsoap@@PAW4ns1__ItemTypeEnum@@@Z 00444e58 f   soapC.obj
 0001:00043e66       ?soap_ns1__ItemTypeEnum2s@@YAPBDPAUsoap@@W4ns1__ItemTypeEnum@@@Z 00444e66 f   soapC.obj
 0001:00043e87       ?soap_out_ns1__ItemTypeEnum@@YAHPAUsoap@@PBDHPBW4ns1__ItemTypeEnum@@1@Z 00444e87 f   soapC.obj
 0001:00043f00       ?soap_s2ns1__ItemTypeEnum@@YAHPAUsoap@@PBDPAW4ns1__ItemTypeEnum@@@Z 00444f00 f   soapC.obj
 0001:00043f24       ?soap_in_ns1__ItemTypeEnum@@YAPAW4ns1__ItemTypeEnum@@PAUsoap@@PBDPAW41@1@Z 00444f24 f   soapC.obj
 0001:00044036       ?soap_put_ns1__ItemTypeEnum@@YAHPAUsoap@@PBW4ns1__ItemTypeEnum@@PBD2@Z 00445036 f   soapC.obj
 0001:000440c1       ?soap_get_ns1__ItemTypeEnum@@YAPAW4ns1__ItemTypeEnum@@PAUsoap@@PAW41@PBD2@Z 004450c1 f   soapC.obj
 0001:00044105       ?soap_default_ns1__KindEnum@@YAXPAUsoap@@PAW4ns1__KindEnum@@@Z 00445105 f   soapC.obj
 0001:00044113       ?soap_ns1__KindEnum2s@@YAPBDPAUsoap@@W4ns1__KindEnum@@@Z 00445113 f   soapC.obj
 0001:00044134       ?soap_out_ns1__KindEnum@@YAHPAUsoap@@PBDHPBW4ns1__KindEnum@@1@Z 00445134 f   soapC.obj
 0001:000441ad       ?soap_s2ns1__KindEnum@@YAHPAUsoap@@PBDPAW4ns1__KindEnum@@@Z 004451ad f   soapC.obj
 0001:000441d1       ?soap_in_ns1__KindEnum@@YAPAW4ns1__KindEnum@@PAUsoap@@PBDPAW41@1@Z 004451d1 f   soapC.obj
 0001:000442e3       ?soap_put_ns1__KindEnum@@YAHPAUsoap@@PBW4ns1__KindEnum@@PBD2@Z 004452e3 f   soapC.obj
 0001:0004436e       ?soap_get_ns1__KindEnum@@YAPAW4ns1__KindEnum@@PAUsoap@@PAW41@PBD2@Z 0044536e f   soapC.obj
 0001:000443b2       ?soap_default@_ns1__GetLotteryWinningListResponse_GetLotteryWinningListResult@@UAEXPAUsoap@@@Z 004453b2 f   soapC.obj
 0001:000443e4       ?soap_serialize@_ns1__GetLotteryWinningListResponse_GetLotteryWinningListResult@@UBEXPAUsoap@@@Z 004453e4 f   soapC.obj
 0001:000443f8       ?soap_out@_ns1__GetLotteryWinningListResponse_GetLotteryWinningListResult@@UBEHPAUsoap@@PBDH1@Z 004453f8 f   soapC.obj
 0001:00044432       ?soap_out__ns1__GetLotteryWinningListResponse_GetLotteryWinningListResult@@YAHPAUsoap@@PBDHPBV_ns1__GetLotteryWinningListResponse_GetLotteryWinningListResult@@1@Z 00445432 f   soapC.obj
 0001:0004450b       ?soap_in@_ns1__GetLotteryWinningListResponse_GetLotteryWinningListResult@@UAEPAXPAUsoap@@PBD1@Z 0044550b f   soapC.obj
 0001:00044541       ?soap_in__ns1__GetLotteryWinningListResponse_GetLotteryWinningListResult@@YAPAV_ns1__GetLotteryWinningListResponse_GetLotteryWinningListResult@@PAUsoap@@PBDPAV1@1@Z 00445541 f   soapC.obj
 0001:00044889       ?soap_put@_ns1__GetLotteryWinningListResponse_GetLotteryWinningListResult@@UBEHPAUsoap@@PBD1@Z 00445889 f   soapC.obj
 0001:0004492a       ?soap_get@_ns1__GetLotteryWinningListResponse_GetLotteryWinningListResult@@UAEPAXPAUsoap@@PBD1@Z 0044592a f   soapC.obj
 0001:00044960       ?soap_get__ns1__GetLotteryWinningListResponse_GetLotteryWinningListResult@@YAPAV_ns1__GetLotteryWinningListResponse_GetLotteryWinningListResult@@PAUsoap@@PAV1@PBD2@Z 00445960 f   soapC.obj
 0001:000449a4       ?soap_instantiate__ns1__GetLotteryWinningListResponse_GetLotteryWinningListResult@@YAPAV_ns1__GetLotteryWinningListResponse_GetLotteryWinningListResult@@PAUsoap@@HPBD1PAI@Z 004459a4 f   soapC.obj
 0001:00044be9       ?soap_copy__ns1__GetLotteryWinningListResponse_GetLotteryWinningListResult@@YAXPAUsoap@@HHPAXIPBXI@Z 00445be9 f   soapC.obj
 0001:00044c81       ?soap_default@_ns1__GetLotteryWinningTopResponse_GetLotteryWinningTopResult@@UAEXPAUsoap@@@Z 00445c81 f   soapC.obj
 0001:00044cb3       ?soap_serialize@_ns1__GetLotteryWinningTopResponse_GetLotteryWinningTopResult@@UBEXPAUsoap@@@Z 00445cb3 f   soapC.obj
 0001:00044cc7       ?soap_out@_ns1__GetLotteryWinningTopResponse_GetLotteryWinningTopResult@@UBEHPAUsoap@@PBDH1@Z 00445cc7 f   soapC.obj
 0001:00044d01       ?soap_out__ns1__GetLotteryWinningTopResponse_GetLotteryWinningTopResult@@YAHPAUsoap@@PBDHPBV_ns1__GetLotteryWinningTopResponse_GetLotteryWinningTopResult@@1@Z 00445d01 f   soapC.obj
 0001:00044dda       ?soap_in@_ns1__GetLotteryWinningTopResponse_GetLotteryWinningTopResult@@UAEPAXPAUsoap@@PBD1@Z 00445dda f   soapC.obj
 0001:00044e10       ?soap_in__ns1__GetLotteryWinningTopResponse_GetLotteryWinningTopResult@@YAPAV_ns1__GetLotteryWinningTopResponse_GetLotteryWinningTopResult@@PAUsoap@@PBDPAV1@1@Z 00445e10 f   soapC.obj
 0001:00045158       ?soap_put@_ns1__GetLotteryWinningTopResponse_GetLotteryWinningTopResult@@UBEHPAUsoap@@PBD1@Z 00446158 f   soapC.obj
 0001:000451f9       ?soap_get@_ns1__GetLotteryWinningTopResponse_GetLotteryWinningTopResult@@UAEPAXPAUsoap@@PBD1@Z 004461f9 f   soapC.obj
 0001:0004522f       ?soap_get__ns1__GetLotteryWinningTopResponse_GetLotteryWinningTopResult@@YAPAV_ns1__GetLotteryWinningTopResponse_GetLotteryWinningTopResult@@PAUsoap@@PAV1@PBD2@Z 0044622f f   soapC.obj
 0001:00045273       ?soap_instantiate__ns1__GetLotteryWinningTopResponse_GetLotteryWinningTopResult@@YAPAV_ns1__GetLotteryWinningTopResponse_GetLotteryWinningTopResult@@PAUsoap@@HPBD1PAI@Z 00446273 f   soapC.obj
 0001:000454b8       ?soap_copy__ns1__GetLotteryWinningTopResponse_GetLotteryWinningTopResult@@YAXPAUsoap@@HHPAXIPBXI@Z 004464b8 f   soapC.obj
 0001:00045550       ?soap_default@_ns1__GetLotteryWinningListResponse@@UAEXPAUsoap@@@Z 00446550 f   soapC.obj
 0001:000455a7       ?soap_serialize@_ns1__GetLotteryWinningListResponse@@UBEXPAUsoap@@@Z 004465a7 f   soapC.obj
 0001:000455eb       ?soap_out@_ns1__GetLotteryWinningListResponse@@UBEHPAUsoap@@PBDH1@Z 004465eb f   soapC.obj
 0001:00045625       ?soap_out__ns1__GetLotteryWinningListResponse@@YAHPAUsoap@@PBDHPBV_ns1__GetLotteryWinningListResponse@@1@Z 00446625 f   soapC.obj
 0001:00045722       ?soap_in@_ns1__GetLotteryWinningListResponse@@UAEPAXPAUsoap@@PBD1@Z 00446722 f   soapC.obj
 0001:00045758       ?soap_in__ns1__GetLotteryWinningListResponse@@YAPAV_ns1__GetLotteryWinningListResponse@@PAUsoap@@PBDPAV1@1@Z 00446758 f   soapC.obj
 0001:00045a50       ?soap_put@_ns1__GetLotteryWinningListResponse@@UBEHPAUsoap@@PBD1@Z 00446a50 f   soapC.obj
 0001:00045af1       ?soap_get@_ns1__GetLotteryWinningListResponse@@UAEPAXPAUsoap@@PBD1@Z 00446af1 f   soapC.obj
 0001:00045b27       ?soap_get__ns1__GetLotteryWinningListResponse@@YAPAV_ns1__GetLotteryWinningListResponse@@PAUsoap@@PAV1@PBD2@Z 00446b27 f   soapC.obj
 0001:00045b6b       ?soap_instantiate__ns1__GetLotteryWinningListResponse@@YAPAV_ns1__GetLotteryWinningListResponse@@PAUsoap@@HPBD1PAI@Z 00446b6b f   soapC.obj
 0001:00045df7       ?soap_copy__ns1__GetLotteryWinningListResponse@@YAXPAUsoap@@HHPAXIPBXI@Z 00446df7 f   soapC.obj
 0001:00045e8f       ?soap_default@_ns1__GetLotteryWinningList@@UAEXPAUsoap@@@Z 00446e8f f   soapC.obj
 0001:00045f87       ?soap_serialize@_ns1__GetLotteryWinningList@@UBEXPAUsoap@@@Z 00446f87 f   soapC.obj
 0001:00046004       ?soap_out@_ns1__GetLotteryWinningList@@UBEHPAUsoap@@PBDH1@Z 00447004 f   soapC.obj
 0001:0004603e       ?soap_out__ns1__GetLotteryWinningList@@YAHPAUsoap@@PBDHPBV_ns1__GetLotteryWinningList@@1@Z 0044703e f   soapC.obj
 0001:000462a9       ?soap_in@_ns1__GetLotteryWinningList@@UAEPAXPAUsoap@@PBD1@Z 004472a9 f   soapC.obj
 0001:000462df       ?soap_in__ns1__GetLotteryWinningList@@YAPAV_ns1__GetLotteryWinningList@@PAUsoap@@PBDPAV1@1@Z 004472df f   soapC.obj
 0001:00046852       ?soap_put@_ns1__GetLotteryWinningList@@UBEHPAUsoap@@PBD1@Z 00447852 f   soapC.obj
 0001:000468f3       ?soap_get@_ns1__GetLotteryWinningList@@UAEPAXPAUsoap@@PBD1@Z 004478f3 f   soapC.obj
 0001:00046929       ?soap_get__ns1__GetLotteryWinningList@@YAPAV_ns1__GetLotteryWinningList@@PAUsoap@@PAV1@PBD2@Z 00447929 f   soapC.obj
 0001:0004696d       ?soap_instantiate__ns1__GetLotteryWinningList@@YAPAV_ns1__GetLotteryWinningList@@PAUsoap@@HPBD1PAI@Z 0044796d f   soapC.obj
 0001:00046bf9       ?soap_copy__ns1__GetLotteryWinningList@@YAXPAUsoap@@HHPAXIPBXI@Z 00447bf9 f   soapC.obj
 0001:00046c91       ?soap_default@_ns1__GetLotteryWinningTopResponse@@UAEXPAUsoap@@@Z 00447c91 f   soapC.obj
 0001:00046cd5       ?soap_serialize@_ns1__GetLotteryWinningTopResponse@@UBEXPAUsoap@@@Z 00447cd5 f   soapC.obj
 0001:00046d19       ?soap_out@_ns1__GetLotteryWinningTopResponse@@UBEHPAUsoap@@PBDH1@Z 00447d19 f   soapC.obj
 0001:00046d53       ?soap_out__ns1__GetLotteryWinningTopResponse@@YAHPAUsoap@@PBDHPBV_ns1__GetLotteryWinningTopResponse@@1@Z 00447d53 f   soapC.obj
 0001:00046e22       ?soap_in@_ns1__GetLotteryWinningTopResponse@@UAEPAXPAUsoap@@PBD1@Z 00447e22 f   soapC.obj
 0001:00046e58       ?soap_in__ns1__GetLotteryWinningTopResponse@@YAPAV_ns1__GetLotteryWinningTopResponse@@PAUsoap@@PBDPAV1@1@Z 00447e58 f   soapC.obj
 0001:000470d7       ?soap_put@_ns1__GetLotteryWinningTopResponse@@UBEHPAUsoap@@PBD1@Z 004480d7 f   soapC.obj
 0001:00047178       ?soap_get@_ns1__GetLotteryWinningTopResponse@@UAEPAXPAUsoap@@PBD1@Z 00448178 f   soapC.obj
 0001:000471ae       ?soap_get__ns1__GetLotteryWinningTopResponse@@YAPAV_ns1__GetLotteryWinningTopResponse@@PAUsoap@@PAV1@PBD2@Z 004481ae f   soapC.obj
 0001:000471f2       ?soap_instantiate__ns1__GetLotteryWinningTopResponse@@YAPAV_ns1__GetLotteryWinningTopResponse@@PAUsoap@@HPBD1PAI@Z 004481f2 f   soapC.obj
 0001:0004747e       ?soap_copy__ns1__GetLotteryWinningTopResponse@@YAXPAUsoap@@HHPAXIPBXI@Z 0044847e f   soapC.obj
 0001:00047516       ?soap_default@_ns1__GetLotteryWinningTop@@UAEXPAUsoap@@@Z 00448516 f   soapC.obj
 0001:000475e8       ?soap_serialize@_ns1__GetLotteryWinningTop@@UBEXPAUsoap@@@Z 004485e8 f   soapC.obj
 0001:00047678       ?soap_out@_ns1__GetLotteryWinningTop@@UBEHPAUsoap@@PBDH1@Z 00448678 f   soapC.obj
 0001:000476b2       ?soap_out__ns1__GetLotteryWinningTop@@YAHPAUsoap@@PBDHPBV_ns1__GetLotteryWinningTop@@1@Z 004486b2 f   soapC.obj
 0001:000478e9       ?soap_in@_ns1__GetLotteryWinningTop@@UAEPAXPAUsoap@@PBD1@Z 004488e9 f   soapC.obj
 0001:0004791f       ?soap_in__ns1__GetLotteryWinningTop@@YAPAV_ns1__GetLotteryWinningTop@@PAUsoap@@PBDPAV1@1@Z 0044891f f   soapC.obj
 0001:00047e12       ?soap_put@_ns1__GetLotteryWinningTop@@UBEHPAUsoap@@PBD1@Z 00448e12 f   soapC.obj
 0001:00047eb3       ?soap_get@_ns1__GetLotteryWinningTop@@UAEPAXPAUsoap@@PBD1@Z 00448eb3 f   soapC.obj
 0001:00047ee9       ?soap_get__ns1__GetLotteryWinningTop@@YAPAV_ns1__GetLotteryWinningTop@@PAUsoap@@PAV1@PBD2@Z 00448ee9 f   soapC.obj
 0001:00047f2d       ?soap_instantiate__ns1__GetLotteryWinningTop@@YAPAV_ns1__GetLotteryWinningTop@@PAUsoap@@HPBD1PAI@Z 00448f2d f   soapC.obj
 0001:000481b9       ?soap_copy__ns1__GetLotteryWinningTop@@YAXPAUsoap@@HHPAXIPBXI@Z 004491b9 f   soapC.obj
 0001:00048251       ?soap_default@_ns1__GetLotteryPrizeResponse@@UAEXPAUsoap@@@Z 00449251 f   soapC.obj
 0001:00048295       ?soap_serialize@_ns1__GetLotteryPrizeResponse@@UBEXPAUsoap@@@Z 00449295 f   soapC.obj
 0001:000482d9       ?soap_out@_ns1__GetLotteryPrizeResponse@@UBEHPAUsoap@@PBDH1@Z 004492d9 f   soapC.obj
 0001:00048313       ?soap_out__ns1__GetLotteryPrizeResponse@@YAHPAUsoap@@PBDHPBV_ns1__GetLotteryPrizeResponse@@1@Z 00449313 f   soapC.obj
 0001:000483e2       ?soap_in@_ns1__GetLotteryPrizeResponse@@UAEPAXPAUsoap@@PBD1@Z 004493e2 f   soapC.obj
 0001:00048418       ?soap_in__ns1__GetLotteryPrizeResponse@@YAPAV_ns1__GetLotteryPrizeResponse@@PAUsoap@@PBDPAV1@1@Z 00449418 f   soapC.obj
 0001:00048697       ?soap_put@_ns1__GetLotteryPrizeResponse@@UBEHPAUsoap@@PBD1@Z 00449697 f   soapC.obj
 0001:00048738       ?soap_get@_ns1__GetLotteryPrizeResponse@@UAEPAXPAUsoap@@PBD1@Z 00449738 f   soapC.obj
 0001:0004876e       ?soap_get__ns1__GetLotteryPrizeResponse@@YAPAV_ns1__GetLotteryPrizeResponse@@PAUsoap@@PAV1@PBD2@Z 0044976e f   soapC.obj
 0001:000487b2       ?soap_instantiate__ns1__GetLotteryPrizeResponse@@YAPAV_ns1__GetLotteryPrizeResponse@@PAUsoap@@HPBD1PAI@Z 004497b2 f   soapC.obj
 0001:00048a3e       ?soap_copy__ns1__GetLotteryPrizeResponse@@YAXPAUsoap@@HHPAXIPBXI@Z 00449a3e f   soapC.obj
 0001:00048ad6       ?soap_default@_ns1__GetLotteryPrize@@UAEXPAUsoap@@@Z 00449ad6 f   soapC.obj
 0001:00048b36       ?soap_serialize@_ns1__GetLotteryPrize@@UBEXPAUsoap@@@Z 00449b36 f   soapC.obj
 0001:00048b8d       ?soap_out@_ns1__GetLotteryPrize@@UBEHPAUsoap@@PBDH1@Z 00449b8d f   soapC.obj
 0001:00048bc7       ?soap_out__ns1__GetLotteryPrize@@YAHPAUsoap@@PBDHPBV_ns1__GetLotteryPrize@@1@Z 00449bc7 f   soapC.obj
 0001:00048caa       ?soap_in@_ns1__GetLotteryPrize@@UAEPAXPAUsoap@@PBD1@Z 00449caa f   soapC.obj
 0001:00048ce0       ?soap_in__ns1__GetLotteryPrize@@YAPAV_ns1__GetLotteryPrize@@PAUsoap@@PBDPAV1@1@Z 00449ce0 f   soapC.obj
 0001:00048fb5       ?soap_put@_ns1__GetLotteryPrize@@UBEHPAUsoap@@PBD1@Z 00449fb5 f   soapC.obj
 0001:00049056       ?soap_get@_ns1__GetLotteryPrize@@UAEPAXPAUsoap@@PBD1@Z 0044a056 f   soapC.obj
 0001:0004908c       ?soap_get__ns1__GetLotteryPrize@@YAPAV_ns1__GetLotteryPrize@@PAUsoap@@PAV1@PBD2@Z 0044a08c f   soapC.obj
 0001:000490d0       ?soap_instantiate__ns1__GetLotteryPrize@@YAPAV_ns1__GetLotteryPrize@@PAUsoap@@HPBD1PAI@Z 0044a0d0 f   soapC.obj
 0001:0004935c       ?soap_copy__ns1__GetLotteryPrize@@YAXPAUsoap@@HHPAXIPBXI@Z 0044a35c f   soapC.obj
 0001:000493f4       ?soap_default@_ns1__LotteryResponse@@UAEXPAUsoap@@@Z 0044a3f4 f   soapC.obj
 0001:0004944b       ?soap_serialize@_ns1__LotteryResponse@@UBEXPAUsoap@@@Z 0044a44b f   soapC.obj
 0001:0004948f       ?soap_out@_ns1__LotteryResponse@@UBEHPAUsoap@@PBDH1@Z 0044a48f f   soapC.obj
 0001:000494c9       ?soap_out__ns1__LotteryResponse@@YAHPAUsoap@@PBDHPBV_ns1__LotteryResponse@@1@Z 0044a4c9 f   soapC.obj
 0001:000495bd       ?soap_in@_ns1__LotteryResponse@@UAEPAXPAUsoap@@PBD1@Z 0044a5bd f   soapC.obj
 0001:000495f3       ?soap_in__ns1__LotteryResponse@@YAPAV_ns1__LotteryResponse@@PAUsoap@@PBDPAV1@1@Z 0044a5f3 f   soapC.obj
 0001:000498eb       ?soap_put@_ns1__LotteryResponse@@UBEHPAUsoap@@PBD1@Z 0044a8eb f   soapC.obj
 0001:0004998c       ?soap_get@_ns1__LotteryResponse@@UAEPAXPAUsoap@@PBD1@Z 0044a98c f   soapC.obj
 0001:000499c2       ?soap_get__ns1__LotteryResponse@@YAPAV_ns1__LotteryResponse@@PAUsoap@@PAV1@PBD2@Z 0044a9c2 f   soapC.obj
 0001:00049a06       ?soap_instantiate__ns1__LotteryResponse@@YAPAV_ns1__LotteryResponse@@PAUsoap@@HPBD1PAI@Z 0044aa06 f   soapC.obj
 0001:00049c92       ?soap_copy__ns1__LotteryResponse@@YAXPAUsoap@@HHPAXIPBXI@Z 0044ac92 f   soapC.obj
 0001:00049d2a       ?soap_default@_ns1__Lottery@@UAEXPAUsoap@@@Z 0044ad2a f   soapC.obj
 0001:00049de9       ?soap_serialize@_ns1__Lottery@@UBEXPAUsoap@@@Z 0044ade9 f   soapC.obj
 0001:00049e8c       ?soap_out@_ns1__Lottery@@UBEHPAUsoap@@PBDH1@Z 0044ae8c f   soapC.obj
 0001:00049ec6       ?soap_out__ns1__Lottery@@YAHPAUsoap@@PBDHPBV_ns1__Lottery@@1@Z 0044aec6 f   soapC.obj
 0001:0004a09e       ?soap_in@_ns1__Lottery@@UAEPAXPAUsoap@@PBD1@Z 0044b09e f   soapC.obj
 0001:0004a0d4       ?soap_in__ns1__Lottery@@YAPAV_ns1__Lottery@@PAUsoap@@PBDPAV1@1@Z 0044b0d4 f   soapC.obj
 0001:0004a573       ?soap_put@_ns1__Lottery@@UBEHPAUsoap@@PBD1@Z 0044b573 f   soapC.obj
 0001:0004a614       ?soap_get@_ns1__Lottery@@UAEPAXPAUsoap@@PBD1@Z 0044b614 f   soapC.obj
 0001:0004a64a       ?soap_get__ns1__Lottery@@YAPAV_ns1__Lottery@@PAUsoap@@PAV1@PBD2@Z 0044b64a f   soapC.obj
 0001:0004a68e       ?soap_instantiate__ns1__Lottery@@YAPAV_ns1__Lottery@@PAUsoap@@HPBD1PAI@Z 0044b68e f   soapC.obj
 0001:0004a91a       ?soap_copy__ns1__Lottery@@YAXPAUsoap@@HHPAXIPBXI@Z 0044b91a f   soapC.obj
 0001:0004a9b2       ?soap_default@_ns1__GetAwardInfoResponse@@UAEXPAUsoap@@@Z 0044b9b2 f   soapC.obj
 0001:0004a9d9       ?soap_serialize@_ns1__GetAwardInfoResponse@@UBEXPAUsoap@@@Z 0044b9d9 f   soapC.obj
 0001:0004aa0a       ?soap_out@_ns1__GetAwardInfoResponse@@UBEHPAUsoap@@PBDH1@Z 0044ba0a f   soapC.obj
 0001:0004aa44       ?soap_out__ns1__GetAwardInfoResponse@@YAHPAUsoap@@PBDHPBV_ns1__GetAwardInfoResponse@@1@Z 0044ba44 f   soapC.obj
 0001:0004aae2       ?soap_in@_ns1__GetAwardInfoResponse@@UAEPAXPAUsoap@@PBD1@Z 0044bae2 f   soapC.obj
 0001:0004ab18       ?soap_in__ns1__GetAwardInfoResponse@@YAPAV_ns1__GetAwardInfoResponse@@PAUsoap@@PBDPAV1@1@Z 0044bb18 f   soapC.obj
 0001:0004ad3a       ?soap_put@_ns1__GetAwardInfoResponse@@UBEHPAUsoap@@PBD1@Z 0044bd3a f   soapC.obj
 0001:0004addb       ?soap_get@_ns1__GetAwardInfoResponse@@UAEPAXPAUsoap@@PBD1@Z 0044bddb f   soapC.obj
 0001:0004ae11       ?soap_get__ns1__GetAwardInfoResponse@@YAPAV_ns1__GetAwardInfoResponse@@PAUsoap@@PAV1@PBD2@Z 0044be11 f   soapC.obj
 0001:0004ae55       ?soap_instantiate__ns1__GetAwardInfoResponse@@YAPAV_ns1__GetAwardInfoResponse@@PAUsoap@@HPBD1PAI@Z 0044be55 f   soapC.obj
 0001:0004b0e1       ?soap_copy__ns1__GetAwardInfoResponse@@YAXPAUsoap@@HHPAXIPBXI@Z 0044c0e1 f   soapC.obj
 0001:0004b179       ?soap_default@_ns1__GetAwardInfo@@UAEXPAUsoap@@@Z 0044c179 f   soapC.obj
 0001:0004b1b3       ?soap_serialize@_ns1__GetAwardInfo@@UBEXPAUsoap@@@Z 0044c1b3 f   soapC.obj
 0001:0004b1e4       ?soap_out@_ns1__GetAwardInfo@@UBEHPAUsoap@@PBDH1@Z 0044c1e4 f   soapC.obj
 0001:0004b21e       ?soap_out__ns1__GetAwardInfo@@YAHPAUsoap@@PBDHPBV_ns1__GetAwardInfo@@1@Z 0044c21e f   soapC.obj
 0001:0004b2a2       ?soap_in@_ns1__GetAwardInfo@@UAEPAXPAUsoap@@PBD1@Z 0044c2a2 f   soapC.obj
 0001:0004b2d8       ?soap_in__ns1__GetAwardInfo@@YAPAV_ns1__GetAwardInfo@@PAUsoap@@PBDPAV1@1@Z 0044c2d8 f   soapC.obj
 0001:0004b4f5       ?soap_put@_ns1__GetAwardInfo@@UBEHPAUsoap@@PBD1@Z 0044c4f5 f   soapC.obj
 0001:0004b596       ?soap_get@_ns1__GetAwardInfo@@UAEPAXPAUsoap@@PBD1@Z 0044c596 f   soapC.obj
 0001:0004b5cc       ?soap_get__ns1__GetAwardInfo@@YAPAV_ns1__GetAwardInfo@@PAUsoap@@PAV1@PBD2@Z 0044c5cc f   soapC.obj
 0001:0004b610       ?soap_instantiate__ns1__GetAwardInfo@@YAPAV_ns1__GetAwardInfo@@PAUsoap@@HPBD1PAI@Z 0044c610 f   soapC.obj
 0001:0004b89c       ?soap_copy__ns1__GetAwardInfo@@YAXPAUsoap@@HHPAXIPBXI@Z 0044c89c f   soapC.obj
 0001:0004b934       ?soap_default@_ns1__GetAwardItemResponse@@UAEXPAUsoap@@@Z 0044c934 f   soapC.obj
 0001:0004b95b       ?soap_serialize@_ns1__GetAwardItemResponse@@UBEXPAUsoap@@@Z 0044c95b f   soapC.obj
 0001:0004b98c       ?soap_out@_ns1__GetAwardItemResponse@@UBEHPAUsoap@@PBDH1@Z 0044c98c f   soapC.obj
 0001:0004b9c6       ?soap_out__ns1__GetAwardItemResponse@@YAHPAUsoap@@PBDHPBV_ns1__GetAwardItemResponse@@1@Z 0044c9c6 f   soapC.obj
 0001:0004ba64       ?soap_in@_ns1__GetAwardItemResponse@@UAEPAXPAUsoap@@PBD1@Z 0044ca64 f   soapC.obj
 0001:0004ba9a       ?soap_in__ns1__GetAwardItemResponse@@YAPAV_ns1__GetAwardItemResponse@@PAUsoap@@PBDPAV1@1@Z 0044ca9a f   soapC.obj
 0001:0004bcbc       ?soap_put@_ns1__GetAwardItemResponse@@UBEHPAUsoap@@PBD1@Z 0044ccbc f   soapC.obj
 0001:0004bd5d       ?soap_get@_ns1__GetAwardItemResponse@@UAEPAXPAUsoap@@PBD1@Z 0044cd5d f   soapC.obj
 0001:0004bd93       ?soap_get__ns1__GetAwardItemResponse@@YAPAV_ns1__GetAwardItemResponse@@PAUsoap@@PAV1@PBD2@Z 0044cd93 f   soapC.obj
 0001:0004bdd7       ?soap_instantiate__ns1__GetAwardItemResponse@@YAPAV_ns1__GetAwardItemResponse@@PAUsoap@@HPBD1PAI@Z 0044cdd7 f   soapC.obj
 0001:0004c063       ?soap_copy__ns1__GetAwardItemResponse@@YAXPAUsoap@@HHPAXIPBXI@Z 0044d063 f   soapC.obj
 0001:0004c0fb       ?soap_default@_ns1__GetAwardItem@@UAEXPAUsoap@@@Z 0044d0fb f   soapC.obj
 0001:0004c135       ?soap_serialize@_ns1__GetAwardItem@@UBEXPAUsoap@@@Z 0044d135 f   soapC.obj
 0001:0004c166       ?soap_out@_ns1__GetAwardItem@@UBEHPAUsoap@@PBDH1@Z 0044d166 f   soapC.obj
 0001:0004c1a0       ?soap_out__ns1__GetAwardItem@@YAHPAUsoap@@PBDHPBV_ns1__GetAwardItem@@1@Z 0044d1a0 f   soapC.obj
 0001:0004c224       ?soap_in@_ns1__GetAwardItem@@UAEPAXPAUsoap@@PBD1@Z 0044d224 f   soapC.obj
 0001:0004c25a       ?soap_in__ns1__GetAwardItem@@YAPAV_ns1__GetAwardItem@@PAUsoap@@PBDPAV1@1@Z 0044d25a f   soapC.obj
 0001:0004c477       ?soap_put@_ns1__GetAwardItem@@UBEHPAUsoap@@PBD1@Z 0044d477 f   soapC.obj
 0001:0004c518       ?soap_get@_ns1__GetAwardItem@@UAEPAXPAUsoap@@PBD1@Z 0044d518 f   soapC.obj
 0001:0004c54e       ?soap_get__ns1__GetAwardItem@@YAPAV_ns1__GetAwardItem@@PAUsoap@@PAV1@PBD2@Z 0044d54e f   soapC.obj
 0001:0004c592       ?soap_instantiate__ns1__GetAwardItem@@YAPAV_ns1__GetAwardItem@@PAUsoap@@HPBD1PAI@Z 0044d592 f   soapC.obj
 0001:0004c81e       ?soap_copy__ns1__GetAwardItem@@YAXPAUsoap@@HHPAXIPBXI@Z 0044d81e f   soapC.obj
 0001:0004c8b6       ?soap_default@_ns1__AwardItemResponse@@UAEXPAUsoap@@@Z 0044d8b6 f   soapC.obj
 0001:0004c903       ?soap_serialize@_ns1__AwardItemResponse@@UBEXPAUsoap@@@Z 0044d903 f   soapC.obj
 0001:0004c934       ?soap_out@_ns1__AwardItemResponse@@UBEHPAUsoap@@PBDH1@Z 0044d934 f   soapC.obj
 0001:0004c96e       ?soap_out__ns1__AwardItemResponse@@YAHPAUsoap@@PBDHPBV_ns1__AwardItemResponse@@1@Z 0044d96e f   soapC.obj
 0001:0004ca31       ?soap_in@_ns1__AwardItemResponse@@UAEPAXPAUsoap@@PBD1@Z 0044da31 f   soapC.obj
 0001:0004ca67       ?soap_in__ns1__AwardItemResponse@@YAPAV_ns1__AwardItemResponse@@PAUsoap@@PBDPAV1@1@Z 0044da67 f   soapC.obj
 0001:0004cd0f       ?soap_put@_ns1__AwardItemResponse@@UBEHPAUsoap@@PBD1@Z 0044dd0f f   soapC.obj
 0001:0004cdb0       ?soap_get@_ns1__AwardItemResponse@@UAEPAXPAUsoap@@PBD1@Z 0044ddb0 f   soapC.obj
 0001:0004cde6       ?soap_get__ns1__AwardItemResponse@@YAPAV_ns1__AwardItemResponse@@PAUsoap@@PAV1@PBD2@Z 0044dde6 f   soapC.obj
 0001:0004ce2a       ?soap_instantiate__ns1__AwardItemResponse@@YAPAV_ns1__AwardItemResponse@@PAUsoap@@HPBD1PAI@Z 0044de2a f   soapC.obj
 0001:0004d0b6       ?soap_copy__ns1__AwardItemResponse@@YAXPAUsoap@@HHPAXIPBXI@Z 0044e0b6 f   soapC.obj
 0001:0004d14e       ?soap_default@_ns1__AwardItem@@UAEXPAUsoap@@@Z 0044e14e f   soapC.obj
 0001:0004d1fa       ?soap_serialize@_ns1__AwardItem@@UBEXPAUsoap@@@Z 0044e1fa f   soapC.obj
 0001:0004d28a       ?soap_out@_ns1__AwardItem@@UBEHPAUsoap@@PBDH1@Z 0044e28a f   soapC.obj
 0001:0004d2c4       ?soap_out__ns1__AwardItem@@YAHPAUsoap@@PBDHPBV_ns1__AwardItem@@1@Z 0044e2c4 f   soapC.obj
 0001:0004d46b       ?soap_in@_ns1__AwardItem@@UAEPAXPAUsoap@@PBD1@Z 0044e46b f   soapC.obj
 0001:0004d4a1       ?soap_in__ns1__AwardItem@@YAPAV_ns1__AwardItem@@PAUsoap@@PBDPAV1@1@Z 0044e4a1 f   soapC.obj
 0001:0004d8e8       ?soap_put@_ns1__AwardItem@@UBEHPAUsoap@@PBD1@Z 0044e8e8 f   soapC.obj
 0001:0004d989       ?soap_get@_ns1__AwardItem@@UAEPAXPAUsoap@@PBD1@Z 0044e989 f   soapC.obj
 0001:0004d9bf       ?soap_get__ns1__AwardItem@@YAPAV_ns1__AwardItem@@PAUsoap@@PAV1@PBD2@Z 0044e9bf f   soapC.obj
 0001:0004da03       ?soap_instantiate__ns1__AwardItem@@YAPAV_ns1__AwardItem@@PAUsoap@@HPBD1PAI@Z 0044ea03 f   soapC.obj
 0001:0004dc8f       ?soap_copy__ns1__AwardItem@@YAXPAUsoap@@HHPAXIPBXI@Z 0044ec8f f   soapC.obj
 0001:0004dd27       ?soap_default@_ns1__GetClothingIDResponse@@UAEXPAUsoap@@@Z 0044ed27 f   soapC.obj
 0001:0004dd61       ?soap_serialize@_ns1__GetClothingIDResponse@@UBEXPAUsoap@@@Z 0044ed61 f   soapC.obj
 0001:0004dd75       ?soap_out@_ns1__GetClothingIDResponse@@UBEHPAUsoap@@PBDH1@Z 0044ed75 f   soapC.obj
 0001:0004ddaf       ?soap_out__ns1__GetClothingIDResponse@@YAHPAUsoap@@PBDHPBV_ns1__GetClothingIDResponse@@1@Z 0044edaf f   soapC.obj
 0001:0004de44       ?soap_in@_ns1__GetClothingIDResponse@@UAEPAXPAUsoap@@PBD1@Z 0044ee44 f   soapC.obj
 0001:0004de7a       ?soap_in__ns1__GetClothingIDResponse@@YAPAV_ns1__GetClothingIDResponse@@PAUsoap@@PBDPAV1@1@Z 0044ee7a f   soapC.obj
 0001:0004e0c6       ?soap_put@_ns1__GetClothingIDResponse@@UBEHPAUsoap@@PBD1@Z 0044f0c6 f   soapC.obj
 0001:0004e167       ?soap_get@_ns1__GetClothingIDResponse@@UAEPAXPAUsoap@@PBD1@Z 0044f167 f   soapC.obj
 0001:0004e19d       ?soap_get__ns1__GetClothingIDResponse@@YAPAV_ns1__GetClothingIDResponse@@PAUsoap@@PAV1@PBD2@Z 0044f19d f   soapC.obj
 0001:0004e1e1       ?soap_instantiate__ns1__GetClothingIDResponse@@YAPAV_ns1__GetClothingIDResponse@@PAUsoap@@HPBD1PAI@Z 0044f1e1 f   soapC.obj
 0001:0004e46d       ?soap_copy__ns1__GetClothingIDResponse@@YAXPAUsoap@@HHPAXIPBXI@Z 0044f46d f   soapC.obj
 0001:0004e505       ?soap_default@_ns1__GetClothingID@@UAEXPAUsoap@@@Z 0044f505 f   soapC.obj
 0001:0004e53f       ?soap_serialize@_ns1__GetClothingID@@UBEXPAUsoap@@@Z 0044f53f f   soapC.obj
 0001:0004e553       ?soap_out@_ns1__GetClothingID@@UBEHPAUsoap@@PBDH1@Z 0044f553 f   soapC.obj
 0001:0004e58d       ?soap_out__ns1__GetClothingID@@YAHPAUsoap@@PBDHPBV_ns1__GetClothingID@@1@Z 0044f58d f   soapC.obj
 0001:0004e611       ?soap_in@_ns1__GetClothingID@@UAEPAXPAUsoap@@PBD1@Z 0044f611 f   soapC.obj
 0001:0004e647       ?soap_in__ns1__GetClothingID@@YAPAV_ns1__GetClothingID@@PAUsoap@@PBDPAV1@1@Z 0044f647 f   soapC.obj
 0001:0004e881       ?soap_put@_ns1__GetClothingID@@UBEHPAUsoap@@PBD1@Z 0044f881 f   soapC.obj
 0001:0004e922       ?soap_get@_ns1__GetClothingID@@UAEPAXPAUsoap@@PBD1@Z 0044f922 f   soapC.obj
 0001:0004e958       ?soap_get__ns1__GetClothingID@@YAPAV_ns1__GetClothingID@@PAUsoap@@PAV1@PBD2@Z 0044f958 f   soapC.obj
 0001:0004e99c       ?soap_instantiate__ns1__GetClothingID@@YAPAV_ns1__GetClothingID@@PAUsoap@@HPBD1PAI@Z 0044f99c f   soapC.obj
 0001:0004ec28       ?soap_copy__ns1__GetClothingID@@YAXPAUsoap@@HHPAXIPBXI@Z 0044fc28 f   soapC.obj
 0001:0004ecc0       ?soap_default@_ns1__GetItemValueResponse@@UAEXPAUsoap@@@Z 0044fcc0 f   soapC.obj
 0001:0004ecfa       ?soap_serialize@_ns1__GetItemValueResponse@@UBEXPAUsoap@@@Z 0044fcfa f   soapC.obj
 0001:0004ed2b       ?soap_out@_ns1__GetItemValueResponse@@UBEHPAUsoap@@PBDH1@Z 0044fd2b f   soapC.obj
 0001:0004ed65       ?soap_out__ns1__GetItemValueResponse@@YAHPAUsoap@@PBDHPBV_ns1__GetItemValueResponse@@1@Z 0044fd65 f   soapC.obj
 0001:0004ee31       ?soap_in@_ns1__GetItemValueResponse@@UAEPAXPAUsoap@@PBD1@Z 0044fe31 f   soapC.obj
 0001:0004ee67       ?soap_in__ns1__GetItemValueResponse@@YAPAV_ns1__GetItemValueResponse@@PAUsoap@@PBDPAV1@1@Z 0044fe67 f   soapC.obj
 0001:0004f0bf       ?soap_put@_ns1__GetItemValueResponse@@UBEHPAUsoap@@PBD1@Z 004500bf f   soapC.obj
 0001:0004f160       ?soap_get@_ns1__GetItemValueResponse@@UAEPAXPAUsoap@@PBD1@Z 00450160 f   soapC.obj
 0001:0004f196       ?soap_get__ns1__GetItemValueResponse@@YAPAV_ns1__GetItemValueResponse@@PAUsoap@@PAV1@PBD2@Z 00450196 f   soapC.obj
 0001:0004f1da       ?soap_instantiate__ns1__GetItemValueResponse@@YAPAV_ns1__GetItemValueResponse@@PAUsoap@@HPBD1PAI@Z 004501da f   soapC.obj
 0001:0004f466       ?soap_copy__ns1__GetItemValueResponse@@YAXPAUsoap@@HHPAXIPBXI@Z 00450466 f   soapC.obj
 0001:0004f4fe       ?soap_default@_ns1__GetItemValue@@UAEXPAUsoap@@@Z 004504fe f   soapC.obj
 0001:0004f54b       ?soap_serialize@_ns1__GetItemValue@@UBEXPAUsoap@@@Z 0045054b f   soapC.obj
 0001:0004f55f       ?soap_out@_ns1__GetItemValue@@UBEHPAUsoap@@PBDH1@Z 0045055f f   soapC.obj
 0001:0004f599       ?soap_out__ns1__GetItemValue@@YAHPAUsoap@@PBDHPBV_ns1__GetItemValue@@1@Z 00450599 f   soapC.obj
 0001:0004f64b       ?soap_in@_ns1__GetItemValue@@UAEPAXPAUsoap@@PBD1@Z 0045064b f   soapC.obj
 0001:0004f681       ?soap_in__ns1__GetItemValue@@YAPAV_ns1__GetItemValue@@PAUsoap@@PBDPAV1@1@Z 00450681 f   soapC.obj
 0001:0004f916       ?soap_put@_ns1__GetItemValue@@UBEHPAUsoap@@PBD1@Z 00450916 f   soapC.obj
 0001:0004f9b7       ?soap_get@_ns1__GetItemValue@@UAEPAXPAUsoap@@PBD1@Z 004509b7 f   soapC.obj
 0001:0004f9ed       ?soap_get__ns1__GetItemValue@@YAPAV_ns1__GetItemValue@@PAUsoap@@PAV1@PBD2@Z 004509ed f   soapC.obj
 0001:0004fa31       ?soap_instantiate__ns1__GetItemValue@@YAPAV_ns1__GetItemValue@@PAUsoap@@HPBD1PAI@Z 00450a31 f   soapC.obj
 0001:0004fcbd       ?soap_copy__ns1__GetItemValue@@YAXPAUsoap@@HHPAXIPBXI@Z 00450cbd f   soapC.obj
 0001:0004fd55       ?soap_default@_ns1__GetItemByItemIDResponse@@UAEXPAUsoap@@@Z 00450d55 f   soapC.obj
 0001:0004fd7c       ?soap_serialize@_ns1__GetItemByItemIDResponse@@UBEXPAUsoap@@@Z 00450d7c f   soapC.obj
 0001:0004fdad       ?soap_out@_ns1__GetItemByItemIDResponse@@UBEHPAUsoap@@PBDH1@Z 00450dad f   soapC.obj
 0001:0004fde7       ?soap_out__ns1__GetItemByItemIDResponse@@YAHPAUsoap@@PBDHPBV_ns1__GetItemByItemIDResponse@@1@Z 00450de7 f   soapC.obj
 0001:0004fe85       ?soap_in@_ns1__GetItemByItemIDResponse@@UAEPAXPAUsoap@@PBD1@Z 00450e85 f   soapC.obj
 0001:0004febb       ?soap_in__ns1__GetItemByItemIDResponse@@YAPAV_ns1__GetItemByItemIDResponse@@PAUsoap@@PBDPAV1@1@Z 00450ebb f   soapC.obj
 0001:000500dd       ?soap_put@_ns1__GetItemByItemIDResponse@@UBEHPAUsoap@@PBD1@Z 004510dd f   soapC.obj
 0001:0005017e       ?soap_get@_ns1__GetItemByItemIDResponse@@UAEPAXPAUsoap@@PBD1@Z 0045117e f   soapC.obj
 0001:000501b4       ?soap_get__ns1__GetItemByItemIDResponse@@YAPAV_ns1__GetItemByItemIDResponse@@PAUsoap@@PAV1@PBD2@Z 004511b4 f   soapC.obj
 0001:000501f8       ?soap_instantiate__ns1__GetItemByItemIDResponse@@YAPAV_ns1__GetItemByItemIDResponse@@PAUsoap@@HPBD1PAI@Z 004511f8 f   soapC.obj
 0001:00050484       ?soap_copy__ns1__GetItemByItemIDResponse@@YAXPAUsoap@@HHPAXIPBXI@Z 00451484 f   soapC.obj
 0001:0005051c       ?soap_default@_ns1__GetItemByItemID@@UAEXPAUsoap@@@Z 0045151c f   soapC.obj
 0001:00050556       ?soap_serialize@_ns1__GetItemByItemID@@UBEXPAUsoap@@@Z 00451556 f   soapC.obj
 0001:0005056a       ?soap_out@_ns1__GetItemByItemID@@UBEHPAUsoap@@PBDH1@Z 0045156a f   soapC.obj
 0001:000505a4       ?soap_out__ns1__GetItemByItemID@@YAHPAUsoap@@PBDHPBV_ns1__GetItemByItemID@@1@Z 004515a4 f   soapC.obj
 0001:00050628       ?soap_in@_ns1__GetItemByItemID@@UAEPAXPAUsoap@@PBD1@Z 00451628 f   soapC.obj
 0001:0005065e       ?soap_in__ns1__GetItemByItemID@@YAPAV_ns1__GetItemByItemID@@PAUsoap@@PBDPAV1@1@Z 0045165e f   soapC.obj
 0001:00050898       ?soap_put@_ns1__GetItemByItemID@@UBEHPAUsoap@@PBD1@Z 00451898 f   soapC.obj
 0001:00050939       ?soap_get@_ns1__GetItemByItemID@@UAEPAXPAUsoap@@PBD1@Z 00451939 f   soapC.obj
 0001:0005096f       ?soap_get__ns1__GetItemByItemID@@YAPAV_ns1__GetItemByItemID@@PAUsoap@@PAV1@PBD2@Z 0045196f f   soapC.obj
 0001:000509b3       ?soap_instantiate__ns1__GetItemByItemID@@YAPAV_ns1__GetItemByItemID@@PAUsoap@@HPBD1PAI@Z 004519b3 f   soapC.obj
 0001:00050c3f       ?soap_copy__ns1__GetItemByItemID@@YAXPAUsoap@@HHPAXIPBXI@Z 00451c3f f   soapC.obj
 0001:00050cd7       ?soap_default@_ns1__GetItemByCodeResponse@@UAEXPAUsoap@@@Z 00451cd7 f   soapC.obj
 0001:00050cfe       ?soap_serialize@_ns1__GetItemByCodeResponse@@UBEXPAUsoap@@@Z 00451cfe f   soapC.obj
 0001:00050d2f       ?soap_out@_ns1__GetItemByCodeResponse@@UBEHPAUsoap@@PBDH1@Z 00451d2f f   soapC.obj
 0001:00050d69       ?soap_out__ns1__GetItemByCodeResponse@@YAHPAUsoap@@PBDHPBV_ns1__GetItemByCodeResponse@@1@Z 00451d69 f   soapC.obj
 0001:00050e07       ?soap_in@_ns1__GetItemByCodeResponse@@UAEPAXPAUsoap@@PBD1@Z 00451e07 f   soapC.obj
 0001:00050e3d       ?soap_in__ns1__GetItemByCodeResponse@@YAPAV_ns1__GetItemByCodeResponse@@PAUsoap@@PBDPAV1@1@Z 00451e3d f   soapC.obj
 0001:0005105f       ?soap_put@_ns1__GetItemByCodeResponse@@UBEHPAUsoap@@PBD1@Z 0045205f f   soapC.obj
 0001:00051100       ?soap_get@_ns1__GetItemByCodeResponse@@UAEPAXPAUsoap@@PBD1@Z 00452100 f   soapC.obj
 0001:00051136       ?soap_get__ns1__GetItemByCodeResponse@@YAPAV_ns1__GetItemByCodeResponse@@PAUsoap@@PAV1@PBD2@Z 00452136 f   soapC.obj
 0001:0005117a       ?soap_instantiate__ns1__GetItemByCodeResponse@@YAPAV_ns1__GetItemByCodeResponse@@PAUsoap@@HPBD1PAI@Z 0045217a f   soapC.obj
 0001:00051406       ?soap_copy__ns1__GetItemByCodeResponse@@YAXPAUsoap@@HHPAXIPBXI@Z 00452406 f   soapC.obj
 0001:0005149e       ?soap_default@_ns1__GetItemByCode@@UAEXPAUsoap@@@Z 0045249e f   soapC.obj
 0001:000514d8       ?soap_serialize@_ns1__GetItemByCode@@UBEXPAUsoap@@@Z 004524d8 f   soapC.obj
 0001:00051509       ?soap_out@_ns1__GetItemByCode@@UBEHPAUsoap@@PBDH1@Z 00452509 f   soapC.obj
 0001:00051543       ?soap_out__ns1__GetItemByCode@@YAHPAUsoap@@PBDHPBV_ns1__GetItemByCode@@1@Z 00452543 f   soapC.obj
 0001:000515c7       ?soap_in@_ns1__GetItemByCode@@UAEPAXPAUsoap@@PBD1@Z 004525c7 f   soapC.obj
 0001:000515fd       ?soap_in__ns1__GetItemByCode@@YAPAV_ns1__GetItemByCode@@PAUsoap@@PBDPAV1@1@Z 004525fd f   soapC.obj
 0001:0005181a       ?soap_put@_ns1__GetItemByCode@@UBEHPAUsoap@@PBD1@Z 0045281a f   soapC.obj
 0001:000518bb       ?soap_get@_ns1__GetItemByCode@@UAEPAXPAUsoap@@PBD1@Z 004528bb f   soapC.obj
 0001:000518f1       ?soap_get__ns1__GetItemByCode@@YAPAV_ns1__GetItemByCode@@PAUsoap@@PAV1@PBD2@Z 004528f1 f   soapC.obj
 0001:00051935       ?soap_instantiate__ns1__GetItemByCode@@YAPAV_ns1__GetItemByCode@@PAUsoap@@HPBD1PAI@Z 00452935 f   soapC.obj
 0001:00051bc1       ?soap_copy__ns1__GetItemByCode@@YAXPAUsoap@@HHPAXIPBXI@Z 00452bc1 f   soapC.obj
 0001:00051c59       ?soap_default@ns1__ArrayOfAwardLotteryPrizeInfo@@UAEXPAUsoap@@@Z 00452c59 f   soapC.obj
 0001:00051c8a       ?soap_serialize@ns1__ArrayOfAwardLotteryPrizeInfo@@UBEXPAUsoap@@@Z 00452c8a f   soapC.obj
 0001:00051cf2       ?soap_out@ns1__ArrayOfAwardLotteryPrizeInfo@@UBEHPAUsoap@@PBDH1@Z 00452cf2 f   soapC.obj
 0001:00051d2c       ?soap_out_ns1__ArrayOfAwardLotteryPrizeInfo@@YAHPAUsoap@@PBDHPBVns1__ArrayOfAwardLotteryPrizeInfo@@1@Z 00452d2c f   soapC.obj
 0001:00051deb       ?soap_in@ns1__ArrayOfAwardLotteryPrizeInfo@@UAEPAXPAUsoap@@PBD1@Z 00452deb f   soapC.obj
 0001:00051e21       ?soap_in_ns1__ArrayOfAwardLotteryPrizeInfo@@YAPAVns1__ArrayOfAwardLotteryPrizeInfo@@PAUsoap@@PBDPAV1@1@Z 00452e21 f   soapC.obj
 0001:0005211f       ?soap_put@ns1__ArrayOfAwardLotteryPrizeInfo@@UBEHPAUsoap@@PBD1@Z 0045311f f   soapC.obj
 0001:000521c0       ?soap_get@ns1__ArrayOfAwardLotteryPrizeInfo@@UAEPAXPAUsoap@@PBD1@Z 004531c0 f   soapC.obj
 0001:000521f6       ?soap_get_ns1__ArrayOfAwardLotteryPrizeInfo@@YAPAVns1__ArrayOfAwardLotteryPrizeInfo@@PAUsoap@@PAV1@PBD2@Z 004531f6 f   soapC.obj
 0001:0005223a       ?soap_instantiate_ns1__ArrayOfAwardLotteryPrizeInfo@@YAPAVns1__ArrayOfAwardLotteryPrizeInfo@@PAUsoap@@HPBD1PAI@Z 0045323a f   soapC.obj
 0001:000524c6       ?soap_copy_ns1__ArrayOfAwardLotteryPrizeInfo@@YAXPAUsoap@@HHPAXIPBXI@Z 004534c6 f   soapC.obj
 0001:0005255e       ?soap_default@ns1__AwardLotteryPrizeInfo@@UAEXPAUsoap@@@Z 0045355e f   soapC.obj
 0001:0005260a       ?soap_serialize@ns1__AwardLotteryPrizeInfo@@UBEXPAUsoap@@@Z 0045360a f   soapC.obj
 0001:00052674       ?soap_out@ns1__AwardLotteryPrizeInfo@@UBEHPAUsoap@@PBDH1@Z 00453674 f   soapC.obj
 0001:000526ae       ?soap_out_ns1__AwardLotteryPrizeInfo@@YAHPAUsoap@@PBDHPBVns1__AwardLotteryPrizeInfo@@1@Z 004536ae f   soapC.obj
 0001:000528b1       ?soap_in@ns1__AwardLotteryPrizeInfo@@UAEPAXPAUsoap@@PBD1@Z 004538b1 f   soapC.obj
 0001:000528e7       ?soap_in_ns1__AwardLotteryPrizeInfo@@YAPAVns1__AwardLotteryPrizeInfo@@PAUsoap@@PBDPAV1@1@Z 004538e7 f   soapC.obj
 0001:00052d32       ?soap_put@ns1__AwardLotteryPrizeInfo@@UBEHPAUsoap@@PBD1@Z 00453d32 f   soapC.obj
 0001:00052dd3       ?soap_get@ns1__AwardLotteryPrizeInfo@@UAEPAXPAUsoap@@PBD1@Z 00453dd3 f   soapC.obj
 0001:00052e09       ?soap_get_ns1__AwardLotteryPrizeInfo@@YAPAVns1__AwardLotteryPrizeInfo@@PAUsoap@@PAV1@PBD2@Z 00453e09 f   soapC.obj
 0001:00052e4d       ?soap_instantiate_ns1__AwardLotteryPrizeInfo@@YAPAVns1__AwardLotteryPrizeInfo@@PAUsoap@@HPBD1PAI@Z 00453e4d f   soapC.obj
 0001:000530d9       ?soap_copy_ns1__AwardLotteryPrizeInfo@@YAXPAUsoap@@HHPAXIPBXI@Z 004540d9 f   soapC.obj
 0001:00053171       ?soap_default@ns1__AwardInfo@@UAEXPAUsoap@@@Z 00454171 f   soapC.obj
 0001:000532c8       ?soap_serialize@ns1__AwardInfo@@UBEXPAUsoap@@@Z 004542c8 f   soapC.obj
 0001:00053345       ?soap_out@ns1__AwardInfo@@UBEHPAUsoap@@PBDH1@Z 00454345 f   soapC.obj
 0001:0005337f       ?soap_out_ns1__AwardInfo@@YAHPAUsoap@@PBDHPBVns1__AwardInfo@@1@Z 0045437f f   soapC.obj
 0001:0005370d       ?soap_in@ns1__AwardInfo@@UAEPAXPAUsoap@@PBD1@Z 0045470d f   soapC.obj
 0001:00053743       ?soap_in_ns1__AwardInfo@@YAPAVns1__AwardInfo@@PAUsoap@@PBDPAV1@1@Z 00454743 f   soapC.obj
 0001:00053e43       ?soap_put@ns1__AwardInfo@@UBEHPAUsoap@@PBD1@Z 00454e43 f   soapC.obj
 0001:00053ee4       ?soap_get@ns1__AwardInfo@@UAEPAXPAUsoap@@PBD1@Z 00454ee4 f   soapC.obj
 0001:00053f1a       ?soap_get_ns1__AwardInfo@@YAPAVns1__AwardInfo@@PAUsoap@@PAV1@PBD2@Z 00454f1a f   soapC.obj
 0001:00053f5e       ?soap_instantiate_ns1__AwardInfo@@YAPAVns1__AwardInfo@@PAUsoap@@HPBD1PAI@Z 00454f5e f   soapC.obj
 0001:000541ea       ?soap_copy_ns1__AwardInfo@@YAXPAUsoap@@HHPAXIPBXI@Z 004551ea f   soapC.obj
 0001:00054282       ?soap_default@ns1__AwardItemInfo@@UAEXPAUsoap@@@Z 00455282 f   soapC.obj
 0001:000543c6       ?soap_serialize@ns1__AwardItemInfo@@UBEXPAUsoap@@@Z 004553c6 f   soapC.obj
 0001:00054443       ?soap_out@ns1__AwardItemInfo@@UBEHPAUsoap@@PBDH1@Z 00455443 f   soapC.obj
 0001:0005447d       ?soap_out_ns1__AwardItemInfo@@YAHPAUsoap@@PBDHPBVns1__AwardItemInfo@@1@Z 0045547d f   soapC.obj
 0001:000547da       ?soap_in@ns1__AwardItemInfo@@UAEPAXPAUsoap@@PBD1@Z 004557da f   soapC.obj
 0001:00054810       ?soap_in_ns1__AwardItemInfo@@YAPAVns1__AwardItemInfo@@PAUsoap@@PBDPAV1@1@Z 00455810 f   soapC.obj
 0001:00054ec2       ?soap_put@ns1__AwardItemInfo@@UBEHPAUsoap@@PBD1@Z 00455ec2 f   soapC.obj
 0001:00054f63       ?soap_get@ns1__AwardItemInfo@@UAEPAXPAUsoap@@PBD1@Z 00455f63 f   soapC.obj
 0001:00054f99       ?soap_get_ns1__AwardItemInfo@@YAPAVns1__AwardItemInfo@@PAUsoap@@PAV1@PBD2@Z 00455f99 f   soapC.obj
 0001:00054fdd       ?soap_instantiate_ns1__AwardItemInfo@@YAPAVns1__AwardItemInfo@@PAUsoap@@HPBD1PAI@Z 00455fdd f   soapC.obj
 0001:00055269       ?soap_copy_ns1__AwardItemInfo@@YAXPAUsoap@@HHPAXIPBXI@Z 00456269 f   soapC.obj
 0001:00055301       ?soap_default@ns1__ArrayOfAwardItemInfo@@UAEXPAUsoap@@@Z 00456301 f   soapC.obj
 0001:00055332       ?soap_serialize@ns1__ArrayOfAwardItemInfo@@UBEXPAUsoap@@@Z 00456332 f   soapC.obj
 0001:0005539a       ?soap_out@ns1__ArrayOfAwardItemInfo@@UBEHPAUsoap@@PBDH1@Z 0045639a f   soapC.obj
 0001:000553d4       ?soap_out_ns1__ArrayOfAwardItemInfo@@YAHPAUsoap@@PBDHPBVns1__ArrayOfAwardItemInfo@@1@Z 004563d4 f   soapC.obj
 0001:00055493       ?soap_in@ns1__ArrayOfAwardItemInfo@@UAEPAXPAUsoap@@PBD1@Z 00456493 f   soapC.obj
 0001:000554c9       ?soap_in_ns1__ArrayOfAwardItemInfo@@YAPAVns1__ArrayOfAwardItemInfo@@PAUsoap@@PBDPAV1@1@Z 004564c9 f   soapC.obj
 0001:000557c7       ?soap_put@ns1__ArrayOfAwardItemInfo@@UBEHPAUsoap@@PBD1@Z 004567c7 f   soapC.obj
 0001:00055868       ?soap_get@ns1__ArrayOfAwardItemInfo@@UAEPAXPAUsoap@@PBD1@Z 00456868 f   soapC.obj
 0001:0005589e       ?soap_get_ns1__ArrayOfAwardItemInfo@@YAPAVns1__ArrayOfAwardItemInfo@@PAUsoap@@PAV1@PBD2@Z 0045689e f   soapC.obj
 0001:000558e2       ?soap_instantiate_ns1__ArrayOfAwardItemInfo@@YAPAVns1__ArrayOfAwardItemInfo@@PAUsoap@@HPBD1PAI@Z 004568e2 f   soapC.obj
 0001:00055b6e       ?soap_copy_ns1__ArrayOfAwardItemInfo@@YAXPAUsoap@@HHPAXIPBXI@Z 00456b6e f   soapC.obj
 0001:00055c06       ?soap_default@ns1__ItemInfo@@UAEXPAUsoap@@@Z 00456c06 f   soapC.obj
 0001:00055edc       ?soap_serialize@ns1__ItemInfo@@UBEXPAUsoap@@@Z 00456edc f   soapC.obj
 0001:00055ff1       ?soap_out@ns1__ItemInfo@@UBEHPAUsoap@@PBDH1@Z 00456ff1 f   soapC.obj
 0001:0005602b       ?soap_out_ns1__ItemInfo@@YAHPAUsoap@@PBDHPBVns1__ItemInfo@@1@Z 0045702b f   soapC.obj
 0001:0005678d       ?soap_in@ns1__ItemInfo@@UAEPAXPAUsoap@@PBD1@Z 0045778d f   soapC.obj
 0001:000567c3       ?soap_in_ns1__ItemInfo@@YAPAVns1__ItemInfo@@PAUsoap@@PBDPAV1@1@Z 004577c3 f   soapC.obj
 0001:00057565       ?soap_put@ns1__ItemInfo@@UBEHPAUsoap@@PBD1@Z 00458565 f   soapC.obj
 0001:00057606       ?soap_get@ns1__ItemInfo@@UAEPAXPAUsoap@@PBD1@Z 00458606 f   soapC.obj
 0001:0005763c       ?soap_get_ns1__ItemInfo@@YAPAVns1__ItemInfo@@PAUsoap@@PAV1@PBD2@Z 0045863c f   soapC.obj
 0001:00057680       ?soap_instantiate_ns1__ItemInfo@@YAPAVns1__ItemInfo@@PAUsoap@@HPBD1PAI@Z 00458680 f   soapC.obj
 0001:00057921       ?soap_copy_ns1__ItemInfo@@YAXPAUsoap@@HHPAXIPBXI@Z 00458921 f   soapC.obj
 0001:000579b9       ?soap_default_SOAP_ENV__Fault@@YAXPAUsoap@@PAUSOAP_ENV__Fault@@@Z 004589b9 f   soapC.obj
 0001:00057a49       ?soap_serialize_SOAP_ENV__Fault@@YAXPAUsoap@@PBUSOAP_ENV__Fault@@@Z 00458a49 f   soapC.obj
 0001:00057afd       ?soap_out_SOAP_ENV__Fault@@YAHPAUsoap@@PBDHPBUSOAP_ENV__Fault@@1@Z 00458afd f   soapC.obj
 0001:00057d25       ?soap_in_SOAP_ENV__Fault@@YAPAUSOAP_ENV__Fault@@PAUsoap@@PBDPAU1@1@Z 00458d25 f   soapC.obj
 0001:0005815f       ?soap_put_SOAP_ENV__Fault@@YAHPAUsoap@@PBUSOAP_ENV__Fault@@PBD2@Z 0045915f f   soapC.obj
 0001:000581ea       ?soap_get_SOAP_ENV__Fault@@YAPAUSOAP_ENV__Fault@@PAUsoap@@PAU1@PBD2@Z 004591ea f   soapC.obj
 0001:0005822e       ?soap_instantiate_SOAP_ENV__Fault@@YAPAUSOAP_ENV__Fault@@PAUsoap@@HPBD1PAI@Z 0045922e f   soapC.obj
 0001:0005841c       ?soap_copy_SOAP_ENV__Fault@@YAXPAUsoap@@HHPAXIPBXI@Z 0045941c f   soapC.obj
 0001:000584b7       ?soap_default_SOAP_ENV__Reason@@YAXPAUsoap@@PAUSOAP_ENV__Reason@@@Z 004594b7 f   soapC.obj
 0001:000584d3       ?soap_serialize_SOAP_ENV__Reason@@YAXPAUsoap@@PBUSOAP_ENV__Reason@@@Z 004594d3 f   soapC.obj
 0001:000584ef       ?soap_out_SOAP_ENV__Reason@@YAHPAUsoap@@PBDHPBUSOAP_ENV__Reason@@1@Z 004594ef f   soapC.obj
 0001:00058593       ?soap_in_SOAP_ENV__Reason@@YAPAUSOAP_ENV__Reason@@PAUsoap@@PBDPAU1@1@Z 00459593 f   soapC.obj
 0001:00058742       ?soap_put_SOAP_ENV__Reason@@YAHPAUsoap@@PBUSOAP_ENV__Reason@@PBD2@Z 00459742 f   soapC.obj
 0001:000587cd       ?soap_get_SOAP_ENV__Reason@@YAPAUSOAP_ENV__Reason@@PAUsoap@@PAU1@PBD2@Z 004597cd f   soapC.obj
 0001:00058811       ?soap_instantiate_SOAP_ENV__Reason@@YAPAUSOAP_ENV__Reason@@PAUsoap@@HPBD1PAI@Z 00459811 f   soapC.obj
 0001:000589ff       ?soap_copy_SOAP_ENV__Reason@@YAXPAUsoap@@HHPAXIPBXI@Z 004599ff f   soapC.obj
 0001:00058a95       ?soap_default_SOAP_ENV__Detail@@YAXPAUsoap@@PAUSOAP_ENV__Detail@@@Z 00459a95 f   soapC.obj
 0001:00058ab7       ?soap_serialize_SOAP_ENV__Detail@@YAXPAUsoap@@PBUSOAP_ENV__Detail@@@Z 00459ab7 f   soapC.obj
 0001:00058add       ?soap_out_SOAP_ENV__Detail@@YAHPAUsoap@@PBDHPBUSOAP_ENV__Detail@@1@Z 00459add f   soapC.obj
 0001:00058b7a       ?soap_in_SOAP_ENV__Detail@@YAPAUSOAP_ENV__Detail@@PAUsoap@@PBDPAU1@1@Z 00459b7a f   soapC.obj
 0001:00058d74       ?soap_put_SOAP_ENV__Detail@@YAHPAUsoap@@PBUSOAP_ENV__Detail@@PBD2@Z 00459d74 f   soapC.obj
 0001:00058dff       ?soap_get_SOAP_ENV__Detail@@YAPAUSOAP_ENV__Detail@@PAUsoap@@PAU1@PBD2@Z 00459dff f   soapC.obj
 0001:00058e43       ?soap_instantiate_SOAP_ENV__Detail@@YAPAUSOAP_ENV__Detail@@PAUsoap@@HPBD1PAI@Z 00459e43 f   soapC.obj
 0001:00059031       ?soap_copy_SOAP_ENV__Detail@@YAXPAUsoap@@HHPAXIPBXI@Z 0045a031 f   soapC.obj
 0001:000590d3       ?soap_default_SOAP_ENV__Code@@YAXPAUsoap@@PAUSOAP_ENV__Code@@@Z 0045a0d3 f   soapC.obj
 0001:000590f9       ?soap_serialize_SOAP_ENV__Code@@YAXPAUsoap@@PBUSOAP_ENV__Code@@@Z 0045a0f9 f   soapC.obj
 0001:00059128       ?soap_out_SOAP_ENV__Code@@YAHPAUsoap@@PBDHPBUSOAP_ENV__Code@@1@Z 0045a128 f   soapC.obj
 0001:000591f9       ?soap_in_SOAP_ENV__Code@@YAPAUSOAP_ENV__Code@@PAUsoap@@PBDPAU1@1@Z 0045a1f9 f   soapC.obj
 0001:000593f9       ?soap_put_SOAP_ENV__Code@@YAHPAUsoap@@PBUSOAP_ENV__Code@@PBD2@Z 0045a3f9 f   soapC.obj
 0001:00059484       ?soap_get_SOAP_ENV__Code@@YAPAUSOAP_ENV__Code@@PAUsoap@@PAU1@PBD2@Z 0045a484 f   soapC.obj
 0001:000594c8       ?soap_instantiate_SOAP_ENV__Code@@YAPAUSOAP_ENV__Code@@PAUsoap@@HPBD1PAI@Z 0045a4c8 f   soapC.obj
 0001:000596b6       ?soap_copy_SOAP_ENV__Code@@YAXPAUsoap@@HHPAXIPBXI@Z 0045a6b6 f   soapC.obj
 0001:00059752       ?soap_default_SOAP_ENV__Header@@YAXPAUsoap@@PAUSOAP_ENV__Header@@@Z 0045a752 f   soapC.obj
 0001:00059757       ?soap_serialize_SOAP_ENV__Header@@YAXPAUsoap@@PBUSOAP_ENV__Header@@@Z 0045a757 f   soapC.obj
 0001:0005975c       ?soap_out_SOAP_ENV__Header@@YAHPAUsoap@@PBDHPBUSOAP_ENV__Header@@1@Z 0045a75c f   soapC.obj
 0001:000597b2       ?soap_in_SOAP_ENV__Header@@YAPAUSOAP_ENV__Header@@PAUsoap@@PBDPAU1@1@Z 0045a7b2 f   soapC.obj
 0001:000598fb       ?soap_put_SOAP_ENV__Header@@YAHPAUsoap@@PBUSOAP_ENV__Header@@PBD2@Z 0045a8fb f   soapC.obj
 0001:00059986       ?soap_get_SOAP_ENV__Header@@YAPAUSOAP_ENV__Header@@PAUsoap@@PAU1@PBD2@Z 0045a986 f   soapC.obj
 0001:000599ca       ?soap_instantiate_SOAP_ENV__Header@@YAPAUSOAP_ENV__Header@@PAUsoap@@HPBD1PAI@Z 0045a9ca f   soapC.obj
 0001:00059bb2       ?soap_copy_SOAP_ENV__Header@@YAXPAUsoap@@HHPAXIPBXI@Z 0045abb2 f   soapC.obj
 0001:00059c48       ?soap_default___ns1__GetLotteryWinningList_@@YAXPAUsoap@@PAU__ns1__GetLotteryWinningList_@@@Z 0045ac48 f   soapC.obj
 0001:00059c56       ?soap_serialize___ns1__GetLotteryWinningList_@@YAXPAUsoap@@PBU__ns1__GetLotteryWinningList_@@@Z 0045ac56 f   soapC.obj
 0001:00059c72       ?soap_out___ns1__GetLotteryWinningList_@@YAHPAUsoap@@PBDHPBU__ns1__GetLotteryWinningList_@@1@Z 0045ac72 f   soapC.obj
 0001:00059cab       ?soap_in___ns1__GetLotteryWinningList_@@YAPAU__ns1__GetLotteryWinningList_@@PAUsoap@@PBDPAU1@1@Z 0045acab f   soapC.obj
 0001:00059dbc       ?soap_put___ns1__GetLotteryWinningList_@@YAHPAUsoap@@PBU__ns1__GetLotteryWinningList_@@PBD2@Z 0045adbc f   soapC.obj
 0001:00059e27       ?soap_get___ns1__GetLotteryWinningList_@@YAPAU__ns1__GetLotteryWinningList_@@PAUsoap@@PAU1@PBD2@Z 0045ae27 f   soapC.obj
 0001:00059e6b       ?soap_instantiate___ns1__GetLotteryWinningList_@@YAPAU__ns1__GetLotteryWinningList_@@PAUsoap@@HPBD1PAI@Z 0045ae6b f   soapC.obj
 0001:0005a059       ?soap_copy___ns1__GetLotteryWinningList_@@YAXPAUsoap@@HHPAXIPBXI@Z 0045b059 f   soapC.obj
 0001:0005a0ef       ?soap_default___ns1__GetLotteryWinningTop_@@YAXPAUsoap@@PAU__ns1__GetLotteryWinningTop_@@@Z 0045b0ef f   soapC.obj
 0001:0005a0fd       ?soap_serialize___ns1__GetLotteryWinningTop_@@YAXPAUsoap@@PBU__ns1__GetLotteryWinningTop_@@@Z 0045b0fd f   soapC.obj
 0001:0005a119       ?soap_out___ns1__GetLotteryWinningTop_@@YAHPAUsoap@@PBDHPBU__ns1__GetLotteryWinningTop_@@1@Z 0045b119 f   soapC.obj
 0001:0005a152       ?soap_in___ns1__GetLotteryWinningTop_@@YAPAU__ns1__GetLotteryWinningTop_@@PAUsoap@@PBDPAU1@1@Z 0045b152 f   soapC.obj
 0001:0005a263       ?soap_put___ns1__GetLotteryWinningTop_@@YAHPAUsoap@@PBU__ns1__GetLotteryWinningTop_@@PBD2@Z 0045b263 f   soapC.obj
 0001:0005a2ce       ?soap_get___ns1__GetLotteryWinningTop_@@YAPAU__ns1__GetLotteryWinningTop_@@PAUsoap@@PAU1@PBD2@Z 0045b2ce f   soapC.obj
 0001:0005a312       ?soap_instantiate___ns1__GetLotteryWinningTop_@@YAPAU__ns1__GetLotteryWinningTop_@@PAUsoap@@HPBD1PAI@Z 0045b312 f   soapC.obj
 0001:0005a500       ?soap_copy___ns1__GetLotteryWinningTop_@@YAXPAUsoap@@HHPAXIPBXI@Z 0045b500 f   soapC.obj
 0001:0005a596       ?soap_default___ns1__GetLotteryPrize_@@YAXPAUsoap@@PAU__ns1__GetLotteryPrize_@@@Z 0045b596 f   soapC.obj
 0001:0005a5a4       ?soap_serialize___ns1__GetLotteryPrize_@@YAXPAUsoap@@PBU__ns1__GetLotteryPrize_@@@Z 0045b5a4 f   soapC.obj
 0001:0005a5c0       ?soap_out___ns1__GetLotteryPrize_@@YAHPAUsoap@@PBDHPBU__ns1__GetLotteryPrize_@@1@Z 0045b5c0 f   soapC.obj
 0001:0005a5f9       ?soap_in___ns1__GetLotteryPrize_@@YAPAU__ns1__GetLotteryPrize_@@PAUsoap@@PBDPAU1@1@Z 0045b5f9 f   soapC.obj
 0001:0005a70a       ?soap_put___ns1__GetLotteryPrize_@@YAHPAUsoap@@PBU__ns1__GetLotteryPrize_@@PBD2@Z 0045b70a f   soapC.obj
 0001:0005a775       ?soap_get___ns1__GetLotteryPrize_@@YAPAU__ns1__GetLotteryPrize_@@PAUsoap@@PAU1@PBD2@Z 0045b775 f   soapC.obj
 0001:0005a7b9       ?soap_instantiate___ns1__GetLotteryPrize_@@YAPAU__ns1__GetLotteryPrize_@@PAUsoap@@HPBD1PAI@Z 0045b7b9 f   soapC.obj
 0001:0005a9a7       ?soap_copy___ns1__GetLotteryPrize_@@YAXPAUsoap@@HHPAXIPBXI@Z 0045b9a7 f   soapC.obj
 0001:0005aa3d       ?soap_default___ns1__Lottery_@@YAXPAUsoap@@PAU__ns1__Lottery_@@@Z 0045ba3d f   soapC.obj
 0001:0005aa4b       ?soap_serialize___ns1__Lottery_@@YAXPAUsoap@@PBU__ns1__Lottery_@@@Z 0045ba4b f   soapC.obj
 0001:0005aa67       ?soap_out___ns1__Lottery_@@YAHPAUsoap@@PBDHPBU__ns1__Lottery_@@1@Z 0045ba67 f   soapC.obj
 0001:0005aaa0       ?soap_in___ns1__Lottery_@@YAPAU__ns1__Lottery_@@PAUsoap@@PBDPAU1@1@Z 0045baa0 f   soapC.obj
 0001:0005abb1       ?soap_put___ns1__Lottery_@@YAHPAUsoap@@PBU__ns1__Lottery_@@PBD2@Z 0045bbb1 f   soapC.obj
 0001:0005ac1c       ?soap_get___ns1__Lottery_@@YAPAU__ns1__Lottery_@@PAUsoap@@PAU1@PBD2@Z 0045bc1c f   soapC.obj
 0001:0005ac60       ?soap_instantiate___ns1__Lottery_@@YAPAU__ns1__Lottery_@@PAUsoap@@HPBD1PAI@Z 0045bc60 f   soapC.obj
 0001:0005ae4e       ?soap_copy___ns1__Lottery_@@YAXPAUsoap@@HHPAXIPBXI@Z 0045be4e f   soapC.obj
 0001:0005aee4       ?soap_default___ns1__GetAwardInfo_@@YAXPAUsoap@@PAU__ns1__GetAwardInfo_@@@Z 0045bee4 f   soapC.obj
 0001:0005aef2       ?soap_serialize___ns1__GetAwardInfo_@@YAXPAUsoap@@PBU__ns1__GetAwardInfo_@@@Z 0045bef2 f   soapC.obj
 0001:0005af0e       ?soap_out___ns1__GetAwardInfo_@@YAHPAUsoap@@PBDHPBU__ns1__GetAwardInfo_@@1@Z 0045bf0e f   soapC.obj
 0001:0005af47       ?soap_in___ns1__GetAwardInfo_@@YAPAU__ns1__GetAwardInfo_@@PAUsoap@@PBDPAU1@1@Z 0045bf47 f   soapC.obj
 0001:0005b058       ?soap_put___ns1__GetAwardInfo_@@YAHPAUsoap@@PBU__ns1__GetAwardInfo_@@PBD2@Z 0045c058 f   soapC.obj
 0001:0005b0c3       ?soap_get___ns1__GetAwardInfo_@@YAPAU__ns1__GetAwardInfo_@@PAUsoap@@PAU1@PBD2@Z 0045c0c3 f   soapC.obj
 0001:0005b107       ?soap_instantiate___ns1__GetAwardInfo_@@YAPAU__ns1__GetAwardInfo_@@PAUsoap@@HPBD1PAI@Z 0045c107 f   soapC.obj
 0001:0005b2f5       ?soap_copy___ns1__GetAwardInfo_@@YAXPAUsoap@@HHPAXIPBXI@Z 0045c2f5 f   soapC.obj
 0001:0005b38b       ?soap_default___ns1__GetAwardItem_@@YAXPAUsoap@@PAU__ns1__GetAwardItem_@@@Z 0045c38b f   soapC.obj
 0001:0005b399       ?soap_serialize___ns1__GetAwardItem_@@YAXPAUsoap@@PBU__ns1__GetAwardItem_@@@Z 0045c399 f   soapC.obj
 0001:0005b3b5       ?soap_out___ns1__GetAwardItem_@@YAHPAUsoap@@PBDHPBU__ns1__GetAwardItem_@@1@Z 0045c3b5 f   soapC.obj
 0001:0005b3ee       ?soap_in___ns1__GetAwardItem_@@YAPAU__ns1__GetAwardItem_@@PAUsoap@@PBDPAU1@1@Z 0045c3ee f   soapC.obj
 0001:0005b4ff       ?soap_put___ns1__GetAwardItem_@@YAHPAUsoap@@PBU__ns1__GetAwardItem_@@PBD2@Z 0045c4ff f   soapC.obj
 0001:0005b56a       ?soap_get___ns1__GetAwardItem_@@YAPAU__ns1__GetAwardItem_@@PAUsoap@@PAU1@PBD2@Z 0045c56a f   soapC.obj
 0001:0005b5ae       ?soap_instantiate___ns1__GetAwardItem_@@YAPAU__ns1__GetAwardItem_@@PAUsoap@@HPBD1PAI@Z 0045c5ae f   soapC.obj
 0001:0005b79c       ?soap_copy___ns1__GetAwardItem_@@YAXPAUsoap@@HHPAXIPBXI@Z 0045c79c f   soapC.obj
 0001:0005b832       ?soap_default___ns1__AwardItem_@@YAXPAUsoap@@PAU__ns1__AwardItem_@@@Z 0045c832 f   soapC.obj
 0001:0005b840       ?soap_serialize___ns1__AwardItem_@@YAXPAUsoap@@PBU__ns1__AwardItem_@@@Z 0045c840 f   soapC.obj
 0001:0005b85c       ?soap_out___ns1__AwardItem_@@YAHPAUsoap@@PBDHPBU__ns1__AwardItem_@@1@Z 0045c85c f   soapC.obj
 0001:0005b895       ?soap_in___ns1__AwardItem_@@YAPAU__ns1__AwardItem_@@PAUsoap@@PBDPAU1@1@Z 0045c895 f   soapC.obj
 0001:0005b9a6       ?soap_put___ns1__AwardItem_@@YAHPAUsoap@@PBU__ns1__AwardItem_@@PBD2@Z 0045c9a6 f   soapC.obj
 0001:0005ba11       ?soap_get___ns1__AwardItem_@@YAPAU__ns1__AwardItem_@@PAUsoap@@PAU1@PBD2@Z 0045ca11 f   soapC.obj
 0001:0005ba55       ?soap_instantiate___ns1__AwardItem_@@YAPAU__ns1__AwardItem_@@PAUsoap@@HPBD1PAI@Z 0045ca55 f   soapC.obj
 0001:0005bc43       ?soap_copy___ns1__AwardItem_@@YAXPAUsoap@@HHPAXIPBXI@Z 0045cc43 f   soapC.obj
 0001:0005bcd9       ?soap_default___ns1__GetClothingID_@@YAXPAUsoap@@PAU__ns1__GetClothingID_@@@Z 0045ccd9 f   soapC.obj
 0001:0005bce7       ?soap_serialize___ns1__GetClothingID_@@YAXPAUsoap@@PBU__ns1__GetClothingID_@@@Z 0045cce7 f   soapC.obj
 0001:0005bd03       ?soap_out___ns1__GetClothingID_@@YAHPAUsoap@@PBDHPBU__ns1__GetClothingID_@@1@Z 0045cd03 f   soapC.obj
 0001:0005bd3c       ?soap_in___ns1__GetClothingID_@@YAPAU__ns1__GetClothingID_@@PAUsoap@@PBDPAU1@1@Z 0045cd3c f   soapC.obj
 0001:0005be4d       ?soap_put___ns1__GetClothingID_@@YAHPAUsoap@@PBU__ns1__GetClothingID_@@PBD2@Z 0045ce4d f   soapC.obj
 0001:0005beb8       ?soap_get___ns1__GetClothingID_@@YAPAU__ns1__GetClothingID_@@PAUsoap@@PAU1@PBD2@Z 0045ceb8 f   soapC.obj
 0001:0005befc       ?soap_instantiate___ns1__GetClothingID_@@YAPAU__ns1__GetClothingID_@@PAUsoap@@HPBD1PAI@Z 0045cefc f   soapC.obj
 0001:0005c0ea       ?soap_copy___ns1__GetClothingID_@@YAXPAUsoap@@HHPAXIPBXI@Z 0045d0ea f   soapC.obj
 0001:0005c180       ?soap_default___ns1__GetItemValue_@@YAXPAUsoap@@PAU__ns1__GetItemValue_@@@Z 0045d180 f   soapC.obj
 0001:0005c18e       ?soap_serialize___ns1__GetItemValue_@@YAXPAUsoap@@PBU__ns1__GetItemValue_@@@Z 0045d18e f   soapC.obj
 0001:0005c1aa       ?soap_out___ns1__GetItemValue_@@YAHPAUsoap@@PBDHPBU__ns1__GetItemValue_@@1@Z 0045d1aa f   soapC.obj
 0001:0005c1e3       ?soap_in___ns1__GetItemValue_@@YAPAU__ns1__GetItemValue_@@PAUsoap@@PBDPAU1@1@Z 0045d1e3 f   soapC.obj
 0001:0005c2f4       ?soap_put___ns1__GetItemValue_@@YAHPAUsoap@@PBU__ns1__GetItemValue_@@PBD2@Z 0045d2f4 f   soapC.obj
 0001:0005c35f       ?soap_get___ns1__GetItemValue_@@YAPAU__ns1__GetItemValue_@@PAUsoap@@PAU1@PBD2@Z 0045d35f f   soapC.obj
 0001:0005c3a3       ?soap_instantiate___ns1__GetItemValue_@@YAPAU__ns1__GetItemValue_@@PAUsoap@@HPBD1PAI@Z 0045d3a3 f   soapC.obj
 0001:0005c591       ?soap_copy___ns1__GetItemValue_@@YAXPAUsoap@@HHPAXIPBXI@Z 0045d591 f   soapC.obj
 0001:0005c627       ?soap_default___ns1__GetItemByItemID_@@YAXPAUsoap@@PAU__ns1__GetItemByItemID_@@@Z 0045d627 f   soapC.obj
 0001:0005c635       ?soap_serialize___ns1__GetItemByItemID_@@YAXPAUsoap@@PBU__ns1__GetItemByItemID_@@@Z 0045d635 f   soapC.obj
 0001:0005c651       ?soap_out___ns1__GetItemByItemID_@@YAHPAUsoap@@PBDHPBU__ns1__GetItemByItemID_@@1@Z 0045d651 f   soapC.obj
 0001:0005c68a       ?soap_in___ns1__GetItemByItemID_@@YAPAU__ns1__GetItemByItemID_@@PAUsoap@@PBDPAU1@1@Z 0045d68a f   soapC.obj
 0001:0005c79b       ?soap_put___ns1__GetItemByItemID_@@YAHPAUsoap@@PBU__ns1__GetItemByItemID_@@PBD2@Z 0045d79b f   soapC.obj
 0001:0005c806       ?soap_get___ns1__GetItemByItemID_@@YAPAU__ns1__GetItemByItemID_@@PAUsoap@@PAU1@PBD2@Z 0045d806 f   soapC.obj
 0001:0005c84a       ?soap_instantiate___ns1__GetItemByItemID_@@YAPAU__ns1__GetItemByItemID_@@PAUsoap@@HPBD1PAI@Z 0045d84a f   soapC.obj
 0001:0005ca38       ?soap_copy___ns1__GetItemByItemID_@@YAXPAUsoap@@HHPAXIPBXI@Z 0045da38 f   soapC.obj
 0001:0005cace       ?soap_default___ns1__GetItemByCode_@@YAXPAUsoap@@PAU__ns1__GetItemByCode_@@@Z 0045dace f   soapC.obj
 0001:0005cadc       ?soap_serialize___ns1__GetItemByCode_@@YAXPAUsoap@@PBU__ns1__GetItemByCode_@@@Z 0045dadc f   soapC.obj
 0001:0005caf8       ?soap_out___ns1__GetItemByCode_@@YAHPAUsoap@@PBDHPBU__ns1__GetItemByCode_@@1@Z 0045daf8 f   soapC.obj
 0001:0005cb31       ?soap_in___ns1__GetItemByCode_@@YAPAU__ns1__GetItemByCode_@@PAUsoap@@PBDPAU1@1@Z 0045db31 f   soapC.obj
 0001:0005cc42       ?soap_put___ns1__GetItemByCode_@@YAHPAUsoap@@PBU__ns1__GetItemByCode_@@PBD2@Z 0045dc42 f   soapC.obj
 0001:0005ccad       ?soap_get___ns1__GetItemByCode_@@YAPAU__ns1__GetItemByCode_@@PAUsoap@@PAU1@PBD2@Z 0045dcad f   soapC.obj
 0001:0005ccf1       ?soap_instantiate___ns1__GetItemByCode_@@YAPAU__ns1__GetItemByCode_@@PAUsoap@@HPBD1PAI@Z 0045dcf1 f   soapC.obj
 0001:0005cedf       ?soap_copy___ns1__GetItemByCode_@@YAXPAUsoap@@HHPAXIPBXI@Z 0045dedf f   soapC.obj
 0001:0005cf75       ?soap_default___ns1__GetLotteryWinningList@@YAXPAUsoap@@PAU__ns1__GetLotteryWinningList@@@Z 0045df75 f   soapC.obj
 0001:0005cf83       ?soap_serialize___ns1__GetLotteryWinningList@@YAXPAUsoap@@PBU__ns1__GetLotteryWinningList@@@Z 0045df83 f   soapC.obj
 0001:0005cf9f       ?soap_out___ns1__GetLotteryWinningList@@YAHPAUsoap@@PBDHPBU__ns1__GetLotteryWinningList@@1@Z 0045df9f f   soapC.obj
 0001:0005cfd8       ?soap_in___ns1__GetLotteryWinningList@@YAPAU__ns1__GetLotteryWinningList@@PAUsoap@@PBDPAU1@1@Z 0045dfd8 f   soapC.obj
 0001:0005d0e9       ?soap_put___ns1__GetLotteryWinningList@@YAHPAUsoap@@PBU__ns1__GetLotteryWinningList@@PBD2@Z 0045e0e9 f   soapC.obj
 0001:0005d154       ?soap_get___ns1__GetLotteryWinningList@@YAPAU__ns1__GetLotteryWinningList@@PAUsoap@@PAU1@PBD2@Z 0045e154 f   soapC.obj
 0001:0005d198       ?soap_instantiate___ns1__GetLotteryWinningList@@YAPAU__ns1__GetLotteryWinningList@@PAUsoap@@HPBD1PAI@Z 0045e198 f   soapC.obj
 0001:0005d386       ?soap_copy___ns1__GetLotteryWinningList@@YAXPAUsoap@@HHPAXIPBXI@Z 0045e386 f   soapC.obj
 0001:0005d41c       ?soap_default___ns1__GetLotteryWinningTop@@YAXPAUsoap@@PAU__ns1__GetLotteryWinningTop@@@Z 0045e41c f   soapC.obj
 0001:0005d42a       ?soap_serialize___ns1__GetLotteryWinningTop@@YAXPAUsoap@@PBU__ns1__GetLotteryWinningTop@@@Z 0045e42a f   soapC.obj
 0001:0005d446       ?soap_out___ns1__GetLotteryWinningTop@@YAHPAUsoap@@PBDHPBU__ns1__GetLotteryWinningTop@@1@Z 0045e446 f   soapC.obj
 0001:0005d47f       ?soap_in___ns1__GetLotteryWinningTop@@YAPAU__ns1__GetLotteryWinningTop@@PAUsoap@@PBDPAU1@1@Z 0045e47f f   soapC.obj
 0001:0005d590       ?soap_put___ns1__GetLotteryWinningTop@@YAHPAUsoap@@PBU__ns1__GetLotteryWinningTop@@PBD2@Z 0045e590 f   soapC.obj
 0001:0005d5fb       ?soap_get___ns1__GetLotteryWinningTop@@YAPAU__ns1__GetLotteryWinningTop@@PAUsoap@@PAU1@PBD2@Z 0045e5fb f   soapC.obj
 0001:0005d63f       ?soap_instantiate___ns1__GetLotteryWinningTop@@YAPAU__ns1__GetLotteryWinningTop@@PAUsoap@@HPBD1PAI@Z 0045e63f f   soapC.obj
 0001:0005d82d       ?soap_copy___ns1__GetLotteryWinningTop@@YAXPAUsoap@@HHPAXIPBXI@Z 0045e82d f   soapC.obj
 0001:0005d8c3       ?soap_default___ns1__GetLotteryPrize@@YAXPAUsoap@@PAU__ns1__GetLotteryPrize@@@Z 0045e8c3 f   soapC.obj
 0001:0005d8d1       ?soap_serialize___ns1__GetLotteryPrize@@YAXPAUsoap@@PBU__ns1__GetLotteryPrize@@@Z 0045e8d1 f   soapC.obj
 0001:0005d8ed       ?soap_out___ns1__GetLotteryPrize@@YAHPAUsoap@@PBDHPBU__ns1__GetLotteryPrize@@1@Z 0045e8ed f   soapC.obj
 0001:0005d926       ?soap_in___ns1__GetLotteryPrize@@YAPAU__ns1__GetLotteryPrize@@PAUsoap@@PBDPAU1@1@Z 0045e926 f   soapC.obj
 0001:0005da37       ?soap_put___ns1__GetLotteryPrize@@YAHPAUsoap@@PBU__ns1__GetLotteryPrize@@PBD2@Z 0045ea37 f   soapC.obj
 0001:0005daa2       ?soap_get___ns1__GetLotteryPrize@@YAPAU__ns1__GetLotteryPrize@@PAUsoap@@PAU1@PBD2@Z 0045eaa2 f   soapC.obj
 0001:0005dae6       ?soap_instantiate___ns1__GetLotteryPrize@@YAPAU__ns1__GetLotteryPrize@@PAUsoap@@HPBD1PAI@Z 0045eae6 f   soapC.obj
 0001:0005dcd4       ?soap_copy___ns1__GetLotteryPrize@@YAXPAUsoap@@HHPAXIPBXI@Z 0045ecd4 f   soapC.obj
 0001:0005dd6a       ?soap_default___ns1__Lottery@@YAXPAUsoap@@PAU__ns1__Lottery@@@Z 0045ed6a f   soapC.obj
 0001:0005dd78       ?soap_serialize___ns1__Lottery@@YAXPAUsoap@@PBU__ns1__Lottery@@@Z 0045ed78 f   soapC.obj
 0001:0005dd94       ?soap_out___ns1__Lottery@@YAHPAUsoap@@PBDHPBU__ns1__Lottery@@1@Z 0045ed94 f   soapC.obj
 0001:0005ddcd       ?soap_in___ns1__Lottery@@YAPAU__ns1__Lottery@@PAUsoap@@PBDPAU1@1@Z 0045edcd f   soapC.obj
 0001:0005dede       ?soap_put___ns1__Lottery@@YAHPAUsoap@@PBU__ns1__Lottery@@PBD2@Z 0045eede f   soapC.obj
 0001:0005df49       ?soap_get___ns1__Lottery@@YAPAU__ns1__Lottery@@PAUsoap@@PAU1@PBD2@Z 0045ef49 f   soapC.obj
 0001:0005df8d       ?soap_instantiate___ns1__Lottery@@YAPAU__ns1__Lottery@@PAUsoap@@HPBD1PAI@Z 0045ef8d f   soapC.obj
 0001:0005e17b       ?soap_copy___ns1__Lottery@@YAXPAUsoap@@HHPAXIPBXI@Z 0045f17b f   soapC.obj
 0001:0005e211       ?soap_default___ns1__GetAwardInfo@@YAXPAUsoap@@PAU__ns1__GetAwardInfo@@@Z 0045f211 f   soapC.obj
 0001:0005e21f       ?soap_serialize___ns1__GetAwardInfo@@YAXPAUsoap@@PBU__ns1__GetAwardInfo@@@Z 0045f21f f   soapC.obj
 0001:0005e23b       ?soap_out___ns1__GetAwardInfo@@YAHPAUsoap@@PBDHPBU__ns1__GetAwardInfo@@1@Z 0045f23b f   soapC.obj
 0001:0005e274       ?soap_in___ns1__GetAwardInfo@@YAPAU__ns1__GetAwardInfo@@PAUsoap@@PBDPAU1@1@Z 0045f274 f   soapC.obj
 0001:0005e385       ?soap_put___ns1__GetAwardInfo@@YAHPAUsoap@@PBU__ns1__GetAwardInfo@@PBD2@Z 0045f385 f   soapC.obj
 0001:0005e3f0       ?soap_get___ns1__GetAwardInfo@@YAPAU__ns1__GetAwardInfo@@PAUsoap@@PAU1@PBD2@Z 0045f3f0 f   soapC.obj
 0001:0005e434       ?soap_instantiate___ns1__GetAwardInfo@@YAPAU__ns1__GetAwardInfo@@PAUsoap@@HPBD1PAI@Z 0045f434 f   soapC.obj
 0001:0005e622       ?soap_copy___ns1__GetAwardInfo@@YAXPAUsoap@@HHPAXIPBXI@Z 0045f622 f   soapC.obj
 0001:0005e6b8       ?soap_default___ns1__GetAwardItem@@YAXPAUsoap@@PAU__ns1__GetAwardItem@@@Z 0045f6b8 f   soapC.obj
 0001:0005e6c6       ?soap_serialize___ns1__GetAwardItem@@YAXPAUsoap@@PBU__ns1__GetAwardItem@@@Z 0045f6c6 f   soapC.obj
 0001:0005e6e2       ?soap_out___ns1__GetAwardItem@@YAHPAUsoap@@PBDHPBU__ns1__GetAwardItem@@1@Z 0045f6e2 f   soapC.obj
 0001:0005e71b       ?soap_in___ns1__GetAwardItem@@YAPAU__ns1__GetAwardItem@@PAUsoap@@PBDPAU1@1@Z 0045f71b f   soapC.obj
 0001:0005e82c       ?soap_put___ns1__GetAwardItem@@YAHPAUsoap@@PBU__ns1__GetAwardItem@@PBD2@Z 0045f82c f   soapC.obj
 0001:0005e897       ?soap_get___ns1__GetAwardItem@@YAPAU__ns1__GetAwardItem@@PAUsoap@@PAU1@PBD2@Z 0045f897 f   soapC.obj
 0001:0005e8db       ?soap_instantiate___ns1__GetAwardItem@@YAPAU__ns1__GetAwardItem@@PAUsoap@@HPBD1PAI@Z 0045f8db f   soapC.obj
 0001:0005eac9       ?soap_copy___ns1__GetAwardItem@@YAXPAUsoap@@HHPAXIPBXI@Z 0045fac9 f   soapC.obj
 0001:0005eb5f       ?soap_default___ns1__AwardItem@@YAXPAUsoap@@PAU__ns1__AwardItem@@@Z 0045fb5f f   soapC.obj
 0001:0005eb6d       ?soap_serialize___ns1__AwardItem@@YAXPAUsoap@@PBU__ns1__AwardItem@@@Z 0045fb6d f   soapC.obj
 0001:0005eb89       ?soap_out___ns1__AwardItem@@YAHPAUsoap@@PBDHPBU__ns1__AwardItem@@1@Z 0045fb89 f   soapC.obj
 0001:0005ebc2       ?soap_in___ns1__AwardItem@@YAPAU__ns1__AwardItem@@PAUsoap@@PBDPAU1@1@Z 0045fbc2 f   soapC.obj
 0001:0005ecd3       ?soap_put___ns1__AwardItem@@YAHPAUsoap@@PBU__ns1__AwardItem@@PBD2@Z 0045fcd3 f   soapC.obj
 0001:0005ed3e       ?soap_get___ns1__AwardItem@@YAPAU__ns1__AwardItem@@PAUsoap@@PAU1@PBD2@Z 0045fd3e f   soapC.obj
 0001:0005ed82       ?soap_instantiate___ns1__AwardItem@@YAPAU__ns1__AwardItem@@PAUsoap@@HPBD1PAI@Z 0045fd82 f   soapC.obj
 0001:0005ef70       ?soap_copy___ns1__AwardItem@@YAXPAUsoap@@HHPAXIPBXI@Z 0045ff70 f   soapC.obj
 0001:0005f006       ?soap_default___ns1__GetClothingID@@YAXPAUsoap@@PAU__ns1__GetClothingID@@@Z 00460006 f   soapC.obj
 0001:0005f014       ?soap_serialize___ns1__GetClothingID@@YAXPAUsoap@@PBU__ns1__GetClothingID@@@Z 00460014 f   soapC.obj
 0001:0005f030       ?soap_out___ns1__GetClothingID@@YAHPAUsoap@@PBDHPBU__ns1__GetClothingID@@1@Z 00460030 f   soapC.obj
 0001:0005f069       ?soap_in___ns1__GetClothingID@@YAPAU__ns1__GetClothingID@@PAUsoap@@PBDPAU1@1@Z 00460069 f   soapC.obj
 0001:0005f17a       ?soap_put___ns1__GetClothingID@@YAHPAUsoap@@PBU__ns1__GetClothingID@@PBD2@Z 0046017a f   soapC.obj
 0001:0005f1e5       ?soap_get___ns1__GetClothingID@@YAPAU__ns1__GetClothingID@@PAUsoap@@PAU1@PBD2@Z 004601e5 f   soapC.obj
 0001:0005f229       ?soap_instantiate___ns1__GetClothingID@@YAPAU__ns1__GetClothingID@@PAUsoap@@HPBD1PAI@Z 00460229 f   soapC.obj
 0001:0005f417       ?soap_copy___ns1__GetClothingID@@YAXPAUsoap@@HHPAXIPBXI@Z 00460417 f   soapC.obj
 0001:0005f4ad       ?soap_default___ns1__GetItemValue@@YAXPAUsoap@@PAU__ns1__GetItemValue@@@Z 004604ad f   soapC.obj
 0001:0005f4bb       ?soap_serialize___ns1__GetItemValue@@YAXPAUsoap@@PBU__ns1__GetItemValue@@@Z 004604bb f   soapC.obj
 0001:0005f4d7       ?soap_out___ns1__GetItemValue@@YAHPAUsoap@@PBDHPBU__ns1__GetItemValue@@1@Z 004604d7 f   soapC.obj
 0001:0005f510       ?soap_in___ns1__GetItemValue@@YAPAU__ns1__GetItemValue@@PAUsoap@@PBDPAU1@1@Z 00460510 f   soapC.obj
 0001:0005f621       ?soap_put___ns1__GetItemValue@@YAHPAUsoap@@PBU__ns1__GetItemValue@@PBD2@Z 00460621 f   soapC.obj
 0001:0005f68c       ?soap_get___ns1__GetItemValue@@YAPAU__ns1__GetItemValue@@PAUsoap@@PAU1@PBD2@Z 0046068c f   soapC.obj
 0001:0005f6d0       ?soap_instantiate___ns1__GetItemValue@@YAPAU__ns1__GetItemValue@@PAUsoap@@HPBD1PAI@Z 004606d0 f   soapC.obj
 0001:0005f8be       ?soap_copy___ns1__GetItemValue@@YAXPAUsoap@@HHPAXIPBXI@Z 004608be f   soapC.obj
 0001:0005f954       ?soap_default___ns1__GetItemByItemID@@YAXPAUsoap@@PAU__ns1__GetItemByItemID@@@Z 00460954 f   soapC.obj
 0001:0005f962       ?soap_serialize___ns1__GetItemByItemID@@YAXPAUsoap@@PBU__ns1__GetItemByItemID@@@Z 00460962 f   soapC.obj
 0001:0005f97e       ?soap_out___ns1__GetItemByItemID@@YAHPAUsoap@@PBDHPBU__ns1__GetItemByItemID@@1@Z 0046097e f   soapC.obj
 0001:0005f9b7       ?soap_in___ns1__GetItemByItemID@@YAPAU__ns1__GetItemByItemID@@PAUsoap@@PBDPAU1@1@Z 004609b7 f   soapC.obj
 0001:0005fac8       ?soap_put___ns1__GetItemByItemID@@YAHPAUsoap@@PBU__ns1__GetItemByItemID@@PBD2@Z 00460ac8 f   soapC.obj
 0001:0005fb33       ?soap_get___ns1__GetItemByItemID@@YAPAU__ns1__GetItemByItemID@@PAUsoap@@PAU1@PBD2@Z 00460b33 f   soapC.obj
 0001:0005fb77       ?soap_instantiate___ns1__GetItemByItemID@@YAPAU__ns1__GetItemByItemID@@PAUsoap@@HPBD1PAI@Z 00460b77 f   soapC.obj
 0001:0005fd65       ?soap_copy___ns1__GetItemByItemID@@YAXPAUsoap@@HHPAXIPBXI@Z 00460d65 f   soapC.obj
 0001:0005fdfb       ?soap_default___ns1__GetItemByCode@@YAXPAUsoap@@PAU__ns1__GetItemByCode@@@Z 00460dfb f   soapC.obj
 0001:0005fe09       ?soap_serialize___ns1__GetItemByCode@@YAXPAUsoap@@PBU__ns1__GetItemByCode@@@Z 00460e09 f   soapC.obj
 0001:0005fe25       ?soap_out___ns1__GetItemByCode@@YAHPAUsoap@@PBDHPBU__ns1__GetItemByCode@@1@Z 00460e25 f   soapC.obj
 0001:0005fe5e       ?soap_in___ns1__GetItemByCode@@YAPAU__ns1__GetItemByCode@@PAUsoap@@PBDPAU1@1@Z 00460e5e f   soapC.obj
 0001:0005ff6f       ?soap_put___ns1__GetItemByCode@@YAHPAUsoap@@PBU__ns1__GetItemByCode@@PBD2@Z 00460f6f f   soapC.obj
 0001:0005ffda       ?soap_get___ns1__GetItemByCode@@YAPAU__ns1__GetItemByCode@@PAUsoap@@PAU1@PBD2@Z 00460fda f   soapC.obj
 0001:0006001e       ?soap_instantiate___ns1__GetItemByCode@@YAPAU__ns1__GetItemByCode@@PAUsoap@@HPBD1PAI@Z 0046101e f   soapC.obj
 0001:0006020c       ?soap_copy___ns1__GetItemByCode@@YAXPAUsoap@@HHPAXIPBXI@Z 0046120c f   soapC.obj
 0001:000602a2       ?soap_serialize_PointerToSOAP_ENV__Reason@@YAXPAUsoap@@PBQAUSOAP_ENV__Reason@@@Z 004612a2 f   soapC.obj
 0001:000602d8       ?soap_out_PointerToSOAP_ENV__Reason@@YAHPAUsoap@@PBDHPBQAUSOAP_ENV__Reason@@1@Z 004612d8 f   soapC.obj
 0001:0006033a       ?soap_in_PointerToSOAP_ENV__Reason@@YAPAPAUSOAP_ENV__Reason@@PAUsoap@@PBDPAPAU1@1@Z 0046133a f   soapC.obj
 0001:00060434       ?soap_put_PointerToSOAP_ENV__Reason@@YAHPAUsoap@@PBQAUSOAP_ENV__Reason@@PBD2@Z 00461434 f   soapC.obj
 0001:000604c2       ?soap_get_PointerToSOAP_ENV__Reason@@YAPAPAUSOAP_ENV__Reason@@PAUsoap@@PAPAU1@PBD2@Z 004614c2 f   soapC.obj
 0001:00060506       ?soap_serialize_PointerToSOAP_ENV__Detail@@YAXPAUsoap@@PBQAUSOAP_ENV__Detail@@@Z 00461506 f   soapC.obj
 0001:0006053c       ?soap_out_PointerToSOAP_ENV__Detail@@YAHPAUsoap@@PBDHPBQAUSOAP_ENV__Detail@@1@Z 0046153c f   soapC.obj
 0001:0006059e       ?soap_in_PointerToSOAP_ENV__Detail@@YAPAPAUSOAP_ENV__Detail@@PAUsoap@@PBDPAPAU1@1@Z 0046159e f   soapC.obj
 0001:00060698       ?soap_put_PointerToSOAP_ENV__Detail@@YAHPAUsoap@@PBQAUSOAP_ENV__Detail@@PBD2@Z 00461698 f   soapC.obj
 0001:00060723       ?soap_get_PointerToSOAP_ENV__Detail@@YAPAPAUSOAP_ENV__Detail@@PAUsoap@@PAPAU1@PBD2@Z 00461723 f   soapC.obj
 0001:00060767       ?soap_serialize_PointerToSOAP_ENV__Code@@YAXPAUsoap@@PBQAUSOAP_ENV__Code@@@Z 00461767 f   soapC.obj
 0001:0006079d       ?soap_out_PointerToSOAP_ENV__Code@@YAHPAUsoap@@PBDHPBQAUSOAP_ENV__Code@@1@Z 0046179d f   soapC.obj
 0001:000607ff       ?soap_in_PointerToSOAP_ENV__Code@@YAPAPAUSOAP_ENV__Code@@PAUsoap@@PBDPAPAU1@1@Z 004617ff f   soapC.obj
 0001:000608f9       ?soap_put_PointerToSOAP_ENV__Code@@YAHPAUsoap@@PBQAUSOAP_ENV__Code@@PBD2@Z 004618f9 f   soapC.obj
 0001:00060984       ?soap_get_PointerToSOAP_ENV__Code@@YAPAPAUSOAP_ENV__Code@@PAUsoap@@PAPAU1@PBD2@Z 00461984 f   soapC.obj
 0001:000609c8       ?soap_serialize_PointerTo_ns1__GetLotteryWinningListResponse@@YAXPAUsoap@@PBQAV_ns1__GetLotteryWinningListResponse@@@Z 004619c8 f   soapC.obj
 0001:00060a0a       ?soap_out_PointerTo_ns1__GetLotteryWinningListResponse@@YAHPAUsoap@@PBDHPBQAV_ns1__GetLotteryWinningListResponse@@1@Z 00461a0a f   soapC.obj
 0001:00060a78       ?soap_in_PointerTo_ns1__GetLotteryWinningListResponse@@YAPAPAV_ns1__GetLotteryWinningListResponse@@PAUsoap@@PBDPAPAV1@1@Z 00461a78 f   soapC.obj
 0001:00060be1       ?soap_put_PointerTo_ns1__GetLotteryWinningListResponse@@YAHPAUsoap@@PBQAV_ns1__GetLotteryWinningListResponse@@PBD2@Z 00461be1 f   soapC.obj
 0001:00060c6c       ?soap_get_PointerTo_ns1__GetLotteryWinningListResponse@@YAPAPAV_ns1__GetLotteryWinningListResponse@@PAUsoap@@PAPAV1@PBD2@Z 00461c6c f   soapC.obj
 0001:00060cb0       ?soap_serialize_PointerTo_ns1__GetLotteryWinningList@@YAXPAUsoap@@PBQAV_ns1__GetLotteryWinningList@@@Z 00461cb0 f   soapC.obj
 0001:00060cf2       ?soap_out_PointerTo_ns1__GetLotteryWinningList@@YAHPAUsoap@@PBDHPBQAV_ns1__GetLotteryWinningList@@1@Z 00461cf2 f   soapC.obj
 0001:00060d60       ?soap_in_PointerTo_ns1__GetLotteryWinningList@@YAPAPAV_ns1__GetLotteryWinningList@@PAUsoap@@PBDPAPAV1@1@Z 00461d60 f   soapC.obj
 0001:00060ec9       ?soap_put_PointerTo_ns1__GetLotteryWinningList@@YAHPAUsoap@@PBQAV_ns1__GetLotteryWinningList@@PBD2@Z 00461ec9 f   soapC.obj
 0001:00060f54       ?soap_get_PointerTo_ns1__GetLotteryWinningList@@YAPAPAV_ns1__GetLotteryWinningList@@PAUsoap@@PAPAV1@PBD2@Z 00461f54 f   soapC.obj
 0001:00060f98       ?soap_serialize_PointerTo_ns1__GetLotteryWinningTopResponse@@YAXPAUsoap@@PBQAV_ns1__GetLotteryWinningTopResponse@@@Z 00461f98 f   soapC.obj
 0001:00060fda       ?soap_out_PointerTo_ns1__GetLotteryWinningTopResponse@@YAHPAUsoap@@PBDHPBQAV_ns1__GetLotteryWinningTopResponse@@1@Z 00461fda f   soapC.obj
 0001:00061048       ?soap_in_PointerTo_ns1__GetLotteryWinningTopResponse@@YAPAPAV_ns1__GetLotteryWinningTopResponse@@PAUsoap@@PBDPAPAV1@1@Z 00462048 f   soapC.obj
 0001:000611b1       ?soap_put_PointerTo_ns1__GetLotteryWinningTopResponse@@YAHPAUsoap@@PBQAV_ns1__GetLotteryWinningTopResponse@@PBD2@Z 004621b1 f   soapC.obj
 0001:0006123c       ?soap_get_PointerTo_ns1__GetLotteryWinningTopResponse@@YAPAPAV_ns1__GetLotteryWinningTopResponse@@PAUsoap@@PAPAV1@PBD2@Z 0046223c f   soapC.obj
 0001:00061280       ?soap_serialize_PointerTo_ns1__GetLotteryWinningTop@@YAXPAUsoap@@PBQAV_ns1__GetLotteryWinningTop@@@Z 00462280 f   soapC.obj
 0001:000612c2       ?soap_out_PointerTo_ns1__GetLotteryWinningTop@@YAHPAUsoap@@PBDHPBQAV_ns1__GetLotteryWinningTop@@1@Z 004622c2 f   soapC.obj
 0001:00061330       ?soap_in_PointerTo_ns1__GetLotteryWinningTop@@YAPAPAV_ns1__GetLotteryWinningTop@@PAUsoap@@PBDPAPAV1@1@Z 00462330 f   soapC.obj
 0001:00061499       ?soap_put_PointerTo_ns1__GetLotteryWinningTop@@YAHPAUsoap@@PBQAV_ns1__GetLotteryWinningTop@@PBD2@Z 00462499 f   soapC.obj
 0001:00061524       ?soap_get_PointerTo_ns1__GetLotteryWinningTop@@YAPAPAV_ns1__GetLotteryWinningTop@@PAUsoap@@PAPAV1@PBD2@Z 00462524 f   soapC.obj
 0001:00061568       ?soap_serialize_PointerTo_ns1__GetLotteryPrizeResponse@@YAXPAUsoap@@PBQAV_ns1__GetLotteryPrizeResponse@@@Z 00462568 f   soapC.obj
 0001:000615aa       ?soap_out_PointerTo_ns1__GetLotteryPrizeResponse@@YAHPAUsoap@@PBDHPBQAV_ns1__GetLotteryPrizeResponse@@1@Z 004625aa f   soapC.obj
 0001:00061618       ?soap_in_PointerTo_ns1__GetLotteryPrizeResponse@@YAPAPAV_ns1__GetLotteryPrizeResponse@@PAUsoap@@PBDPAPAV1@1@Z 00462618 f   soapC.obj
 0001:00061781       ?soap_put_PointerTo_ns1__GetLotteryPrizeResponse@@YAHPAUsoap@@PBQAV_ns1__GetLotteryPrizeResponse@@PBD2@Z 00462781 f   soapC.obj
 0001:0006180c       ?soap_get_PointerTo_ns1__GetLotteryPrizeResponse@@YAPAPAV_ns1__GetLotteryPrizeResponse@@PAUsoap@@PAPAV1@PBD2@Z 0046280c f   soapC.obj
 0001:00061850       ?soap_serialize_PointerTo_ns1__GetLotteryPrize@@YAXPAUsoap@@PBQAV_ns1__GetLotteryPrize@@@Z 00462850 f   soapC.obj
 0001:00061892       ?soap_out_PointerTo_ns1__GetLotteryPrize@@YAHPAUsoap@@PBDHPBQAV_ns1__GetLotteryPrize@@1@Z 00462892 f   soapC.obj
 0001:00061900       ?soap_in_PointerTo_ns1__GetLotteryPrize@@YAPAPAV_ns1__GetLotteryPrize@@PAUsoap@@PBDPAPAV1@1@Z 00462900 f   soapC.obj
 0001:00061a69       ?soap_put_PointerTo_ns1__GetLotteryPrize@@YAHPAUsoap@@PBQAV_ns1__GetLotteryPrize@@PBD2@Z 00462a69 f   soapC.obj
 0001:00061af4       ?soap_get_PointerTo_ns1__GetLotteryPrize@@YAPAPAV_ns1__GetLotteryPrize@@PAUsoap@@PAPAV1@PBD2@Z 00462af4 f   soapC.obj
 0001:00061b38       ?soap_serialize_PointerTo_ns1__LotteryResponse@@YAXPAUsoap@@PBQAV_ns1__LotteryResponse@@@Z 00462b38 f   soapC.obj
 0001:00061b7a       ?soap_out_PointerTo_ns1__LotteryResponse@@YAHPAUsoap@@PBDHPBQAV_ns1__LotteryResponse@@1@Z 00462b7a f   soapC.obj
 0001:00061be8       ?soap_in_PointerTo_ns1__LotteryResponse@@YAPAPAV_ns1__LotteryResponse@@PAUsoap@@PBDPAPAV1@1@Z 00462be8 f   soapC.obj
 0001:00061d51       ?soap_put_PointerTo_ns1__LotteryResponse@@YAHPAUsoap@@PBQAV_ns1__LotteryResponse@@PBD2@Z 00462d51 f   soapC.obj
 0001:00061ddc       ?soap_get_PointerTo_ns1__LotteryResponse@@YAPAPAV_ns1__LotteryResponse@@PAUsoap@@PAPAV1@PBD2@Z 00462ddc f   soapC.obj
 0001:00061e20       ?soap_serialize_PointerTo_ns1__Lottery@@YAXPAUsoap@@PBQAV_ns1__Lottery@@@Z 00462e20 f   soapC.obj
 0001:00061e62       ?soap_out_PointerTo_ns1__Lottery@@YAHPAUsoap@@PBDHPBQAV_ns1__Lottery@@1@Z 00462e62 f   soapC.obj
 0001:00061ed0       ?soap_in_PointerTo_ns1__Lottery@@YAPAPAV_ns1__Lottery@@PAUsoap@@PBDPAPAV1@1@Z 00462ed0 f   soapC.obj
 0001:00062039       ?soap_put_PointerTo_ns1__Lottery@@YAHPAUsoap@@PBQAV_ns1__Lottery@@PBD2@Z 00463039 f   soapC.obj
 0001:000620c4       ?soap_get_PointerTo_ns1__Lottery@@YAPAPAV_ns1__Lottery@@PAUsoap@@PAPAV1@PBD2@Z 004630c4 f   soapC.obj
 0001:00062108       ?soap_serialize_PointerTo_ns1__GetAwardInfoResponse@@YAXPAUsoap@@PBQAV_ns1__GetAwardInfoResponse@@@Z 00463108 f   soapC.obj
 0001:0006214a       ?soap_out_PointerTo_ns1__GetAwardInfoResponse@@YAHPAUsoap@@PBDHPBQAV_ns1__GetAwardInfoResponse@@1@Z 0046314a f   soapC.obj
 0001:000621b8       ?soap_in_PointerTo_ns1__GetAwardInfoResponse@@YAPAPAV_ns1__GetAwardInfoResponse@@PAUsoap@@PBDPAPAV1@1@Z 004631b8 f   soapC.obj
 0001:00062321       ?soap_put_PointerTo_ns1__GetAwardInfoResponse@@YAHPAUsoap@@PBQAV_ns1__GetAwardInfoResponse@@PBD2@Z 00463321 f   soapC.obj
 0001:000623ac       ?soap_get_PointerTo_ns1__GetAwardInfoResponse@@YAPAPAV_ns1__GetAwardInfoResponse@@PAUsoap@@PAPAV1@PBD2@Z 004633ac f   soapC.obj
 0001:000623f0       ?soap_serialize_PointerTo_ns1__GetAwardInfo@@YAXPAUsoap@@PBQAV_ns1__GetAwardInfo@@@Z 004633f0 f   soapC.obj
 0001:00062432       ?soap_out_PointerTo_ns1__GetAwardInfo@@YAHPAUsoap@@PBDHPBQAV_ns1__GetAwardInfo@@1@Z 00463432 f   soapC.obj
 0001:000624a0       ?soap_in_PointerTo_ns1__GetAwardInfo@@YAPAPAV_ns1__GetAwardInfo@@PAUsoap@@PBDPAPAV1@1@Z 004634a0 f   soapC.obj
 0001:00062609       ?soap_put_PointerTo_ns1__GetAwardInfo@@YAHPAUsoap@@PBQAV_ns1__GetAwardInfo@@PBD2@Z 00463609 f   soapC.obj
 0001:00062694       ?soap_get_PointerTo_ns1__GetAwardInfo@@YAPAPAV_ns1__GetAwardInfo@@PAUsoap@@PAPAV1@PBD2@Z 00463694 f   soapC.obj
 0001:000626d8       ?soap_serialize_PointerTo_ns1__GetAwardItemResponse@@YAXPAUsoap@@PBQAV_ns1__GetAwardItemResponse@@@Z 004636d8 f   soapC.obj
 0001:0006271a       ?soap_out_PointerTo_ns1__GetAwardItemResponse@@YAHPAUsoap@@PBDHPBQAV_ns1__GetAwardItemResponse@@1@Z 0046371a f   soapC.obj
 0001:00062788       ?soap_in_PointerTo_ns1__GetAwardItemResponse@@YAPAPAV_ns1__GetAwardItemResponse@@PAUsoap@@PBDPAPAV1@1@Z 00463788 f   soapC.obj
 0001:000628f1       ?soap_put_PointerTo_ns1__GetAwardItemResponse@@YAHPAUsoap@@PBQAV_ns1__GetAwardItemResponse@@PBD2@Z 004638f1 f   soapC.obj
 0001:0006297c       ?soap_get_PointerTo_ns1__GetAwardItemResponse@@YAPAPAV_ns1__GetAwardItemResponse@@PAUsoap@@PAPAV1@PBD2@Z 0046397c f   soapC.obj
 0001:000629c0       ?soap_serialize_PointerTo_ns1__GetAwardItem@@YAXPAUsoap@@PBQAV_ns1__GetAwardItem@@@Z 004639c0 f   soapC.obj
 0001:00062a02       ?soap_out_PointerTo_ns1__GetAwardItem@@YAHPAUsoap@@PBDHPBQAV_ns1__GetAwardItem@@1@Z 00463a02 f   soapC.obj
 0001:00062a70       ?soap_in_PointerTo_ns1__GetAwardItem@@YAPAPAV_ns1__GetAwardItem@@PAUsoap@@PBDPAPAV1@1@Z 00463a70 f   soapC.obj
 0001:00062bd9       ?soap_put_PointerTo_ns1__GetAwardItem@@YAHPAUsoap@@PBQAV_ns1__GetAwardItem@@PBD2@Z 00463bd9 f   soapC.obj
 0001:00062c64       ?soap_get_PointerTo_ns1__GetAwardItem@@YAPAPAV_ns1__GetAwardItem@@PAUsoap@@PAPAV1@PBD2@Z 00463c64 f   soapC.obj
 0001:00062ca8       ?soap_serialize_PointerTo_ns1__AwardItemResponse@@YAXPAUsoap@@PBQAV_ns1__AwardItemResponse@@@Z 00463ca8 f   soapC.obj
 0001:00062cea       ?soap_out_PointerTo_ns1__AwardItemResponse@@YAHPAUsoap@@PBDHPBQAV_ns1__AwardItemResponse@@1@Z 00463cea f   soapC.obj
 0001:00062d58       ?soap_in_PointerTo_ns1__AwardItemResponse@@YAPAPAV_ns1__AwardItemResponse@@PAUsoap@@PBDPAPAV1@1@Z 00463d58 f   soapC.obj
 0001:00062ec1       ?soap_put_PointerTo_ns1__AwardItemResponse@@YAHPAUsoap@@PBQAV_ns1__AwardItemResponse@@PBD2@Z 00463ec1 f   soapC.obj
 0001:00062f4c       ?soap_get_PointerTo_ns1__AwardItemResponse@@YAPAPAV_ns1__AwardItemResponse@@PAUsoap@@PAPAV1@PBD2@Z 00463f4c f   soapC.obj
 0001:00062f90       ?soap_serialize_PointerTo_ns1__AwardItem@@YAXPAUsoap@@PBQAV_ns1__AwardItem@@@Z 00463f90 f   soapC.obj
 0001:00062fd2       ?soap_out_PointerTo_ns1__AwardItem@@YAHPAUsoap@@PBDHPBQAV_ns1__AwardItem@@1@Z 00463fd2 f   soapC.obj
 0001:00063040       ?soap_in_PointerTo_ns1__AwardItem@@YAPAPAV_ns1__AwardItem@@PAUsoap@@PBDPAPAV1@1@Z 00464040 f   soapC.obj
 0001:000631a9       ?soap_put_PointerTo_ns1__AwardItem@@YAHPAUsoap@@PBQAV_ns1__AwardItem@@PBD2@Z 004641a9 f   soapC.obj
 0001:00063234       ?soap_get_PointerTo_ns1__AwardItem@@YAPAPAV_ns1__AwardItem@@PAUsoap@@PAPAV1@PBD2@Z 00464234 f   soapC.obj
 0001:00063278       ?soap_serialize_PointerTo_ns1__GetClothingIDResponse@@YAXPAUsoap@@PBQAV_ns1__GetClothingIDResponse@@@Z 00464278 f   soapC.obj
 0001:000632ba       ?soap_out_PointerTo_ns1__GetClothingIDResponse@@YAHPAUsoap@@PBDHPBQAV_ns1__GetClothingIDResponse@@1@Z 004642ba f   soapC.obj
 0001:00063328       ?soap_in_PointerTo_ns1__GetClothingIDResponse@@YAPAPAV_ns1__GetClothingIDResponse@@PAUsoap@@PBDPAPAV1@1@Z 00464328 f   soapC.obj
 0001:00063491       ?soap_put_PointerTo_ns1__GetClothingIDResponse@@YAHPAUsoap@@PBQAV_ns1__GetClothingIDResponse@@PBD2@Z 00464491 f   soapC.obj
 0001:0006351c       ?soap_get_PointerTo_ns1__GetClothingIDResponse@@YAPAPAV_ns1__GetClothingIDResponse@@PAUsoap@@PAPAV1@PBD2@Z 0046451c f   soapC.obj
 0001:00063560       ?soap_serialize_PointerTo_ns1__GetClothingID@@YAXPAUsoap@@PBQAV_ns1__GetClothingID@@@Z 00464560 f   soapC.obj
 0001:000635a2       ?soap_out_PointerTo_ns1__GetClothingID@@YAHPAUsoap@@PBDHPBQAV_ns1__GetClothingID@@1@Z 004645a2 f   soapC.obj
 0001:00063610       ?soap_in_PointerTo_ns1__GetClothingID@@YAPAPAV_ns1__GetClothingID@@PAUsoap@@PBDPAPAV1@1@Z 00464610 f   soapC.obj
 0001:00063779       ?soap_put_PointerTo_ns1__GetClothingID@@YAHPAUsoap@@PBQAV_ns1__GetClothingID@@PBD2@Z 00464779 f   soapC.obj
 0001:00063804       ?soap_get_PointerTo_ns1__GetClothingID@@YAPAPAV_ns1__GetClothingID@@PAUsoap@@PAPAV1@PBD2@Z 00464804 f   soapC.obj
 0001:00063848       ?soap_serialize_PointerTo_ns1__GetItemValueResponse@@YAXPAUsoap@@PBQAV_ns1__GetItemValueResponse@@@Z 00464848 f   soapC.obj
 0001:0006388a       ?soap_out_PointerTo_ns1__GetItemValueResponse@@YAHPAUsoap@@PBDHPBQAV_ns1__GetItemValueResponse@@1@Z 0046488a f   soapC.obj
 0001:000638f8       ?soap_in_PointerTo_ns1__GetItemValueResponse@@YAPAPAV_ns1__GetItemValueResponse@@PAUsoap@@PBDPAPAV1@1@Z 004648f8 f   soapC.obj
 0001:00063a61       ?soap_put_PointerTo_ns1__GetItemValueResponse@@YAHPAUsoap@@PBQAV_ns1__GetItemValueResponse@@PBD2@Z 00464a61 f   soapC.obj
 0001:00063aec       ?soap_get_PointerTo_ns1__GetItemValueResponse@@YAPAPAV_ns1__GetItemValueResponse@@PAUsoap@@PAPAV1@PBD2@Z 00464aec f   soapC.obj
 0001:00063b30       ?soap_serialize_PointerTo_ns1__GetItemValue@@YAXPAUsoap@@PBQAV_ns1__GetItemValue@@@Z 00464b30 f   soapC.obj
 0001:00063b72       ?soap_out_PointerTo_ns1__GetItemValue@@YAHPAUsoap@@PBDHPBQAV_ns1__GetItemValue@@1@Z 00464b72 f   soapC.obj
 0001:00063be0       ?soap_in_PointerTo_ns1__GetItemValue@@YAPAPAV_ns1__GetItemValue@@PAUsoap@@PBDPAPAV1@1@Z 00464be0 f   soapC.obj
 0001:00063d49       ?soap_put_PointerTo_ns1__GetItemValue@@YAHPAUsoap@@PBQAV_ns1__GetItemValue@@PBD2@Z 00464d49 f   soapC.obj
 0001:00063dd4       ?soap_get_PointerTo_ns1__GetItemValue@@YAPAPAV_ns1__GetItemValue@@PAUsoap@@PAPAV1@PBD2@Z 00464dd4 f   soapC.obj
 0001:00063e18       ?soap_serialize_PointerTo_ns1__GetItemByItemIDResponse@@YAXPAUsoap@@PBQAV_ns1__GetItemByItemIDResponse@@@Z 00464e18 f   soapC.obj
 0001:00063e5a       ?soap_out_PointerTo_ns1__GetItemByItemIDResponse@@YAHPAUsoap@@PBDHPBQAV_ns1__GetItemByItemIDResponse@@1@Z 00464e5a f   soapC.obj
 0001:00063ec8       ?soap_in_PointerTo_ns1__GetItemByItemIDResponse@@YAPAPAV_ns1__GetItemByItemIDResponse@@PAUsoap@@PBDPAPAV1@1@Z 00464ec8 f   soapC.obj
 0001:00064031       ?soap_put_PointerTo_ns1__GetItemByItemIDResponse@@YAHPAUsoap@@PBQAV_ns1__GetItemByItemIDResponse@@PBD2@Z 00465031 f   soapC.obj
 0001:000640bc       ?soap_get_PointerTo_ns1__GetItemByItemIDResponse@@YAPAPAV_ns1__GetItemByItemIDResponse@@PAUsoap@@PAPAV1@PBD2@Z 004650bc f   soapC.obj
 0001:00064100       ?soap_serialize_PointerTo_ns1__GetItemByItemID@@YAXPAUsoap@@PBQAV_ns1__GetItemByItemID@@@Z 00465100 f   soapC.obj
 0001:00064142       ?soap_out_PointerTo_ns1__GetItemByItemID@@YAHPAUsoap@@PBDHPBQAV_ns1__GetItemByItemID@@1@Z 00465142 f   soapC.obj
 0001:000641b0       ?soap_in_PointerTo_ns1__GetItemByItemID@@YAPAPAV_ns1__GetItemByItemID@@PAUsoap@@PBDPAPAV1@1@Z 004651b0 f   soapC.obj
 0001:00064319       ?soap_put_PointerTo_ns1__GetItemByItemID@@YAHPAUsoap@@PBQAV_ns1__GetItemByItemID@@PBD2@Z 00465319 f   soapC.obj
 0001:000643a4       ?soap_get_PointerTo_ns1__GetItemByItemID@@YAPAPAV_ns1__GetItemByItemID@@PAUsoap@@PAPAV1@PBD2@Z 004653a4 f   soapC.obj
 0001:000643e8       ?soap_serialize_PointerTo_ns1__GetItemByCodeResponse@@YAXPAUsoap@@PBQAV_ns1__GetItemByCodeResponse@@@Z 004653e8 f   soapC.obj
 0001:0006442a       ?soap_out_PointerTo_ns1__GetItemByCodeResponse@@YAHPAUsoap@@PBDHPBQAV_ns1__GetItemByCodeResponse@@1@Z 0046542a f   soapC.obj
 0001:00064498       ?soap_in_PointerTo_ns1__GetItemByCodeResponse@@YAPAPAV_ns1__GetItemByCodeResponse@@PAUsoap@@PBDPAPAV1@1@Z 00465498 f   soapC.obj
 0001:00064601       ?soap_put_PointerTo_ns1__GetItemByCodeResponse@@YAHPAUsoap@@PBQAV_ns1__GetItemByCodeResponse@@PBD2@Z 00465601 f   soapC.obj
 0001:0006468c       ?soap_get_PointerTo_ns1__GetItemByCodeResponse@@YAPAPAV_ns1__GetItemByCodeResponse@@PAUsoap@@PAPAV1@PBD2@Z 0046568c f   soapC.obj
 0001:000646d0       ?soap_serialize_PointerTo_ns1__GetItemByCode@@YAXPAUsoap@@PBQAV_ns1__GetItemByCode@@@Z 004656d0 f   soapC.obj
 0001:00064712       ?soap_out_PointerTo_ns1__GetItemByCode@@YAHPAUsoap@@PBDHPBQAV_ns1__GetItemByCode@@1@Z 00465712 f   soapC.obj
 0001:00064780       ?soap_in_PointerTo_ns1__GetItemByCode@@YAPAPAV_ns1__GetItemByCode@@PAUsoap@@PBDPAPAV1@1@Z 00465780 f   soapC.obj
 0001:000648e9       ?soap_put_PointerTo_ns1__GetItemByCode@@YAHPAUsoap@@PBQAV_ns1__GetItemByCode@@PBD2@Z 004658e9 f   soapC.obj
 0001:00064974       ?soap_get_PointerTo_ns1__GetItemByCode@@YAPAPAV_ns1__GetItemByCode@@PAUsoap@@PAPAV1@PBD2@Z 00465974 f   soapC.obj
 0001:000649b8       ?soap_serialize_PointerTo_ns1__GetLotteryWinningListResponse_GetLotteryWinningListResult@@YAXPAUsoap@@PBQAV_ns1__GetLotteryWinningListResponse_GetLotteryWinningListResult@@@Z 004659b8 f   soapC.obj
 0001:000649fa       ?soap_out_PointerTo_ns1__GetLotteryWinningListResponse_GetLotteryWinningListResult@@YAHPAUsoap@@PBDHPBQAV_ns1__GetLotteryWinningListResponse_GetLotteryWinningListResult@@1@Z 004659fa f   soapC.obj
 0001:00064a68       ?soap_in_PointerTo_ns1__GetLotteryWinningListResponse_GetLotteryWinningListResult@@YAPAPAV_ns1__GetLotteryWinningListResponse_GetLotteryWinningListResult@@PAUsoap@@PBDPAPAV1@1@Z 00465a68 f   soapC.obj
 0001:00064bd1       ?soap_put_PointerTo_ns1__GetLotteryWinningListResponse_GetLotteryWinningListResult@@YAHPAUsoap@@PBQAV_ns1__GetLotteryWinningListResponse_GetLotteryWinningListResult@@PBD2@Z 00465bd1 f   soapC.obj
 0001:00064c5c       ?soap_get_PointerTo_ns1__GetLotteryWinningListResponse_GetLotteryWinningListResult@@YAPAPAV_ns1__GetLotteryWinningListResponse_GetLotteryWinningListResult@@PAUsoap@@PAPAV1@PBD2@Z 00465c5c f   soapC.obj
 0001:00064ca0       ?soap_serialize_PointerTo_ns1__GetLotteryWinningTopResponse_GetLotteryWinningTopResult@@YAXPAUsoap@@PBQAV_ns1__GetLotteryWinningTopResponse_GetLotteryWinningTopResult@@@Z 00465ca0 f   soapC.obj
 0001:00064ce2       ?soap_out_PointerTo_ns1__GetLotteryWinningTopResponse_GetLotteryWinningTopResult@@YAHPAUsoap@@PBDHPBQAV_ns1__GetLotteryWinningTopResponse_GetLotteryWinningTopResult@@1@Z 00465ce2 f   soapC.obj
 0001:00064d50       ?soap_in_PointerTo_ns1__GetLotteryWinningTopResponse_GetLotteryWinningTopResult@@YAPAPAV_ns1__GetLotteryWinningTopResponse_GetLotteryWinningTopResult@@PAUsoap@@PBDPAPAV1@1@Z 00465d50 f   soapC.obj
 0001:00064eb9       ?soap_put_PointerTo_ns1__GetLotteryWinningTopResponse_GetLotteryWinningTopResult@@YAHPAUsoap@@PBQAV_ns1__GetLotteryWinningTopResponse_GetLotteryWinningTopResult@@PBD2@Z 00465eb9 f   soapC.obj
 0001:00064f44       ?soap_get_PointerTo_ns1__GetLotteryWinningTopResponse_GetLotteryWinningTopResult@@YAPAPAV_ns1__GetLotteryWinningTopResponse_GetLotteryWinningTopResult@@PAUsoap@@PAPAV1@PBD2@Z 00465f44 f   soapC.obj
 0001:00064f88       ?soap_serialize_PointerTons1__ArrayOfAwardLotteryPrizeInfo@@YAXPAUsoap@@PBQAVns1__ArrayOfAwardLotteryPrizeInfo@@@Z 00465f88 f   soapC.obj
 0001:00064fca       ?soap_out_PointerTons1__ArrayOfAwardLotteryPrizeInfo@@YAHPAUsoap@@PBDHPBQAVns1__ArrayOfAwardLotteryPrizeInfo@@1@Z 00465fca f   soapC.obj
 0001:00065038       ?soap_in_PointerTons1__ArrayOfAwardLotteryPrizeInfo@@YAPAPAVns1__ArrayOfAwardLotteryPrizeInfo@@PAUsoap@@PBDPAPAV1@1@Z 00466038 f   soapC.obj
 0001:000651a1       ?soap_put_PointerTons1__ArrayOfAwardLotteryPrizeInfo@@YAHPAUsoap@@PBQAVns1__ArrayOfAwardLotteryPrizeInfo@@PBD2@Z 004661a1 f   soapC.obj
 0001:0006522c       ?soap_get_PointerTons1__ArrayOfAwardLotteryPrizeInfo@@YAPAPAVns1__ArrayOfAwardLotteryPrizeInfo@@PAUsoap@@PAPAV1@PBD2@Z 0046622c f   soapC.obj
 0001:00065270       ?soap_serialize_PointerTons1__AwardInfo@@YAXPAUsoap@@PBQAVns1__AwardInfo@@@Z 00466270 f   soapC.obj
 0001:000652b2       ?soap_out_PointerTons1__AwardInfo@@YAHPAUsoap@@PBDHPBQAVns1__AwardInfo@@1@Z 004662b2 f   soapC.obj
 0001:00065320       ?soap_in_PointerTons1__AwardInfo@@YAPAPAVns1__AwardInfo@@PAUsoap@@PBDPAPAV1@1@Z 00466320 f   soapC.obj
 0001:00065489       ?soap_put_PointerTons1__AwardInfo@@YAHPAUsoap@@PBQAVns1__AwardInfo@@PBD2@Z 00466489 f   soapC.obj
 0001:00065514       ?soap_get_PointerTons1__AwardInfo@@YAPAPAVns1__AwardInfo@@PAUsoap@@PAPAV1@PBD2@Z 00466514 f   soapC.obj
 0001:00065558       ?soap_serialize_PointerTons1__ArrayOfAwardItemInfo@@YAXPAUsoap@@PBQAVns1__ArrayOfAwardItemInfo@@@Z 00466558 f   soapC.obj
 0001:0006559a       ?soap_out_PointerTons1__ArrayOfAwardItemInfo@@YAHPAUsoap@@PBDHPBQAVns1__ArrayOfAwardItemInfo@@1@Z 0046659a f   soapC.obj
 0001:00065608       ?soap_in_PointerTons1__ArrayOfAwardItemInfo@@YAPAPAVns1__ArrayOfAwardItemInfo@@PAUsoap@@PBDPAPAV1@1@Z 00466608 f   soapC.obj
 0001:00065771       ?soap_put_PointerTons1__ArrayOfAwardItemInfo@@YAHPAUsoap@@PBQAVns1__ArrayOfAwardItemInfo@@PBD2@Z 00466771 f   soapC.obj
 0001:000657fc       ?soap_get_PointerTons1__ArrayOfAwardItemInfo@@YAPAPAVns1__ArrayOfAwardItemInfo@@PAUsoap@@PAPAV1@PBD2@Z 004667fc f   soapC.obj
 0001:00065840       ?soap_serialize_PointerTons1__ItemInfo@@YAXPAUsoap@@PBQAVns1__ItemInfo@@@Z 00466840 f   soapC.obj
 0001:00065882       ?soap_out_PointerTons1__ItemInfo@@YAHPAUsoap@@PBDHPBQAVns1__ItemInfo@@1@Z 00466882 f   soapC.obj
 0001:000658f0       ?soap_in_PointerTons1__ItemInfo@@YAPAPAVns1__ItemInfo@@PAUsoap@@PBDPAPAV1@1@Z 004668f0 f   soapC.obj
 0001:00065a5c       ?soap_put_PointerTons1__ItemInfo@@YAHPAUsoap@@PBQAVns1__ItemInfo@@PBD2@Z 00466a5c f   soapC.obj
 0001:00065ae7       ?soap_get_PointerTons1__ItemInfo@@YAPAPAVns1__ItemInfo@@PAUsoap@@PAPAV1@PBD2@Z 00466ae7 f   soapC.obj
 0001:00065b2b       ?soap_serialize_PointerToPointerTons1__AwardLotteryPrizeInfo@@YAXPAUsoap@@PBQAPAVns1__AwardLotteryPrizeInfo@@@Z 00466b2b f   soapC.obj
 0001:00065b61       ?soap_out_PointerToPointerTons1__AwardLotteryPrizeInfo@@YAHPAUsoap@@PBDHPBQAPAVns1__AwardLotteryPrizeInfo@@1@Z 00466b61 f   soapC.obj
 0001:00065bc3       ?soap_in_PointerToPointerTons1__AwardLotteryPrizeInfo@@YAPAPAPAVns1__AwardLotteryPrizeInfo@@PAUsoap@@PBDPAPAPAV1@1@Z 00466bc3 f   soapC.obj
 0001:00065cbd       ?soap_put_PointerToPointerTons1__AwardLotteryPrizeInfo@@YAHPAUsoap@@PBQAPAVns1__AwardLotteryPrizeInfo@@PBD2@Z 00466cbd f   soapC.obj
 0001:00065d48       ?soap_get_PointerToPointerTons1__AwardLotteryPrizeInfo@@YAPAPAPAVns1__AwardLotteryPrizeInfo@@PAUsoap@@PAPAPAV1@PBD2@Z 00466d48 f   soapC.obj
 0001:00065d8c       ?soap_serialize_PointerTons1__AwardLotteryPrizeInfo@@YAXPAUsoap@@PBQAVns1__AwardLotteryPrizeInfo@@@Z 00466d8c f   soapC.obj
 0001:00065dce       ?soap_out_PointerTons1__AwardLotteryPrizeInfo@@YAHPAUsoap@@PBDHPBQAVns1__AwardLotteryPrizeInfo@@1@Z 00466dce f   soapC.obj
 0001:00065e3c       ?soap_in_PointerTons1__AwardLotteryPrizeInfo@@YAPAPAVns1__AwardLotteryPrizeInfo@@PAUsoap@@PBDPAPAV1@1@Z 00466e3c f   soapC.obj
 0001:00065fa5       ?soap_put_PointerTons1__AwardLotteryPrizeInfo@@YAHPAUsoap@@PBQAVns1__AwardLotteryPrizeInfo@@PBD2@Z 00466fa5 f   soapC.obj
 0001:00066030       ?soap_get_PointerTons1__AwardLotteryPrizeInfo@@YAPAPAVns1__AwardLotteryPrizeInfo@@PAUsoap@@PAPAV1@PBD2@Z 00467030 f   soapC.obj
 0001:00066074       ?soap_serialize_PointerToPointerTons1__AwardItemInfo@@YAXPAUsoap@@PBQAPAVns1__AwardItemInfo@@@Z 00467074 f   soapC.obj
 0001:000660aa       ?soap_out_PointerToPointerTons1__AwardItemInfo@@YAHPAUsoap@@PBDHPBQAPAVns1__AwardItemInfo@@1@Z 004670aa f   soapC.obj
 0001:0006610c       ?soap_in_PointerToPointerTons1__AwardItemInfo@@YAPAPAPAVns1__AwardItemInfo@@PAUsoap@@PBDPAPAPAV1@1@Z 0046710c f   soapC.obj
 0001:00066206       ?soap_put_PointerToPointerTons1__AwardItemInfo@@YAHPAUsoap@@PBQAPAVns1__AwardItemInfo@@PBD2@Z 00467206 f   soapC.obj
 0001:00066291       ?soap_get_PointerToPointerTons1__AwardItemInfo@@YAPAPAPAVns1__AwardItemInfo@@PAUsoap@@PAPAPAV1@PBD2@Z 00467291 f   soapC.obj
 0001:000662d5       ?soap_serialize_PointerTons1__AwardItemInfo@@YAXPAUsoap@@PBQAVns1__AwardItemInfo@@@Z 004672d5 f   soapC.obj
 0001:00066317       ?soap_out_PointerTons1__AwardItemInfo@@YAHPAUsoap@@PBDHPBQAVns1__AwardItemInfo@@1@Z 00467317 f   soapC.obj
 0001:00066385       ?soap_in_PointerTons1__AwardItemInfo@@YAPAPAVns1__AwardItemInfo@@PAUsoap@@PBDPAPAV1@1@Z 00467385 f   soapC.obj
 0001:000664ee       ?soap_put_PointerTons1__AwardItemInfo@@YAHPAUsoap@@PBQAVns1__AwardItemInfo@@PBD2@Z 004674ee f   soapC.obj
 0001:00066579       ?soap_get_PointerTons1__AwardItemInfo@@YAPAPAVns1__AwardItemInfo@@PAUsoap@@PAPAV1@PBD2@Z 00467579 f   soapC.obj
 0001:000665bd       ?soap_serialize_xsd__decimal@@YAXPAUsoap@@PBQAD@Z 004675bd f   soapC.obj
 0001:000665dd       ?soap_out_xsd__decimal@@YAHPAUsoap@@PBDHPBQAD1@Z 004675dd f   soapC.obj
 0001:00066607       ?soap_in_xsd__decimal@@YAPAPADPAUsoap@@PBDPAPAD1@Z 00467607 f   soapC.obj
 0001:00066646       ?soap_put_xsd__decimal@@YAHPAUsoap@@PBQADPBD2@Z 00467646 f   soapC.obj
 0001:000666d1       ?soap_get_xsd__decimal@@YAPAPADPAUsoap@@PAPADPBD2@Z 004676d1 f   soapC.obj
 0001:00066715       ?soap_serialize__QName@@YAXPAUsoap@@PBQAD@Z 00467715 f   soapC.obj
 0001:00066735       ?soap_out__QName@@YAHPAUsoap@@PBDHPBQAD1@Z 00467735 f   soapC.obj
 0001:0006675f       ?soap_in__QName@@YAPAPADPAUsoap@@PBDPAPAD1@Z 0046775f f   soapC.obj
 0001:0006679e       ?soap_put__QName@@YAHPAUsoap@@PBQADPBD2@Z 0046779e f   soapC.obj
 0001:00066829       ?soap_get__QName@@YAPAPADPAUsoap@@PAPADPBD2@Z 00467829 f   soapC.obj
 0001:0006686d       ?soap_default_string@@YAXPAUsoap@@PAPAD@Z 0046786d f   soapC.obj
 0001:0006687b       ?soap_serialize_string@@YAXPAUsoap@@PBQAD@Z 0046787b f   soapC.obj
 0001:0006689b       ?soap_out_string@@YAHPAUsoap@@PBDHPBQAD1@Z 0046789b f   soapC.obj
 0001:000668c5       ?soap_in_string@@YAPAPADPAUsoap@@PBDPAPAD1@Z 004678c5 f   soapC.obj
 0001:00066904       ?soap_put_string@@YAHPAUsoap@@PBQADPBD2@Z 00467904 f   soapC.obj
 0001:0006698f       ?soap_get_string@@YAPAPADPAUsoap@@PAPADPBD2@Z 0046798f f   soapC.obj
 0001:00070be0       ??_E_ns1__GetLotteryWinningListResponse_GetLotteryWinningListResult@@UAEPAXI@Z 00471be0 f i soapC.obj
 0001:00070c90       ??4_ns1__GetLotteryWinningListResponse_GetLotteryWinningListResult@@QAEAAV0@ABV0@@Z 00471c90 f i soapC.obj
 0001:00070ce0       ??_E_ns1__GetLotteryWinningTopResponse_GetLotteryWinningTopResult@@UAEPAXI@Z 00471ce0 f i soapC.obj
 0001:00070d90       ??4_ns1__GetLotteryWinningTopResponse_GetLotteryWinningTopResult@@QAEAAV0@ABV0@@Z 00471d90 f i soapC.obj
 0001:00070de0       ??_E_ns1__GetLotteryWinningListResponse@@UAEPAXI@Z 00471de0 f i soapC.obj
 0001:00070e90       ??4_ns1__GetLotteryWinningListResponse@@QAEAAV0@ABV0@@Z 00471e90 f i soapC.obj
 0001:00070ef0       ??_E_ns1__GetLotteryWinningList@@UAEPAXI@Z 00471ef0 f i soapC.obj
 0001:00070fa0       ??4_ns1__GetLotteryWinningList@@QAEAAV0@ABV0@@Z 00471fa0 f i soapC.obj
 0001:00071070       ??_E_ns1__GetLotteryWinningTopResponse@@UAEPAXI@Z 00472070 f i soapC.obj
 0001:00071120       ??4_ns1__GetLotteryWinningTopResponse@@QAEAAV0@ABV0@@Z 00472120 f i soapC.obj
 0001:00071170       ??_E_ns1__GetLotteryWinningTop@@UAEPAXI@Z 00472170 f i soapC.obj
 0001:00071220       ??4_ns1__GetLotteryWinningTop@@QAEAAV0@ABV0@@Z 00472220 f i soapC.obj
 0001:000712e0       ??_E_ns1__GetLotteryPrizeResponse@@UAEPAXI@Z 004722e0 f i soapC.obj
 0001:00071390       ??4_ns1__GetLotteryPrizeResponse@@QAEAAV0@ABV0@@Z 00472390 f i soapC.obj
 0001:000713e0       ??_E_ns1__GetLotteryPrize@@UAEPAXI@Z 004723e0 f i soapC.obj
 0001:00071490       ??4_ns1__GetLotteryPrize@@QAEAAV0@ABV0@@Z 00472490 f i soapC.obj
 0001:000714f0       ??_E_ns1__LotteryResponse@@UAEPAXI@Z 004724f0 f i soapC.obj
 0001:000715a0       ??4_ns1__LotteryResponse@@QAEAAV0@ABV0@@Z 004725a0 f i soapC.obj
 0001:00071600       ??_E_ns1__Lottery@@UAEPAXI@Z 00472600 f i soapC.obj
 0001:000716b0       ??4_ns1__Lottery@@QAEAAV0@ABV0@@Z 004726b0 f i soapC.obj
 0001:00071760       ??_E_ns1__GetAwardInfoResponse@@UAEPAXI@Z 00472760 f i soapC.obj
 0001:00071810       ??4_ns1__GetAwardInfoResponse@@QAEAAV0@ABV0@@Z 00472810 f i soapC.obj
 0001:00071850       ??_E_ns1__GetAwardInfo@@UAEPAXI@Z 00472850 f i soapC.obj
 0001:00071900       ??4_ns1__GetAwardInfo@@QAEAAV0@ABV0@@Z 00472900 f i soapC.obj
 0001:00071940       ??_E_ns1__GetAwardItemResponse@@UAEPAXI@Z 00472940 f i soapC.obj
 0001:000719f0       ??4_ns1__GetAwardItemResponse@@QAEAAV0@ABV0@@Z 004729f0 f i soapC.obj
 0001:00071a30       ??_E_ns1__GetAwardItem@@UAEPAXI@Z 00472a30 f i soapC.obj
 0001:00071ae0       ??4_ns1__GetAwardItem@@QAEAAV0@ABV0@@Z 00472ae0 f i soapC.obj
 0001:00071b20       ??_E_ns1__AwardItemResponse@@UAEPAXI@Z 00472b20 f i soapC.obj
 0001:00071bd0       ??4_ns1__AwardItemResponse@@QAEAAV0@ABV0@@Z 00472bd0 f i soapC.obj
 0001:00071c20       ??_E_ns1__AwardItem@@UAEPAXI@Z 00472c20 f i soapC.obj
 0001:00071cd0       ??4_ns1__AwardItem@@QAEAAV0@ABV0@@Z 00472cd0 f i soapC.obj
 0001:00071d70       ??_E_ns1__GetClothingIDResponse@@UAEPAXI@Z 00472d70 f i soapC.obj
 0001:00071e20       ??4_ns1__GetClothingIDResponse@@QAEAAV0@ABV0@@Z 00472e20 f i soapC.obj
 0001:00071e60       ??_E_ns1__GetClothingID@@UAEPAXI@Z 00472e60 f i soapC.obj
 0001:00071f10       ??4_ns1__GetClothingID@@QAEAAV0@ABV0@@Z 00472f10 f i soapC.obj
 0001:00071f50       ??_E_ns1__GetItemValueResponse@@UAEPAXI@Z 00472f50 f i soapC.obj
 0001:00072000       ??4_ns1__GetItemValueResponse@@QAEAAV0@ABV0@@Z 00473000 f i soapC.obj
 0001:00072040       ??_E_ns1__GetItemValue@@UAEPAXI@Z 00473040 f i soapC.obj
 0001:000720f0       ??4_ns1__GetItemValue@@QAEAAV0@ABV0@@Z 004730f0 f i soapC.obj
 0001:00072140       ??_E_ns1__GetItemByItemIDResponse@@UAEPAXI@Z 00473140 f i soapC.obj
 0001:000721f0       ??4_ns1__GetItemByItemIDResponse@@QAEAAV0@ABV0@@Z 004731f0 f i soapC.obj
 0001:00072230       ??_E_ns1__GetItemByItemID@@UAEPAXI@Z 00473230 f i soapC.obj
 0001:000722e0       ??4_ns1__GetItemByItemID@@QAEAAV0@ABV0@@Z 004732e0 f i soapC.obj
 0001:00072320       ??_E_ns1__GetItemByCodeResponse@@UAEPAXI@Z 00473320 f i soapC.obj
 0001:000723d0       ??4_ns1__GetItemByCodeResponse@@QAEAAV0@ABV0@@Z 004733d0 f i soapC.obj
 0001:00072410       ??_E_ns1__GetItemByCode@@UAEPAXI@Z 00473410 f i soapC.obj
 0001:000724c0       ??4_ns1__GetItemByCode@@QAEAAV0@ABV0@@Z 004734c0 f i soapC.obj
 0001:00072500       ??_Ens1__ArrayOfAwardLotteryPrizeInfo@@UAEPAXI@Z 00473500 f i soapC.obj
 0001:000725b0       ??4ns1__ArrayOfAwardLotteryPrizeInfo@@QAEAAV0@ABV0@@Z 004735b0 f i soapC.obj
 0001:00072600       ??_Ens1__AwardLotteryPrizeInfo@@UAEPAXI@Z 00473600 f i soapC.obj
 0001:000726b0       ??4ns1__AwardLotteryPrizeInfo@@QAEAAV0@ABV0@@Z 004736b0 f i soapC.obj
 0001:00072750       ??_Ens1__AwardInfo@@UAEPAXI@Z 00473750 f i soapC.obj
 0001:00072800       ??4ns1__AwardInfo@@QAEAAV0@ABV0@@Z 00473800 f i soapC.obj
 0001:00072920       ??_Ens1__AwardItemInfo@@UAEPAXI@Z 00473920 f i soapC.obj
 0001:000729d0       ??4ns1__AwardItemInfo@@QAEAAV0@ABV0@@Z 004739d0 f i soapC.obj
 0001:00072ae0       ??_Ens1__ArrayOfAwardItemInfo@@UAEPAXI@Z 00473ae0 f i soapC.obj
 0001:00072b90       ??4ns1__ArrayOfAwardItemInfo@@QAEAAV0@ABV0@@Z 00473b90 f i soapC.obj
 0001:00072be0       ??0ns1__ArrayOfAwardItemInfo@@QAE@XZ 00473be0 f i soapC.obj
 0001:00072c20       ?soap_type@ns1__ArrayOfAwardItemInfo@@UBEHXZ 00473c20 f i soapC.obj
 0001:00072c40       ??1ns1__ArrayOfAwardItemInfo@@UAE@XZ 00473c40 f i soapC.obj
 0001:00072c70       ??0ns1__AwardItemInfo@@QAE@XZ 00473c70 f i soapC.obj
 0001:00072cb0       ?soap_type@ns1__AwardItemInfo@@UBEHXZ 00473cb0 f i soapC.obj
 0001:00072cd0       ??1ns1__AwardItemInfo@@UAE@XZ 00473cd0 f i soapC.obj
 0001:00072d00       ??0ns1__AwardInfo@@QAE@XZ  00473d00 f i soapC.obj
 0001:00072d40       ?soap_type@ns1__AwardInfo@@UBEHXZ 00473d40 f i soapC.obj
 0001:00072d60       ??1ns1__AwardInfo@@UAE@XZ  00473d60 f i soapC.obj
 0001:00072d90       ??0ns1__AwardLotteryPrizeInfo@@QAE@XZ 00473d90 f i soapC.obj
 0001:00072dd0       ?soap_type@ns1__AwardLotteryPrizeInfo@@UBEHXZ 00473dd0 f i soapC.obj
 0001:00072df0       ??1ns1__AwardLotteryPrizeInfo@@UAE@XZ 00473df0 f i soapC.obj
 0001:00072e20       ??0ns1__ArrayOfAwardLotteryPrizeInfo@@QAE@XZ 00473e20 f i soapC.obj
 0001:00072e60       ?soap_type@ns1__ArrayOfAwardLotteryPrizeInfo@@UBEHXZ 00473e60 f i soapC.obj
 0001:00072e80       ??1ns1__ArrayOfAwardLotteryPrizeInfo@@UAE@XZ 00473e80 f i soapC.obj
 0001:00072eb0       ??0_ns1__GetItemByCode@@QAE@XZ 00473eb0 f i soapC.obj
 0001:00072ef0       ?soap_type@_ns1__GetItemByCode@@UBEHXZ 00473ef0 f i soapC.obj
 0001:00072f10       ??1_ns1__GetItemByCode@@UAE@XZ 00473f10 f i soapC.obj
 0001:00072f40       ??0ns1__ItemInfo@@QAE@XZ   00473f40 f i soapC.obj
 0001:00072f80       ?soap_type@ns1__ItemInfo@@UBEHXZ 00473f80 f i soapC.obj
 0001:00072fa0       ??1ns1__ItemInfo@@UAE@XZ   00473fa0 f i soapC.obj
 0001:00072fd0       ??0_ns1__GetItemByCodeResponse@@QAE@XZ 00473fd0 f i soapC.obj
 0001:00073010       ?soap_type@_ns1__GetItemByCodeResponse@@UBEHXZ 00474010 f i soapC.obj
 0001:00073030       ??1_ns1__GetItemByCodeResponse@@UAE@XZ 00474030 f i soapC.obj
 0001:00073060       ??0_ns1__GetItemByItemID@@QAE@XZ 00474060 f i soapC.obj
 0001:000730a0       ?soap_type@_ns1__GetItemByItemID@@UBEHXZ 004740a0 f i soapC.obj
 0001:000730c0       ??1_ns1__GetItemByItemID@@UAE@XZ 004740c0 f i soapC.obj
 0001:000730f0       ??0_ns1__GetItemByItemIDResponse@@QAE@XZ 004740f0 f i soapC.obj
 0001:00073130       ?soap_type@_ns1__GetItemByItemIDResponse@@UBEHXZ 00474130 f i soapC.obj
 0001:00073150       ??1_ns1__GetItemByItemIDResponse@@UAE@XZ 00474150 f i soapC.obj
 0001:00073180       ??_Ens1__ItemInfo@@UAEPAXI@Z 00474180 f i soapC.obj
 0001:00073230       ??0_ns1__GetItemValue@@QAE@XZ 00474230 f i soapC.obj
 0001:00073270       ?soap_type@_ns1__GetItemValue@@UBEHXZ 00474270 f i soapC.obj
 0001:00073290       ??1_ns1__GetItemValue@@UAE@XZ 00474290 f i soapC.obj
 0001:000732c0       ??4ns1__ItemInfo@@QAEAAV0@ABV0@@Z 004742c0 f i soapC.obj
 0001:00073510       ??0_ns1__GetItemValueResponse@@QAE@XZ 00474510 f i soapC.obj
 0001:00073550       ?soap_type@_ns1__GetItemValueResponse@@UBEHXZ 00474550 f i soapC.obj
 0001:00073570       ??1_ns1__GetItemValueResponse@@UAE@XZ 00474570 f i soapC.obj
 0001:000735a0       ??0_ns1__GetClothingID@@QAE@XZ 004745a0 f i soapC.obj
 0001:000735e0       ?soap_type@_ns1__GetClothingID@@UBEHXZ 004745e0 f i soapC.obj
 0001:00073600       ??1_ns1__GetClothingID@@UAE@XZ 00474600 f i soapC.obj
 0001:00073630       ??0_ns1__GetClothingIDResponse@@QAE@XZ 00474630 f i soapC.obj
 0001:00073670       ?soap_type@_ns1__GetClothingIDResponse@@UBEHXZ 00474670 f i soapC.obj
 0001:00073690       ??1_ns1__GetClothingIDResponse@@UAE@XZ 00474690 f i soapC.obj
 0001:000736c0       ??0_ns1__AwardItem@@QAE@XZ 004746c0 f i soapC.obj
 0001:00073700       ?soap_type@_ns1__AwardItem@@UBEHXZ 00474700 f i soapC.obj
 0001:00073720       ??1_ns1__AwardItem@@UAE@XZ 00474720 f i soapC.obj
 0001:00073750       ??0_ns1__AwardItemResponse@@QAE@XZ 00474750 f i soapC.obj
 0001:00073790       ?soap_type@_ns1__AwardItemResponse@@UBEHXZ 00474790 f i soapC.obj
 0001:000737b0       ??1_ns1__AwardItemResponse@@UAE@XZ 004747b0 f i soapC.obj
 0001:000737e0       ??0_ns1__GetAwardItem@@QAE@XZ 004747e0 f i soapC.obj
 0001:00073820       ?soap_type@_ns1__GetAwardItem@@UBEHXZ 00474820 f i soapC.obj
 0001:00073840       ??1_ns1__GetAwardItem@@UAE@XZ 00474840 f i soapC.obj
 0001:00073870       ??0_ns1__GetAwardItemResponse@@QAE@XZ 00474870 f i soapC.obj
 0001:000738b0       ?soap_type@_ns1__GetAwardItemResponse@@UBEHXZ 004748b0 f i soapC.obj
 0001:000738d0       ??1_ns1__GetAwardItemResponse@@UAE@XZ 004748d0 f i soapC.obj
 0001:00073900       ??0_ns1__GetAwardInfo@@QAE@XZ 00474900 f i soapC.obj
 0001:00073940       ?soap_type@_ns1__GetAwardInfo@@UBEHXZ 00474940 f i soapC.obj
 0001:00073960       ??1_ns1__GetAwardInfo@@UAE@XZ 00474960 f i soapC.obj
 0001:00073990       ??0_ns1__GetAwardInfoResponse@@QAE@XZ 00474990 f i soapC.obj
 0001:000739d0       ?soap_type@_ns1__GetAwardInfoResponse@@UBEHXZ 004749d0 f i soapC.obj
 0001:000739f0       ??1_ns1__GetAwardInfoResponse@@UAE@XZ 004749f0 f i soapC.obj
 0001:00073a20       ??0_ns1__Lottery@@QAE@XZ   00474a20 f i soapC.obj
 0001:00073a60       ?soap_type@_ns1__Lottery@@UBEHXZ 00474a60 f i soapC.obj
 0001:00073a80       ??1_ns1__Lottery@@UAE@XZ   00474a80 f i soapC.obj
 0001:00073ab0       ??0_ns1__LotteryResponse@@QAE@XZ 00474ab0 f i soapC.obj
 0001:00073af0       ?soap_type@_ns1__LotteryResponse@@UBEHXZ 00474af0 f i soapC.obj
 0001:00073b10       ??1_ns1__LotteryResponse@@UAE@XZ 00474b10 f i soapC.obj
 0001:00073b40       ??0_ns1__GetLotteryPrize@@QAE@XZ 00474b40 f i soapC.obj
 0001:00073b80       ?soap_type@_ns1__GetLotteryPrize@@UBEHXZ 00474b80 f i soapC.obj
 0001:00073ba0       ??1_ns1__GetLotteryPrize@@UAE@XZ 00474ba0 f i soapC.obj
 0001:00073bd0       ??0_ns1__GetLotteryPrizeResponse@@QAE@XZ 00474bd0 f i soapC.obj
 0001:00073c10       ?soap_type@_ns1__GetLotteryPrizeResponse@@UBEHXZ 00474c10 f i soapC.obj
 0001:00073c30       ??1_ns1__GetLotteryPrizeResponse@@UAE@XZ 00474c30 f i soapC.obj
 0001:00073c60       ??0_ns1__GetLotteryWinningTop@@QAE@XZ 00474c60 f i soapC.obj
 0001:00073ca0       ?soap_type@_ns1__GetLotteryWinningTop@@UBEHXZ 00474ca0 f i soapC.obj
 0001:00073cc0       ??1_ns1__GetLotteryWinningTop@@UAE@XZ 00474cc0 f i soapC.obj
 0001:00073cf0       ??0_ns1__GetLotteryWinningTopResponse_GetLotteryWinningTopResult@@QAE@XZ 00474cf0 f i soapC.obj
 0001:00073d30       ?soap_type@_ns1__GetLotteryWinningTopResponse_GetLotteryWinningTopResult@@UBEHXZ 00474d30 f i soapC.obj
 0001:00073d50       ??1_ns1__GetLotteryWinningTopResponse_GetLotteryWinningTopResult@@UAE@XZ 00474d50 f i soapC.obj
 0001:00073d80       ??0_ns1__GetLotteryWinningTopResponse@@QAE@XZ 00474d80 f i soapC.obj
 0001:00073dc0       ?soap_type@_ns1__GetLotteryWinningTopResponse@@UBEHXZ 00474dc0 f i soapC.obj
 0001:00073de0       ??1_ns1__GetLotteryWinningTopResponse@@UAE@XZ 00474de0 f i soapC.obj
 0001:00073e10       ??0_ns1__GetLotteryWinningList@@QAE@XZ 00474e10 f i soapC.obj
 0001:00073e50       ?soap_type@_ns1__GetLotteryWinningList@@UBEHXZ 00474e50 f i soapC.obj
 0001:00073e70       ??1_ns1__GetLotteryWinningList@@UAE@XZ 00474e70 f i soapC.obj
 0001:00073ea0       ??0_ns1__GetLotteryWinningListResponse_GetLotteryWinningListResult@@QAE@XZ 00474ea0 f i soapC.obj
 0001:00073ee0       ?soap_type@_ns1__GetLotteryWinningListResponse_GetLotteryWinningListResult@@UBEHXZ 00474ee0 f i soapC.obj
 0001:00073f00       ??1_ns1__GetLotteryWinningListResponse_GetLotteryWinningListResult@@UAE@XZ 00474f00 f i soapC.obj
 0001:00073f30       ??0_ns1__GetLotteryWinningListResponse@@QAE@XZ 00474f30 f i soapC.obj
 0001:00073f70       ?soap_type@_ns1__GetLotteryWinningListResponse@@UBEHXZ 00474f70 f i soapC.obj
 0001:00073f90       ??1_ns1__GetLotteryWinningListResponse@@UAE@XZ 00474f90 f i soapC.obj
 0001:00073fc0       ?soap_new_SOAP_ENV__Fault@@YAPAUSOAP_ENV__Fault@@PAUsoap@@H@Z 00474fc0 f i soapC.obj
 0001:00073ff0       ?soap_new_SOAP_ENV__Reason@@YAPAUSOAP_ENV__Reason@@PAUsoap@@H@Z 00474ff0 f i soapC.obj
 0001:00074020       ?soap_new_SOAP_ENV__Detail@@YAPAUSOAP_ENV__Detail@@PAUsoap@@H@Z 00475020 f i soapC.obj
 0001:00074050       ?soap_new_SOAP_ENV__Code@@YAPAUSOAP_ENV__Code@@PAUsoap@@H@Z 00475050 f i soapC.obj
 0001:00074080       ?soap_new_SOAP_ENV__Header@@YAPAUSOAP_ENV__Header@@PAUsoap@@H@Z 00475080 f i soapC.obj
 0001:000740b0       ?soap_call___ns1__GetItemByCode@@YAHPAUsoap@@PBD1PAV_ns1__GetItemByCode@@PAV_ns1__GetItemByCodeResponse@@@Z 004750b0 f   soapClient.obj
 0001:0007439a       ?soap_call___ns1__GetItemByItemID@@YAHPAUsoap@@PBD1PAV_ns1__GetItemByItemID@@PAV_ns1__GetItemByItemIDResponse@@@Z 0047539a f   soapClient.obj
 0001:00074684       ?soap_call___ns1__GetItemValue@@YAHPAUsoap@@PBD1PAV_ns1__GetItemValue@@PAV_ns1__GetItemValueResponse@@@Z 00475684 f   soapClient.obj
 0001:0007496e       ?soap_call___ns1__GetClothingID@@YAHPAUsoap@@PBD1PAV_ns1__GetClothingID@@PAV_ns1__GetClothingIDResponse@@@Z 0047596e f   soapClient.obj
 0001:00074c58       ?soap_call___ns1__AwardItem@@YAHPAUsoap@@PBD1PAV_ns1__AwardItem@@PAV_ns1__AwardItemResponse@@@Z 00475c58 f   soapClient.obj
 0001:00074f42       ?soap_call___ns1__GetAwardItem@@YAHPAUsoap@@PBD1PAV_ns1__GetAwardItem@@PAV_ns1__GetAwardItemResponse@@@Z 00475f42 f   soapClient.obj
 0001:0007522c       ?soap_call___ns1__GetAwardInfo@@YAHPAUsoap@@PBD1PAV_ns1__GetAwardInfo@@PAV_ns1__GetAwardInfoResponse@@@Z 0047622c f   soapClient.obj
 0001:00075516       ?soap_call___ns1__Lottery@@YAHPAUsoap@@PBD1PAV_ns1__Lottery@@PAV_ns1__LotteryResponse@@@Z 00476516 f   soapClient.obj
 0001:00075800       ?soap_call___ns1__GetLotteryPrize@@YAHPAUsoap@@PBD1PAV_ns1__GetLotteryPrize@@PAV_ns1__GetLotteryPrizeResponse@@@Z 00476800 f   soapClient.obj
 0001:00075aea       ?soap_call___ns1__GetLotteryWinningTop@@YAHPAUsoap@@PBD1PAV_ns1__GetLotteryWinningTop@@PAV_ns1__GetLotteryWinningTopResponse@@@Z 00476aea f   soapClient.obj
 0001:00075dd4       ?soap_call___ns1__GetLotteryWinningList@@YAHPAUsoap@@PBD1PAV_ns1__GetLotteryWinningList@@PAV_ns1__GetLotteryWinningListResponse@@@Z 00476dd4 f   soapClient.obj
 0001:000760be       ?soap_call___ns1__GetItemByCode_@@YAHPAUsoap@@PBD1PAV_ns1__GetItemByCode@@PAV_ns1__GetItemByCodeResponse@@@Z 004770be f   soapClient.obj
 0001:000763a8       ?soap_call___ns1__GetItemByItemID_@@YAHPAUsoap@@PBD1PAV_ns1__GetItemByItemID@@PAV_ns1__GetItemByItemIDResponse@@@Z 004773a8 f   soapClient.obj
 0001:00076692       ?soap_call___ns1__GetItemValue_@@YAHPAUsoap@@PBD1PAV_ns1__GetItemValue@@PAV_ns1__GetItemValueResponse@@@Z 00477692 f   soapClient.obj
 0001:0007697c       ?soap_call___ns1__GetClothingID_@@YAHPAUsoap@@PBD1PAV_ns1__GetClothingID@@PAV_ns1__GetClothingIDResponse@@@Z 0047797c f   soapClient.obj
 0001:00076c66       ?soap_call___ns1__AwardItem_@@YAHPAUsoap@@PBD1PAV_ns1__AwardItem@@PAV_ns1__AwardItemResponse@@@Z 00477c66 f   soapClient.obj
 0001:00076f50       ?soap_call___ns1__GetAwardItem_@@YAHPAUsoap@@PBD1PAV_ns1__GetAwardItem@@PAV_ns1__GetAwardItemResponse@@@Z 00477f50 f   soapClient.obj
 0001:0007723a       ?soap_call___ns1__GetAwardInfo_@@YAHPAUsoap@@PBD1PAV_ns1__GetAwardInfo@@PAV_ns1__GetAwardInfoResponse@@@Z 0047823a f   soapClient.obj
 0001:00077524       ?soap_call___ns1__Lottery_@@YAHPAUsoap@@PBD1PAV_ns1__Lottery@@PAV_ns1__LotteryResponse@@@Z 00478524 f   soapClient.obj
 0001:0007780e       ?soap_call___ns1__GetLotteryPrize_@@YAHPAUsoap@@PBD1PAV_ns1__GetLotteryPrize@@PAV_ns1__GetLotteryPrizeResponse@@@Z 0047880e f   soapClient.obj
 0001:00077af8       ?soap_call___ns1__GetLotteryWinningTop_@@YAHPAUsoap@@PBD1PAV_ns1__GetLotteryWinningTop@@PAV_ns1__GetLotteryWinningTopResponse@@@Z 00478af8 f   soapClient.obj
 0001:00077de2       ?soap_call___ns1__GetLotteryWinningList_@@YAHPAUsoap@@PBD1PAV_ns1__GetLotteryWinningList@@PAV_ns1__GetLotteryWinningListResponse@@@Z 00478de2 f   soapClient.obj
 0001:000790e0       _soap_send_raw             0047a0e0 f   stdsoap2.obj
 0001:000792ce       _soap_flush                0047a2ce f   stdsoap2.obj
 0001:0007938d       _soap_flush_raw            0047a38d f   stdsoap2.obj
 0001:00079654       _soap_send                 0047a654 f   stdsoap2.obj
 0001:00079687       _soap_send2                0047a687 f   stdsoap2.obj
 0001:000796c2       _soap_send3                0047a6c2 f   stdsoap2.obj
 0001:00079711       _soap_recv_raw             0047a711 f   stdsoap2.obj
 0001:0007a2ed       _soap_recv                 0047b2ed f   stdsoap2.obj
 0001:0007abb0       _soap_getchar              0047bbb0 f   stdsoap2.obj
 0001:0007ac59       _soap_code                 0047bc59 f   stdsoap2.obj
 0001:0007aca3       _soap_code_int             0047bca3 f   stdsoap2.obj
 0001:0007acea       _soap_code_str             0047bcea f   stdsoap2.obj
 0001:0007ad1d       _soap_code_bits            0047bd1d f   stdsoap2.obj
 0001:0007ae34       _soap_code_list            0047be34 f   stdsoap2.obj
 0001:0007af01       _soap_get                  0047bf01 f   stdsoap2.obj
 0001:0007bb37       _soap_move                 0047cb37 f   stdsoap2.obj
 0001:0007bbea       _soap_tell                 0047cbea f   stdsoap2.obj
 0001:0007bc1b       _soap_pututf8              0047cc1b f   stdsoap2.obj
 0001:0007bdee       _soap_getutf8              0047cdee f   stdsoap2.obj
 0001:0007c148       _soap_puthex               0047d148 f   stdsoap2.obj
 0001:0007c207       _soap_gethex               0047d207 f   stdsoap2.obj
 0001:0007c3fa       _soap_putbase64            0047d3fa f   stdsoap2.obj
 0001:0007c5c0       _soap_getbase64            0047d5c0 f   stdsoap2.obj
 0001:0007c8cf       _soap_xop_forward          0047d8cf f   stdsoap2.obj
 0001:0007c981       _soap_dime_forward         0047d981 f   stdsoap2.obj
 0001:0007ca77       _soap_strdup               0047da77 f   stdsoap2.obj
 0001:0007cad5       _soap_wstrdup              0047dad5 f   stdsoap2.obj
 0001:0007cb5e       _soap_new_block            0047db5e f   stdsoap2.obj
 0001:0007cc4f       _soap_push_block           0047dc4f f   stdsoap2.obj
 0001:0007cd62       _soap_pop_block            0047dd62 f   stdsoap2.obj
 0001:0007ce4c       _soap_update_pointers      0047de4c f   stdsoap2.obj
 0001:0007d341       _soap_resolve              0047e341 f   stdsoap2.obj
 0001:0007dc8c       _soap_size_block           0047ec8c f   stdsoap2.obj
 0001:0007dcd5       _soap_first_block          0047ecd5 f   stdsoap2.obj
 0001:0007ddc2       _soap_next_block           0047edc2 f   stdsoap2.obj
 0001:0007deac       _soap_block_size           0047eeac f   stdsoap2.obj
 0001:0007dec9       _soap_end_block            0047eec9 f   stdsoap2.obj
 0001:0007e085       _soap_save_block           0047f085 f   stdsoap2.obj
 0001:0007e295       _soap_putsize              0047f295 f   stdsoap2.obj
 0001:0007e2b7       _soap_putsizes             0047f2b7 f   stdsoap2.obj
 0001:0007e2dd       _soap_putsizesoffsets      0047f2dd f   stdsoap2.obj
 0001:0007e54d       _soap_putoffset            0047f54d f   stdsoap2.obj
 0001:0007e56b       _soap_putoffsets           0047f56b f   stdsoap2.obj
 0001:0007e652       _soap_size                 0047f652 f   stdsoap2.obj
 0001:0007e6a1       _soap_getoffsets           0047f6a1 f   stdsoap2.obj
 0001:0007e7f5       _soap_getsize              0047f7f5 f   stdsoap2.obj
 0001:0007e95c       _soap_getsizes             0047f95c f   stdsoap2.obj
 0001:0007ea69       _soap_getposition          0047fa69 f   stdsoap2.obj
 0001:0007eb4f       _soap_push_namespace       0047fb4f f   stdsoap2.obj
 0001:0007eec6       _soap_pop_namespace        0047fec6 f   stdsoap2.obj
 0001:0007efcb       _soap_match_namespace      0047ffcb f   stdsoap2.obj
 0001:0007f15b       _soap_current_namespace    0048015b f   stdsoap2.obj
 0001:0007f298       _soap_tag_cmp              00480298 f   stdsoap2.obj
 0001:0007f3ff       _soap_match_tag            004803ff f   stdsoap2.obj
 0001:0007f7dd       _soap_match_array          004807dd f   stdsoap2.obj
 0001:0007f8ec       _soap_bind                 004808ec f   stdsoap2.obj
 0001:000800c4       _soap_poll                 004810c4 f   stdsoap2.obj
 0001:00080656       _soap_accept               00481656 f   stdsoap2.obj
 0001:00080ecb       _soap_closesock            00481ecb f   stdsoap2.obj
 0001:00080ff4       _soap_force_closesock      00481ff4 f   stdsoap2.obj
 0001:00081037       _soap_cleanup              00482037 f   stdsoap2.obj
 0001:00081075       _soap_done                 00482075 f   stdsoap2.obj
 0001:00084384       _soap_get_header_attribute 00485384 f   stdsoap2.obj
 0001:00084427       _soap_decode_key           00485427 f   stdsoap2.obj
 0001:0008444c       _soap_decode_val           0048544c f   stdsoap2.obj
 0001:000854b2       _soap_response             004864b2 f   stdsoap2.obj
 0001:00085606       _soap_url                  00486606 f   stdsoap2.obj
 0001:0008568c       _soap_encode_url           0048668c f   stdsoap2.obj
 0001:000857b1       _soap_encode_url_string    004867b1 f   stdsoap2.obj
 0001:00085825       _soap_hash                 00486825 f   stdsoap2.obj
 0001:00085872       _soap_new_LIBRARY_VERSION_REQUIRED_20816 00486872 f   stdsoap2.obj
 0001:000858c4       _soap_free                 004868c4 f   stdsoap2.obj
 0001:000858f4       _soap_del                  004868f4 f   stdsoap2.obj
 0001:00085918       _soap_embed                00486918 f   stdsoap2.obj
 0001:000859dd       _soap_pointer_lookup       004869dd f   stdsoap2.obj
 0001:00085b66       _soap_pointer_enter        00486b66 f   stdsoap2.obj
 0001:00085da7       _soap_array_pointer_lookup 00486da7 f   stdsoap2.obj
 0001:00085f90       _soap_begin_count          00486f90 f   stdsoap2.obj
 0001:0008626a       _soap_end_count            0048726a f   stdsoap2.obj
 0001:00086342       _soap_begin_send           00487342 f   stdsoap2.obj
 0001:00086744       _soap_embedded             00487744 f   stdsoap2.obj
 0001:00086803       _soap_reference            00487803 f   stdsoap2.obj
 0001:00086949       _soap_array_reference      00487949 f   stdsoap2.obj
 0001:00086ab0       _soap_embedded_id          00487ab0 f   stdsoap2.obj
 0001:00086d93       _soap_is_embedded          00487d93 f   stdsoap2.obj
 0001:00086ebf       _soap_is_single            00487ebf f   stdsoap2.obj
 0001:00086f0b       _soap_set_embedded         00487f0b f   stdsoap2.obj
 0001:00086f35       _soap_attachment           00487f35 f   stdsoap2.obj
 0001:0008733c       _soap_lookup               0048833c f   stdsoap2.obj
 0001:000873a2       _soap_enter                004883a2 f   stdsoap2.obj
 0001:00087434       _soap_malloc               00488434 f   stdsoap2.obj
 0001:00087624       _soap_track_malloc         00488624 f   stdsoap2.obj
 0001:00087762       _soap_track_free           00488762 f   stdsoap2.obj
 0001:000878ee       _soap_dealloc              004888ee f   stdsoap2.obj
 0001:00087ed9       _soap_delete               00488ed9 f   stdsoap2.obj
 0001:000881e8       _soap_delegate_deletion    004891e8 f   stdsoap2.obj
 0001:00088584       _soap_link                 00489584 f   stdsoap2.obj
 0001:000885f9       _soap_unlink               004895f9 f   stdsoap2.obj
 0001:00088839       _soap_lookup_type          00489839 f   stdsoap2.obj
 0001:00088980       _soap_id_lookup            00489980 f   stdsoap2.obj
 0001:00088fb4       _soap_id_forward           00489fb4 f   stdsoap2.obj
 0001:00089399       _soap_id_enter             0048a399 f   stdsoap2.obj
 0001:0008986b       _soap_fcopy                0048a86b f   stdsoap2.obj
 0001:00089917       _soap_end_send             0048a917 f   stdsoap2.obj
 0001:00089a0e       _soap_end_send_flush       0048aa0e f   stdsoap2.obj
 0001:00089feb       _soap_end_recv             0048afeb f   stdsoap2.obj
 0001:0008a348       _soap_free_temp            0048b348 f   stdsoap2.obj
 0001:0008a957       _soap_open_logfile         0048b957 f   stdsoap2.obj
 0001:0008aa18       _soap_close_logfiles       0048ba18 f   stdsoap2.obj
 0001:0008aa5b       _soap_set_recv_logfile     0048ba5b f   stdsoap2.obj
 0001:0008ab47       _soap_set_sent_logfile     0048bb47 f   stdsoap2.obj
 0001:0008ab65       _soap_set_test_logfile     0048bb65 f   stdsoap2.obj
 0001:0008ab83       _soap_copy                 0048bb83 f   stdsoap2.obj
 0001:0008abb5       _soap_copy_context         0048bbb5 f   stdsoap2.obj
 0001:0008b0d6       _soap_copy_stream          0048c0d6 f   stdsoap2.obj
 0001:0008b707       _soap_free_stream          0048c707 f   stdsoap2.obj
 0001:0008b733       _soap_initialize           0048c733 f   stdsoap2.obj
 0001:0008b74f       _soap_init_LIBRARY_VERSION_REQUIRED_20816 0048c74f f   stdsoap2.obj
 0001:0008bf93       _soap_begin                0048cf93 f   stdsoap2.obj
 0001:0008c157       _soap_end                  0048d157 f   stdsoap2.obj
 0001:0008c1fe       _soap_set_version          0048d1fe f   stdsoap2.obj
 0001:0008c278       _soap_set_namespaces       0048d278 f   stdsoap2.obj
 0001:0008c485       _soap_set_local_namespaces 0048d485 f   stdsoap2.obj
 0001:0008c5b2       _soap_tagsearch            0048d5b2 f   stdsoap2.obj
 0001:0008c6aa       _soap_lookup_ns            0048d6aa f   stdsoap2.obj
 0001:0008c71a       _soap_element              0048d71a f   stdsoap2.obj
 0001:0008d46e       _soap_element_begin_out    0048e46e f   stdsoap2.obj
 0001:0008d4be       _soap_array_begin_out      0048e4be f   stdsoap2.obj
 0001:0008d6dd       _soap_element_start_end_out 0048e6dd f   stdsoap2.obj
 0001:0008dae4       _soap_element_end_out      0048eae4 f   stdsoap2.obj
 0001:0008dcc0       _soap_element_ref          0048ecc0 f   stdsoap2.obj
 0001:0008dd6c       _soap_element_href         0048ed6c f   stdsoap2.obj
 0001:0008de4f       _soap_element_null         0048ee4f f   stdsoap2.obj
 0001:0008df4e       _soap_element_nil          0048ef4e f   stdsoap2.obj
 0001:0008dfb6       _soap_element_id           0048efb6 f   stdsoap2.obj
 0001:0008e0dd       _soap_element_result       0048f0dd f   stdsoap2.obj
 0001:0008e17f       _soap_check_result         0048f17f f   stdsoap2.obj
 0001:0008e1bd       _soap_attribute            0048f1bd f   stdsoap2.obj
 0001:0008e378       _soap_element_begin_in     0048f378 f   stdsoap2.obj
 0001:0008e5ae       _soap_element_end_in       0048f5ae f   stdsoap2.obj
 0001:0008e967       _soap_attr_value           0048f967 f   stdsoap2.obj
 0001:0008ea43       _soap_set_attr             0048fa43 f   stdsoap2.obj
 0001:0008f1ba       _soap_clr_attr             004901ba f   stdsoap2.obj
 0001:0008f286       _soap_store_lab            00490286 f   stdsoap2.obj
 0001:0008f2b3       _soap_append_lab           004902b3 f   stdsoap2.obj
 0001:0008f51d       _soap_peek_element         0049051d f   stdsoap2.obj
 0001:00090ba0       _soap_retry                00491ba0 f   stdsoap2.obj
 0001:00090bc5       _soap_revert               00491bc5 f   stdsoap2.obj
 0001:00090c99       _soap_string_out           00491c99 f   stdsoap2.obj
 0001:00091110       _soap_string_in            00492110 f   stdsoap2.obj
 0001:000924da       _soap_wstring_out          004934da f   stdsoap2.obj
 0001:00092725       _soap_wstring_in           00493725 f   stdsoap2.obj
 0001:00092e59       _soap_int2s                00493e59 f   stdsoap2.obj
 0001:00092e75       _soap_outint               00493e75 f   stdsoap2.obj
 0001:00092ef2       _soap_s2int                00493ef2 f   stdsoap2.obj
 0001:00092f98       _soap_inint                00493f98 f   stdsoap2.obj
 0001:00093129       _soap_long2s               00494129 f   stdsoap2.obj
 0001:00093164       _soap_outlong              00494164 f   stdsoap2.obj
 0001:000931e1       _soap_s2long               004941e1 f   stdsoap2.obj
 0001:00093270       _soap_inlong               00494270 f   stdsoap2.obj
 0001:00093401       _soap_LONG642s             00494401 f   stdsoap2.obj
 0001:00093440       _soap_outLONG64            00494440 f   stdsoap2.obj
 0001:000934c1       _soap_s2LONG64             004944c1 f   stdsoap2.obj
 0001:0009350f       _soap_inLONG64             0049450f f   stdsoap2.obj
 0001:00093770       _soap_byte2s               00494770 f   stdsoap2.obj
 0001:0009378d       _soap_outbyte              0049478d f   stdsoap2.obj
 0001:0009380b       _soap_s2byte               0049480b f   stdsoap2.obj
 0001:00093890       _soap_inbyte               00494890 f   stdsoap2.obj
 0001:000939e0       _soap_short2s              004949e0 f   stdsoap2.obj
 0001:000939fd       _soap_outshort             004949fd f   stdsoap2.obj
 0001:00093a7b       _soap_s2short              00494a7b f   stdsoap2.obj
 0001:00093b08       _soap_inshort              00494b08 f   stdsoap2.obj
 0001:00093c74       _soap_float2s              00494c74 f   stdsoap2.obj
 0001:00093d87       _soap_outfloat             00494d87 f   stdsoap2.obj
 0001:00093e04       _soap_s2float              00494e04 f   stdsoap2.obj
 0001:00093f35       _soap_infloat              00494f35 f   stdsoap2.obj
 0001:000942ab       _soap_double2s             004952ab f   stdsoap2.obj
 0001:000943bb       _soap_outdouble            004953bb f   stdsoap2.obj
 0001:0009443c       _soap_s2double             0049543c f   stdsoap2.obj
 0001:0009458d       _soap_indouble             0049558d f   stdsoap2.obj
 0001:0009469b       _soap_unsignedByte2s       0049569b f   stdsoap2.obj
 0001:000946bc       _soap_outunsignedByte      004956bc f   stdsoap2.obj
 0001:0009473b       _soap_s2unsignedByte       0049573b f   stdsoap2.obj
 0001:000947bd       _soap_inunsignedByte       004957bd f   stdsoap2.obj
 0001:0009490d       _soap_unsignedShort2s      0049590d f   stdsoap2.obj
 0001:0009492e       _soap_outunsignedShort     0049592e f   stdsoap2.obj
 0001:000949ae       _soap_s2unsignedShort      004959ae f   stdsoap2.obj
 0001:00094a32       _soap_inunsignedShort      00495a32 f   stdsoap2.obj
 0001:00094b9e       _soap_unsignedInt2s        00495b9e f   stdsoap2.obj
 0001:00094bba       _soap_outunsignedInt       00495bba f   stdsoap2.obj
 0001:00094c37       _soap_s2unsignedInt        00495c37 f   stdsoap2.obj
 0001:00094cd6       _soap_inunsignedInt        00495cd6 f   stdsoap2.obj
 0001:00094e67       _soap_unsignedLong2s       00495e67 f   stdsoap2.obj
 0001:00094ea2       _soap_outunsignedLong      00495ea2 f   stdsoap2.obj
 0001:00094f1f       _soap_s2unsignedLong       00495f1f f   stdsoap2.obj
 0001:00094fbe       _soap_inunsignedLong       00495fbe f   stdsoap2.obj
 0001:0009514f       _soap_ULONG642s            0049614f f   stdsoap2.obj
 0001:0009518e       _soap_outULONG64           0049618e f   stdsoap2.obj
 0001:0009520f       _soap_s2ULONG64            0049620f f   stdsoap2.obj
 0001:0009525d       _soap_inULONG64            0049625d f   stdsoap2.obj
 0001:00095456       _soap_s2string             00496456 f   stdsoap2.obj
 0001:00095558       _soap_s2QName              00496558 f   stdsoap2.obj
 0001:00095ae6       _soap_QName2s              00496ae6 f   stdsoap2.obj
 0001:00095ec1       _soap_s2wchar              00496ec1 f   stdsoap2.obj
 0001:0009617b       _soap_wchar2s              0049717b f   stdsoap2.obj
 0001:0009639b       _soap_outstring            0049739b f   stdsoap2.obj
 0001:0009646e       _soap_instring             0049746e f   stdsoap2.obj
 0001:0009665c       _soap_outwstring           0049765c f   stdsoap2.obj
 0001:00096731       _soap_inwstring            00497731 f   stdsoap2.obj
 0001:000968f7       _soap_timegm               004978f7 f   stdsoap2.obj
 0001:0009699e       _soap_dateTime2s           0049799e f   stdsoap2.obj
 0001:00096a34       _soap_outdateTime          00497a34 f   stdsoap2.obj
 0001:00096ab1       _soap_s2dateTime           00497ab1 f   stdsoap2.obj
 0001:00096d73       _soap_indateTime           00497d73 f   stdsoap2.obj
 0001:00096ec3       _soap_outliteral           00497ec3 f   stdsoap2.obj
 0001:000970d2       _soap_inliteral            004980d2 f   stdsoap2.obj
 0001:00097228       _soap_outwliteral          00498228 f   stdsoap2.obj
 0001:00097465       _soap_inwliteral           00498465 f   stdsoap2.obj
 0001:000975ce       _soap_value                004985ce f   stdsoap2.obj
 0001:00097799       _soap_getline              00498799 f   stdsoap2.obj
 0001:00097e10       _soap_dime_option          00498e10 f   stdsoap2.obj
 0001:00097ebf       _soap_putdimehdr           00498ebf f   stdsoap2.obj
 0001:000981a2       _soap_putdime              004991a2 f   stdsoap2.obj
 0001:0009882b       _soap_getdimehdr           0049982b f   stdsoap2.obj
 0001:00098ee3       _soap_getdime              00499ee3 f   stdsoap2.obj
 0001:000995d0       _soap_getmimehdr           0049a5d0 f   stdsoap2.obj
 0001:0009999e       _soap_getmime              0049a99e f   stdsoap2.obj
 0001:000999c7       _soap_post_check_mime_attachments 0049a9c7 f   stdsoap2.obj
 0001:000999de       _soap_check_mime_attachments 0049a9de f   stdsoap2.obj
 0001:00099a12       _soap_get_mime_attachment  0049aa12 f   stdsoap2.obj
 0001:0009a10b       _soap_match_cid            0049b10b f   stdsoap2.obj
 0001:0009a41b       _soap_putmimehdr           0049b41b f   stdsoap2.obj
 0001:0009a637       _soap_putmime              0049b637 f   stdsoap2.obj
 0001:0009ab79       _soap_set_dime             0049bb79 f   stdsoap2.obj
 0001:0009aba7       _soap_set_mime             0049bba7 f   stdsoap2.obj
 0001:0009ac0e       _soap_clr_dime             0049bc0e f   stdsoap2.obj
 0001:0009ac3c       _soap_clr_mime             0049bc3c f   stdsoap2.obj
 0001:0009ad3c       _soap_set_dime_attachment  0049bd3c f   stdsoap2.obj
 0001:0009add5       _soap_set_mime_attachment  0049bdd5 f   stdsoap2.obj
 0001:0009ae88       _soap_next_multipart       0049be88 f   stdsoap2.obj
 0001:0009b0b8       _soap_begin_serve          0049c0b8 f   stdsoap2.obj
 0001:0009b13d       _soap_begin_recv           0049c13d f   stdsoap2.obj
 0001:0009be59       _soap_envelope_begin_out   0049ce59 f   stdsoap2.obj
 0001:0009c061       _soap_envelope_end_out     0049d061 f   stdsoap2.obj
 0001:0009c275       _soap_get_http_body        0049d275 f   stdsoap2.obj
 0001:0009c452       _soap_envelope_begin_in    0049d452 f   stdsoap2.obj
 0001:0009c66f       _soap_envelope_end_in      0049d66f f   stdsoap2.obj
 0001:0009c6a7       _soap_body_begin_out       0049d6a7 f   stdsoap2.obj
 0001:0009c732       _soap_body_end_out         0049d732 f   stdsoap2.obj
 0001:0009c77b       _soap_body_begin_in        0049d77b f   stdsoap2.obj
 0001:0009c7e2       _soap_body_end_in          0049d7e2 f   stdsoap2.obj
 0001:0009c83a       _soap_recv_header          0049d83a f   stdsoap2.obj
 0001:0009c8b4       _soap_set_endpoint         0049d8b4 f   stdsoap2.obj
 0001:0009cac9       _soap_connect              0049dac9 f   stdsoap2.obj
 0001:0009caee       _soap_connect_command      0049daee f   stdsoap2.obj
 0001:0009d111       _soap_s2base64             0049e111 f   stdsoap2.obj
 0001:0009d2eb       _soap_base642s             0049e2eb f   stdsoap2.obj
 0001:0009d5aa       _soap_s2hex                0049e5aa f   stdsoap2.obj
 0001:0009d695       _soap_hex2s                0049e695 f   stdsoap2.obj
 0001:0009d7f6       _soap_puthttphdr           0049e7f6 f   stdsoap2.obj
 0001:0009dd24       _soap_set_fault            0049ed24 f   stdsoap2.obj
 0001:0009e54c       _soap_send_fault           0049f54c f   stdsoap2.obj
 0001:0009e860       _soap_recv_fault           0049f860 f   stdsoap2.obj
 0001:0009ebf0       _soap_send_empty_response  0049fbf0 f   stdsoap2.obj
 0001:0009ec89       _soap_recv_empty_response  0049fc89 f   stdsoap2.obj
 0001:0009ee78       _soap_set_sender_error     0049fe78 f   stdsoap2.obj
 0001:0009ef59       _soap_set_receiver_error   0049ff59 f   stdsoap2.obj
 0001:0009efac       _soap_sender_fault         0049ffac f   stdsoap2.obj
 0001:0009efce       _soap_sender_fault_subcode 0049ffce f   stdsoap2.obj
 0001:0009f0c6       _soap_receiver_fault       004a00c6 f   stdsoap2.obj
 0001:0009f0e8       _soap_receiver_fault_subcode 004a00e8 f   stdsoap2.obj
 0001:0009f139       _soap_print_fault          004a0139 f   stdsoap2.obj
 0001:0009f2d4       _soap_stream_fault         004a02d4 f   stdsoap2.obj
 0001:0009f5d9       _soap_sprint_fault         004a05d9 f   stdsoap2.obj
 0001:0009f85f       _soap_print_fault_location 004a085f f   stdsoap2.obj
 0001:0009f9f3       _soap_register_plugin_arg  004a09f3 f   stdsoap2.obj
 0001:0009fc53       _soap_lookup_plugin        004a0c53 f   stdsoap2.obj
 0001:0009fc7e       ??0soap@@QAE@XZ            004a0c7e f   stdsoap2.obj
 0001:0009fcb6       ??0soap@@QAE@_H@Z          004a0cb6 f   stdsoap2.obj
 0001:0009fcf4       ??0soap@@QAE@_H0@Z         004a0cf4 f   stdsoap2.obj
 0001:0009fd32       ??0soap@@QAE@ABU0@@Z       004a0d32 f   stdsoap2.obj
 0001:0009fd6c       ??1soap@@UAE@XZ            004a0d6c f   stdsoap2.obj
 0001:000a98f0       ??4soap@@QAEAAU0@ABU0@@Z   004aa8f0 f i stdsoap2.obj
 0001:000aaf10       ??_Esoap@@UAEPAXI@Z        004abf10 f i stdsoap2.obj
 0001:000aaf10       ??_Gsoap@@UAEPAXI@Z        004abf10 f i stdsoap2.obj
 0001:000aaf60       ??0CMainServer@@QAE@PBD00HHKK@Z 004abf60 f   tcgament2d:tcgsvr.obj
 0001:000aafc0       ??_ECMainServer@@UAEPAXI@Z 004abfc0 f i tcgament2d:tcgsvr.obj
 0001:000aafc0       ??_GCMainServer@@UAEPAXI@Z 004abfc0 f i tcgament2d:tcgsvr.obj
 0001:000ab020       ??1CMainServer@@UAE@XZ     004ac020 f   tcgament2d:tcgsvr.obj
 0001:000ab060       ?ConstructEnterGameOK@CMainServer@@UAEHHPAVCTable@@HHHPAVREQUEST@@@Z 004ac060 f   tcgament2d:tcgsvr.obj
 0001:000ab130       ?ConstructEnterGameDXXW@CMainServer@@UAEHHPAVCTable@@HHHPAVREQUEST@@@Z 004ac130 f   tcgament2d:tcgsvr.obj
 0001:000ab930       ?LookupLevelName@CMainServer@@UAEXHPAD@Z 004ac930 f   tcgament2d:tcgsvr.obj
 0001:000ab9a0       ?OnRequest@CMainServer@@MAEHPAX0@Z 004ac9a0 f   tcgament2d:tcgsvr.obj
 0001:000ac900       ?OnGamePulse@CMainServer@@MAEHPAU_tagCONTEXT_HEAD@@PAVREQUEST@@PAVCWorkerContext@@@Z 004ad900 f   tcgament2d:tcgsvr.obj
 0001:000aca20       ?OnCloseSocket@CMainServer@@MAEHPAU_tagCONTEXT_HEAD@@PAVREQUEST@@PAVCWorkerContext@@@Z 004ada20 f   tcgament2d:tcgsvr.obj
 0001:000ad750       ?OnGetVersion@CMainServer@@MAEHPAU_tagCONTEXT_HEAD@@PAVREQUEST@@PAVCWorkerContext@@@Z 004ae750 f   tcgament2d:tcgsvr.obj
 0001:000ad8c0       ?OnCheckNetwork@CMainServer@@MAEHPAU_tagCONTEXT_HEAD@@PAVREQUEST@@PAVCWorkerContext@@@Z 004ae8c0 f   tcgament2d:tcgsvr.obj
 0001:000ad9b0       ?OnCallPlayer@CMainServer@@MAEHPAU_tagCONTEXT_HEAD@@PAVREQUEST@@PAVCWorkerContext@@@Z 004ae9b0 f   tcgament2d:tcgsvr.obj
 0001:000adf10       ?OnChatToTable@CMainServer@@MAEHPAU_tagCONTEXT_HEAD@@PAVREQUEST@@PAVCWorkerContext@@@Z 004aef10 f   tcgament2d:tcgsvr.obj
 0001:000ae5f0       ?IsForbidChatByExp@CMainServer@@UAEHPAVCTable@@HAAH@Z 004af5f0 f   tcgament2d:tcgsvr.obj
 0001:000ae740       ?GetChatTags@CMainServer@@UAE?AVCString@@K@Z 004af740 f   tcgament2d:tcgsvr.obj
 0001:000ae820       ?OnChatToTableEx@CMainServer@@MAEHPAU_tagCONTEXT_HEAD@@PAVREQUEST@@PAVCWorkerContext@@@Z 004af820 f   tcgament2d:tcgsvr.obj
 0001:000af0d0       ?OnEnterMatch@CMainServer@@MAEHPAU_tagCONTEXT_HEAD@@PAVREQUEST@@PAVCWorkerContext@@@Z 004b00d0 f   tcgament2d:tcgsvr.obj
 0001:000af3f0       ?OnEnterGame@CMainServer@@MAEHPAU_tagCONTEXT_HEAD@@PAVREQUEST@@PAVCWorkerContext@@@Z 004b03f0 f   tcgament2d:tcgsvr.obj
 0001:000b07d0       ?OnLeaveGame@CMainServer@@MAEHPAU_tagCONTEXT_HEAD@@PAVREQUEST@@PAVCWorkerContext@@@Z 004b17d0 f   tcgament2d:tcgsvr.obj
 0001:000b1270       ?OnLeaveGameEx@CMainServer@@MAEHPAU_tagCONTEXT_HEAD@@PAVREQUEST@@PAVCWorkerContext@@@Z 004b2270 f   tcgament2d:tcgsvr.obj
 0001:000b2730       ?OnLeaveMatch@CMainServer@@MAEHPAU_tagCONTEXT_HEAD@@PAVREQUEST@@PAVCWorkerContext@@@Z 004b3730 f   tcgament2d:tcgsvr.obj
 0001:000b2e60       ?OnQueryBreak@CMainServer@@MAEHPAU_tagCONTEXT_HEAD@@PAVREQUEST@@PAVCWorkerContext@@@Z 004b3e60 f   tcgament2d:tcgsvr.obj
 0001:000b3590       ?OnGetTableInfo@CMainServer@@MAEHPAU_tagCONTEXT_HEAD@@PAVREQUEST@@PAVCWorkerContext@@@Z 004b4590 f   tcgament2d:tcgsvr.obj
 0001:000b3b00       ?OnAutoStartGame@CMainServer@@MAEHPAU_tagCONTEXT_HEAD@@PAVREQUEST@@PAVCWorkerContext@@@Z 004b4b00 f   tcgament2d:tcgsvr.obj
 0001:000b4160       ?OnStartGame@CMainServer@@MAEHPAU_tagCONTEXT_HEAD@@PAVREQUEST@@PAVCWorkerContext@@@Z 004b5160 f   tcgament2d:tcgsvr.obj
 0001:000b48a0       ?OnStartGameEx@CMainServer@@MAEHPAU_tagCONTEXT_HEAD@@PAVREQUEST@@PAVCWorkerContext@@@Z 004b58a0 f   tcgament2d:tcgsvr.obj
 0001:000b53c0       ?OnGiveUpGame@CMainServer@@MAEHPAU_tagCONTEXT_HEAD@@PAVREQUEST@@PAVCWorkerContext@@@Z 004b63c0 f   tcgament2d:tcgsvr.obj
 0001:000b5830       ?OnPlayerOffline@CMainServer@@MAEXPAVCTable@@H@Z 004b6830 f   tcgament2d:tcgsvr.obj
 0001:000b5960       ?OnGameStarted@CMainServer@@MAEHPAVCTable@@K@Z 004b6960 f   tcgament2d:tcgsvr.obj
 0001:000b6640       ?OnGameOverTime@CMainServer@@MAEHPAU_tagCONTEXT_HEAD@@PAVCRoom@@PAVCTable@@@Z 004b7640 f   tcgament2d:tcgsvr.obj
 0001:000b66d0       ?OnGameWin@CMainServer@@MAEHPAU_tagCONTEXT_HEAD@@PAVCRoom@@PAVCTable@@HHH@Z 004b76d0 f   tcgament2d:tcgsvr.obj
 0001:000b6980       ?OnGameWinDelay@CMainServer@@MAEHPAU_tagCONTEXT_HEAD@@PAVREQUEST@@PAVCWorkerContext@@@Z 004b7980 f   tcgament2d:tcgsvr.obj
 0001:000b6d10       ?OnGameWinWithDelay@CMainServer@@MAEHPAU_tagCONTEXT_HEAD@@PAVCRoom@@PAVCTable@@HHHPAU_tagGAME_WIN_DELAY@@@Z 004b7d10 f   tcgament2d:tcgsvr.obj
 0001:000b6e20       ?OnMatchGameWin@CMainServer@@MAEHPAU_tagCONTEXT_HEAD@@PAVCRoom@@PAVCTable@@HHH@Z 004b7e20 f   tcgament2d:tcgsvr.obj
 0001:000b74a0       ?OnClientCrash@CMainServer@@MAEHPAU_tagCONTEXT_HEAD@@PAVREQUEST@@PAVCWorkerContext@@@Z 004b84a0 f   tcgament2d:tcgsvr.obj
 0001:000b78d0       ?OnTellHomeInfoOnDXXW@CMainServer@@MAEHPAU_tagCONTEXT_HEAD@@HPAVCTable@@@Z 004b88d0 f   tcgament2d:tcgsvr.obj
 0001:000b79d0       ?OnSynchSocallyInfo@CMainServer@@MAEHPAU_tagCONTEXT_HEAD@@PAVREQUEST@@PAVCWorkerContext@@@Z 004b89d0 f   tcgament2d:tcgsvr.obj
 0001:000b8030       ?OnTooManyAuto@CMainServer@@MAEHHHHHIJ@Z 004b9030 f   tcgament2d:tcgsvr.obj
 0001:000b80a0       ?OnTooManyBreak@CMainServer@@MAEHHHHHIJ@Z 004b90a0 f   tcgament2d:tcgsvr.obj
 0001:000b8110       ?LookOnNoPlaying@CMainServer@@MAEHXZ 004b9110 f   tcgament2d:tcgsvr.obj
 0001:000b8140       ?EjectLeaveGame@CMainServer@@UAEHHHHHIJ@Z 004b9140 f   tcgament2d:tcgsvr.obj
 0001:000b8310       ?EjectLeaveGameEx@CMainServer@@UAEHHHHHIJ@Z 004b9310 f   tcgament2d:tcgsvr.obj
 0001:000b84e0       ?EjectStartGame@CMainServer@@UAEHHHHHIJ@Z 004b94e0 f   tcgament2d:tcgsvr.obj
 0001:000b86b0       ?CheckInGameResult@CMainServer@@MAEXPAU_tagCONTEXT_HEAD@@PAVCTable@@PAXHH@Z 004b96b0 f   tcgament2d:tcgsvr.obj
 0001:000b8960       ?CheckGameResults@CMainServer@@MAEHPAU_tagREFRESH_RESULT_EX@@PAU_tagGAME_RESULT_EX@@H@Z 004b9960 f   tcgament2d:tcgsvr.obj
 0001:000b8a20       ?OpeAfterCheckResult@CMainServer@@MAEXPAVCTable@@PAXHHH@Z 004b9a20 f   tcgament2d:tcgsvr.obj
 0001:000b8d30       ?VerifySenderInfo@CMainServer@@MAEHPAVCTable@@PAU_tagSENDER_INFO@@@Z 004b9d30 f   tcgament2d:tcgsvr.obj
 0001:000b8e20       ?RemoveClients@CMainServer@@MAEHPAVCTable@@JHH@Z 004b9e20 f   tcgament2d:tcgsvr.obj
 0001:000b8f50       ?RemoveOneClients@CMainServer@@MAEHPAVCTable@@HH@Z 004b9f50 f   tcgament2d:tcgsvr.obj
 0001:000b9080       ?ClearMatchTable@CMainServer@@MAEXPAVCRoom@@PAVCTable@@@Z 004ba080 f   tcgament2d:tcgsvr.obj
 0001:000b9380       ?OnMatchPlayerOK@CMainServer@@MAEHPAU_tagCONTEXT_HEAD@@PAVREQUEST@@PAVCWorkerContext@@@Z 004ba380 f   tcgament2d:tcgsvr.obj
 0001:000b94d0       ?NotifyOverTime@CMainServer@@MAEXPAU_tagMATCH_OVERTIME@@@Z 004ba4d0 f   tcgament2d:tcgsvr.obj
 0001:000b96a0       ?DisableUnActiveTable@CMainServer@@MAEXPAVCRoom@@PAVCTable@@@Z 004ba6a0 f   tcgament2d:tcgsvr.obj
 0001:000b9740       ?VerifyOnlyOneGame@CMainServer@@MAEHHHHHIJ@Z 004ba740 f   tcgament2d:tcgsvr.obj
 0001:000b9cf0       ?OnGameUnableContinue@CMainServer@@UAEHPAVCTable@@PBD@Z 004bacf0 f   tcgament2d:tcgsvr.obj
 0001:000b9e40       ?OnEnterGameDXXW@CMainServer@@MAEHPAU_tagCONTEXT_HEAD@@PAU_tagENTER_GAME_EX@@@Z 004bae40 f   tcgament2d:tcgsvr.obj
 0001:000b9e70       ?OnAskExit@CMainServer@@MAEHPAU_tagCONTEXT_HEAD@@PAVREQUEST@@PAVCWorkerContext@@@Z 004bae70 f   tcgament2d:tcgsvr.obj
 0001:000ba400       ?OnAllowExit@CMainServer@@MAEHPAU_tagCONTEXT_HEAD@@PAVREQUEST@@PAVCWorkerContext@@@Z 004bb400 f   tcgament2d:tcgsvr.obj
 0001:000bac10       ?BulidScoreResults@CMainServer@@MAEXPAVCTable@@PAVCPlayer@@AAU_tagGAME_RESULT_EX@@HH@Z 004bbc10 f   tcgament2d:tcgsvr.obj
 0001:000bad20       ?BulidDepositResults@CMainServer@@MAEXPAVCTable@@PAVCPlayer@@PAU_tagGAME_RESULT_EX@@HH@Z 004bbd20 f   tcgament2d:tcgsvr.obj
 0001:000baeb0       ?VerifyRoomTableChair@CMainServer@@MAEHHHHH@Z 004bbeb0 f   tcgament2d:tcgsvr.obj
 0001:000baee0       ?OnMatchUnableContinue@CMainServer@@UAEHPAVCTable@@PBD@Z 004bbee0 f   tcgament2d:tcgsvr.obj
 0001:000bb030       ?IsNeedWaitArrageTable@CMainServer@@UAEHPAVCTable@@HH@Z 004bc030 f   tcgament2d:tcgsvr.obj
 0001:000bb130       ?OnAskCardView@CMainServer@@UAEHPAU_tagCONTEXT_HEAD@@PAVREQUEST@@PAVCWorkerContext@@@Z 004bc130 f   tcgament2d:tcgsvr.obj
 0001:000bb570       ?OnAllowCardView@CMainServer@@UAEHPAU_tagCONTEXT_HEAD@@PAVREQUEST@@PAVCWorkerContext@@@Z 004bc570 f   tcgament2d:tcgsvr.obj
 0001:000bba70       ?OnSyncStartCountdown@CMainServer@@UAEHPAU_tagCONTEXT_HEAD@@PAVREQUEST@@PAVCWorkerContext@@@Z 004bca70 f   tcgament2d:tcgsvr.obj
 0001:000bc0d0       ?IsAllowStartGame@CMainServer@@UAEHPAVCTable@@H@Z 004bd0d0 f   tcgament2d:tcgsvr.obj
 0001:000bc1a0       ?GetMinPlayerCount@CMainServer@@UAEHPAVCTable@@H@Z 004bd1a0 f   tcgament2d:tcgsvr.obj
 0001:000bc240       ?GetCountdown@CMainServer@@UAEHPAVCTable@@H@Z 004bd240 f   tcgament2d:tcgsvr.obj
 0001:000bc2f0       ?OnUserBoutEnd@CMainServer@@UAEHPAU_tagCONTEXT_HEAD@@PAVCRoom@@PAVCTable@@HHH@Z 004bd2f0 f   tcgament2d:tcgsvr.obj
 0001:000bc620       ?NotifyUserBoutEnd@CMainServer@@UAEXPAVCTable@@PAU_tagUser_BoutEnd@@J@Z 004bd620 f   tcgament2d:tcgsvr.obj
 0001:000bc6e0       ?TransmitBreakResult@CMainServer@@UAEXPAU_tagCONTEXT_HEAD@@PAVCTable@@PAVCPlayer@@AAU_tagGAME_ABORT@@HHH@Z 004bd6e0 f   tcgament2d:tcgsvr.obj
 0001:000bcb60       ?TransmitBreakResultEx@CMainServer@@UAEXPAU_tagCONTEXT_HEAD@@PAVCTable@@PAVCPlayer@@AAU_tagGAME_ABORT@@HHH@Z 004bdb60 f   tcgament2d:tcgsvr.obj
 0001:000bd1b0       ?KickOffTooManyIdlePlayer@CMainServer@@UAEXPAVCTable@@H@Z 004be1b0 f   tcgament2d:tcgsvr.obj
 0001:000bd380       ?GetMinPlayingDeposit@CMainServer@@UAEHPAVCTable@@H@Z 004be380 f   tcgament2d:tcgsvr.obj
 0001:000bd490       ?xyRetrieveFields2@@YAHPADPAPADH1D@Z 004be490 f   tcgament2d:tcgsvr.obj
 0001:000bd5b0       ?MB_OnGetVersion@CMainServer@@MAEHPAU_tagCONTEXT_HEAD@@PAVREQUEST@@PAVCWorkerContext@@@Z 004be5b0 f   tcgament2d:tcgsvr.obj
 0001:000bd800       ?MB_OnCheckVersion@CMainServer@@MAEHPAU_tagCONTEXT_HEAD@@PAVREQUEST@@PAVCWorkerContext@@@Z 004be800 f   tcgament2d:tcgsvr.obj
 0001:000bdc40       ?MB_OnEnterBackground@CMainServer@@MAEHPAU_tagCONTEXT_HEAD@@PAVREQUEST@@PAVCWorkerContext@@@Z 004bec40 f   tcgament2d:tcgsvr.obj
 0001:000be170       ?MB_OnEnterForeground@CMainServer@@MAEHPAU_tagCONTEXT_HEAD@@PAVREQUEST@@PAVCWorkerContext@@@Z 004bf170 f   tcgament2d:tcgsvr.obj
 0001:000be5d0       ?NotifyServiceFee@CMainServer@@UAEXPAVCTable@@@Z 004bf5d0 f   tcgament2d:tcgsvr.obj
 0001:000be8c0       ?NotifyScoreProtect@CMainServer@@UAEXPAVCTable@@@Z 004bf8c0 f   tcgament2d:tcgsvr.obj
 0001:000be9b0       ?NotifySoloPlayerRealData@CMainServer@@UAEXPAVCTable@@@Z 004bf9b0 f   tcgament2d:tcgsvr.obj
 0001:000beb30       ?OnPlayerEnterGame@CMainServer@@UAEHPAU_tagCONTEXT_HEAD@@PAU_tagENTER_GAME_OK_EX@@PAVREQUEST@@@Z 004bfb30 f   tcgament2d:tcgsvr.obj
 0001:000bf110       ?NTF_OnPlayerEnterGame@CMainServer@@UAEXPAU_tagCONTEXT_HEAD@@PAU_tagENTER_GAME_OK_EX@@PAVREQUEST@@PAVCTable@@PAVCPlayer@@@Z 004c0110 f   tcgament2d:tcgsvr.obj
 0001:000bf570       ?GetInfo_OnPlayerEnterGame@CMainServer@@UAEXPAU_tagCONTEXT_HEAD@@PAU_tagENTER_GAME_OK_EX@@PAVREQUEST@@PAVCTable@@PAVCPlayer@@@Z 004c0570 f   tcgament2d:tcgsvr.obj
 0001:000bf640       ?CalcEnterUserDatelen@CMainServer@@UAEHPAVCRoom@@PAVCTable@@PAVCPlayer@@@Z 004c0640 f   tcgament2d:tcgsvr.obj
 0001:000bf6f0       ?CopyEnterUserData@CMainServer@@UAEXPAVCRoom@@PAVCTable@@PAVCPlayer@@PAEH@Z 004c06f0 f   tcgament2d:tcgsvr.obj
 0001:000bfa90       ?OnNewTableChair@CMainServer@@MAEHHHHH@Z 004c0a90 f   tcgament2d:tcgsvr.obj
 0001:000c02f0       ?OnAskNewTableChair@CMainServer@@UAEHPAU_tagCONTEXT_HEAD@@PAVREQUEST@@PAVCWorkerContext@@@Z 004c12f0 f   tcgament2d:tcgsvr.obj
 0001:000c0b00       ?GetAskNewTableTimeSpan@CMainServer@@UAEHXZ 004c1b00 f   tcgament2d:tcgsvr.obj
 0001:000c0b60       ?VerifyAskNewTableChair@CMainServer@@UAEHH@Z 004c1b60 f   tcgament2d:tcgsvr.obj
 0001:000c0cf0       ?CanChangeTableInGame@CMainServer@@UAEHHPAVCPlayer@@@Z 004c1cf0 f   tcgament2d:tcgsvr.obj
 0001:000c0db0       ?NeedResetTblWhileChangeTbl@CMainServer@@UAEHHPAVCPlayer@@@Z 004c1db0 f   tcgament2d:tcgsvr.obj
 0001:000c0e10       ?OnAskRandomTable@CMainServer@@UAEHPAU_tagCONTEXT_HEAD@@PAVREQUEST@@PAVCWorkerContext@@@Z 004c1e10 f   tcgament2d:tcgsvr.obj
 0001:000c1980       ?IsCheckDepositMin@CMainServer@@UAEHH@Z 004c2980 f   tcgament2d:tcgsvr.obj
 0001:000c19e0       ?IsCheckDepositMax@CMainServer@@UAEHH@Z 004c29e0 f   tcgament2d:tcgsvr.obj
 0001:000c1a40       ?MoveUserToChair@CMainServer@@MAEHHHHPAU_tagSOLO_PLAYER@@@Z 004c2a40 f   tcgament2d:tcgsvr.obj
 0001:000c22e0       ?StartSoloTable@CMainServer@@MAEHPAU_tagSTART_SOLOTABLE@@@Z 004c32e0 f   tcgament2d:tcgsvr.obj
 0001:000c3510       ?SoapThreadProc@CMainServer@@MAEIPAX@Z 004c4510 f   tcgament2d:tcgsvr.obj
 0001:000c3a90       ??0_bstr_t@@QAE@ABV0@@Z    004c4a90 f i tcgament2d:tcgsvr.obj
 0001:000c3ae0       ??0_bstr_t@@QAE@PBD@Z      004c4ae0 f i tcgament2d:tcgsvr.obj
 0001:000c3b90       ??0_bstr_t@@QAE@PBG@Z      004c4b90 f i tcgament2d:tcgsvr.obj
 0001:000c3c40       ??1_bstr_t@@QAE@XZ         004c4c40 f i tcgament2d:tcgsvr.obj
 0001:000c3c80       ??B_bstr_t@@QBEPBDXZ       004c4c80 f i tcgament2d:tcgsvr.obj
 0001:000c3cd0       ?_AddRef@_bstr_t@@AAEXXZ   004c4cd0 f i tcgament2d:tcgsvr.obj
 0001:000c3d10       ?_Free@_bstr_t@@AAEXXZ     004c4d10 f i tcgament2d:tcgsvr.obj
 0001:000c3d60       ??0Data_t@_bstr_t@@QAE@PBD@Z 004c4d60 f i tcgament2d:tcgsvr.obj
 0001:000c3dd0       ??0Data_t@_bstr_t@@QAE@PBG@Z 004c4dd0 f i tcgament2d:tcgsvr.obj
 0001:000c3e50       ?AddRef@Data_t@_bstr_t@@QAEKXZ 004c4e50 f i tcgament2d:tcgsvr.obj
 0001:000c3ea0       ?Release@Data_t@_bstr_t@@QAEKXZ 004c4ea0 f i tcgament2d:tcgsvr.obj
 0001:000c3f20       ??_GData_t@_bstr_t@@AAEPAXI@Z 004c4f20 f i tcgament2d:tcgsvr.obj
 0001:000c3f80       ?GetString@Data_t@_bstr_t@@QBEPBDXZ 004c4f80 f i tcgament2d:tcgsvr.obj
 0001:000c3ff0       ??1Data_t@_bstr_t@@AAE@XZ  004c4ff0 f i tcgament2d:tcgsvr.obj
 0001:000c4030       ?_Free@Data_t@_bstr_t@@AAEXXZ 004c5030 f i tcgament2d:tcgsvr.obj
 0001:000c40a0       ??0_variant_t@@QAE@_N@Z    004c50a0 f i tcgament2d:tcgsvr.obj
 0001:000c40f0       ??1_variant_t@@QAE@XZ      004c50f0 f i tcgament2d:tcgsvr.obj
 0001:000c4140       ?CheckError@_com_util@@YAXJ@Z 004c5140 f i tcgament2d:tcgsvr.obj
 0001:000c4180       ?DealSoapMessage@CMainServer@@UAEHPAU_tagSOAP_SERVICE@@AAV?$_com_ptr_t@V?$_com_IIID@UIXYSoapClient@XYSOAPCLIENTLib@@$1?_GUID_56fdbc41_47d1_4175_8116_487b0cb069d7@@3U__s_GUID@@A@@@@PAU_tagCONTEXT_HEAD@@PAVREQUEST@@@Z 004c5180 f   tcgament2d:tcgsvr.obj
 0001:000c4420       ?DealApplyBaseWelfare@CMainServer@@UAEHPAU_tagSOAP_SERVICE@@AAV?$_com_ptr_t@V?$_com_IIID@UIXYSoapClient@XYSOAPCLIENTLib@@$1?_GUID_56fdbc41_47d1_4175_8116_487b0cb069d7@@3U__s_GUID@@A@@@@PAU_tagCONTEXT_HEAD@@PAVREQUEST@@@Z 004c5420 f   tcgament2d:tcgsvr.obj
 0001:000c4950       ??0_bstr_t@@QAE@XZ         004c5950 f i tcgament2d:tcgsvr.obj
 0001:000c4980       ??4_bstr_t@@QAEAAV0@ABV0@@Z 004c5980 f i tcgament2d:tcgsvr.obj
 0001:000c49d0       ??0_variant_t@@QAE@XZ      004c59d0 f i tcgament2d:tcgsvr.obj
 0001:000c4a20       ??4_variant_t@@QAEAAV0@ABV0@@Z 004c5a20 f i tcgament2d:tcgsvr.obj
 0001:000c4a80       ??4_variant_t@@QAEAAV0@ABV_bstr_t@@@Z 004c5a80 f i tcgament2d:tcgsvr.obj
 0001:000c4b30       ??B_bstr_t@@QBEPAGXZ       004c5b30 f i tcgament2d:tcgsvr.obj
 0001:000c4b80       ??7_bstr_t@@QBE_NXZ        004c5b80 f i tcgament2d:tcgsvr.obj
 0001:000c4be0       ?GetWString@Data_t@_bstr_t@@QBEPBGXZ 004c5be0 f i tcgament2d:tcgsvr.obj
 0001:000c4c10       ?Clear@_variant_t@@QAEXXZ  004c5c10 f i tcgament2d:tcgsvr.obj
 0001:000c4c60       ?ChangeType@_variant_t@@QAEXGPBV1@@Z 004c5c60 f i tcgament2d:tcgsvr.obj
 0001:000c4ce0       ?DealApplyBaseWelfareEx@CMainServer@@UAEHPAU_tagSOAP_SERVICE@@AAV?$_com_ptr_t@V?$_com_IIID@UIXYSoapClient@XYSOAPCLIENTLib@@$1?_GUID_56fdbc41_47d1_4175_8116_487b0cb069d7@@3U__s_GUID@@A@@@@PAU_tagCONTEXT_HEAD@@PAVREQUEST@@@Z 004c5ce0 f   tcgament2d:tcgsvr.obj
 0001:000c5290       ?DealGetWelfareConfig@CMainServer@@UAEHPAU_tagSOAP_SERVICE@@AAV?$_com_ptr_t@V?$_com_IIID@UIXYSoapClient@XYSOAPCLIENTLib@@$1?_GUID_56fdbc41_47d1_4175_8116_487b0cb069d7@@3U__s_GUID@@A@@@@PAU_tagCONTEXT_HEAD@@PAVREQUEST@@@Z 004c6290 f   tcgament2d:tcgsvr.obj
 0001:000c5610       ?DealGetLotteryUser@CMainServer@@UAEHPAU_tagSOAP_SERVICE@@AAV?$_com_ptr_t@V?$_com_IIID@UIXYSoapClient@XYSOAPCLIENTLib@@$1?_GUID_56fdbc41_47d1_4175_8116_487b0cb069d7@@3U__s_GUID@@A@@@@PAU_tagCONTEXT_HEAD@@PAVREQUEST@@@Z 004c6610 f   tcgament2d:tcgsvr.obj
 0001:000c5a10       ??0_variant_t@@QAE@PBD@Z   004c6a10 f i tcgament2d:tcgsvr.obj
 0001:000c5a80       ?DealSetLotteryUser@CMainServer@@UAEHPAU_tagSOAP_SERVICE@@AAV?$_com_ptr_t@V?$_com_IIID@UIXYSoapClient@XYSOAPCLIENTLib@@$1?_GUID_56fdbc41_47d1_4175_8116_487b0cb069d7@@3U__s_GUID@@A@@@@PAU_tagCONTEXT_HEAD@@PAVREQUEST@@@Z 004c6a80 f   tcgament2d:tcgsvr.obj
 0001:000c5ed0       ?DealDrawLottery@CMainServer@@UAEHPAU_tagSOAP_SERVICE@@AAV?$_com_ptr_t@V?$_com_IIID@UIXYSoapClient@XYSOAPCLIENTLib@@$1?_GUID_56fdbc41_47d1_4175_8116_487b0cb069d7@@3U__s_GUID@@A@@@@PAU_tagCONTEXT_HEAD@@PAVREQUEST@@@Z 004c6ed0 f   tcgament2d:tcgsvr.obj
 0001:000c62c0       ?DealDrawLotryToGame@CMainServer@@UAEHPAU_tagSOAP_SERVICE@@AAV?$_com_ptr_t@V?$_com_IIID@UIXYSoapClient@XYSOAPCLIENTLib@@$1?_GUID_56fdbc41_47d1_4175_8116_487b0cb069d7@@3U__s_GUID@@A@@@@PAU_tagCONTEXT_HEAD@@PAVREQUEST@@@Z 004c72c0 f   tcgament2d:tcgsvr.obj
 0001:000c66b0       ?DealTaskToGame@CMainServer@@UAEHPAU_tagSOAP_SERVICE@@AAV?$_com_ptr_t@V?$_com_IIID@UIXYSoapClient@XYSOAPCLIENTLib@@$1?_GUID_56fdbc41_47d1_4175_8116_487b0cb069d7@@3U__s_GUID@@A@@@@PAU_tagCONTEXT_HEAD@@PAVREQUEST@@@Z 004c76b0 f   tcgament2d:tcgsvr.obj
 0001:000c6ad0       ?DealSelfMessage@CMainServer@@UAEHPAU_tagSOAP_SERVICE@@AAV?$_com_ptr_t@V?$_com_IIID@UIXYSoapClient@XYSOAPCLIENTLib@@$1?_GUID_56fdbc41_47d1_4175_8116_487b0cb069d7@@3U__s_GUID@@A@@@@PAU_tagCONTEXT_HEAD@@PAVREQUEST@@@Z 004c7ad0 f   tcgament2d:tcgsvr.obj
 0001:000c6b00       ?NotifyLotryGetInfo@CMainServer@@UAEHPAU_tagCONTEXT_HEAD@@PAU_tagLOTTERY_READ_OK@@PBD@Z 004c7b00 f   tcgament2d:tcgsvr.obj
 0001:000c6c00       ?NotifyTableLotrySetInfo@CMainServer@@UAEHPAU_tagLOTTERY_TABLE_WRITE@@QAU_tagLOTTERY_WRITE_OK@@PBD@Z 004c7c00 f   tcgament2d:tcgsvr.obj
 0001:000c6d60       ?NotifyLotryDrawError@CMainServer@@UAEHPAU_tagCONTEXT_HEAD@@PBD@Z 004c7d60 f   tcgament2d:tcgsvr.obj
 0001:000c6e60       ?NotifyTaskAwardError@CMainServer@@UAEHPAU_tagCONTEXT_HEAD@@PBD@Z 004c7e60 f   tcgament2d:tcgsvr.obj
 0001:000c6f40       ?ModifyPlayerDepositAndNTF@CMainServer@@UAEHHHHHH@Z 004c7f40 f   tcgament2d:tcgsvr.obj
 0001:000c7210       ?ModifyPlayerScoreAndNTF@CMainServer@@UAEHHHHHH@Z 004c8210 f   tcgament2d:tcgsvr.obj
 0001:000c74e0       ?CreateSoapThreads@CMainServer@@UAEXXZ 004c84e0 f   tcgament2d:tcgsvr.obj
 0001:000c75b0       ?InitSoapConfig@CMainServer@@UAEHXZ 004c85b0 f   tcgament2d:tcgsvr.obj
 0001:000c7890       ?PostSoapRequest@CMainServer@@UAEHIPAU_tagCONTEXT_HEAD@@PAVREQUEST@@@Z 004c8890 f   tcgament2d:tcgsvr.obj
 0001:000c7a80       ?GetApplyWelErrorMsg@CMainServer@@UAEXHPAD@Z 004c8a80 f   tcgament2d:tcgsvr.obj
 0001:000c7c20       ?OpeAfterApplyWelfare@CMainServer@@UAEHPAU_tagCONTEXT_HEAD@@PAU_tagAPPLY_BASEWELFARE@@@Z 004c8c20 f   tcgament2d:tcgsvr.obj
 0001:000c7c80       ?OpeAfterApplyWelfareEx@CMainServer@@UAEHPAU_tagCONTEXT_HEAD@@PAU_tagAPPLY_BASEWELFARE_EX@@@Z 004c8c80 f   tcgament2d:tcgsvr.obj
 0001:000c7d80       ?OnApplyBaseWelfare@CMainServer@@UAEHPAU_tagCONTEXT_HEAD@@PAVREQUEST@@PAVCWorkerContext@@@Z 004c8d80 f   tcgament2d:tcgsvr.obj
 0001:000c8360       ?OnApplyBaseWelfareOK@CMainServer@@UAEHPAU_tagCONTEXT_HEAD@@PAVREQUEST@@PAVCWorkerContext@@@Z 004c9360 f   tcgament2d:tcgsvr.obj
 0001:000c8500       ?OnApplyBaseWelfareEx@CMainServer@@UAEHPAU_tagCONTEXT_HEAD@@PAVREQUEST@@PAVCWorkerContext@@@Z 004c9500 f   tcgament2d:tcgsvr.obj
 0001:000c8ae0       ?OnApplyBaseWelfareExOK@CMainServer@@UAEHPAU_tagCONTEXT_HEAD@@PAVREQUEST@@PAVCWorkerContext@@@Z 004c9ae0 f   tcgament2d:tcgsvr.obj
 0001:000c8c80       ?OnGetWelfareConfig@CMainServer@@UAEHPAU_tagCONTEXT_HEAD@@PAVREQUEST@@PAVCWorkerContext@@@Z 004c9c80 f   tcgament2d:tcgsvr.obj
 0001:000c9010       ?OnGetWelfareConfigOK@CMainServer@@UAEHPAU_tagCONTEXT_HEAD@@PAVREQUEST@@PAVCWorkerContext@@@Z 004ca010 f   tcgament2d:tcgsvr.obj
 0001:000c9550       ?IsBaseWelfareActive@CMainServer@@UAEHXZ 004ca550 f   tcgament2d:tcgsvr.obj
 0001:000c95b0       ?NeedUpdateWelfareConfig@CMainServer@@UAEHXZ 004ca5b0 f   tcgament2d:tcgsvr.obj
 0001:000c96e0       ?SetUpdateWelfareConfig@CMainServer@@UAEXH@Z 004ca6e0 f   tcgament2d:tcgsvr.obj
 0001:000c9770       ?NotifyPlayersSomeoneAskExit@CMainServer@@UAEXPAVCTable@@PAU_tagASK_EXIT@@J@Z 004ca770 f   tcgament2d:tcgsvr.obj
 0001:000c97d0       ?GetThreadIDBySoapFlag@CMainServer@@UAEIK@Z 004ca7d0 f   tcgament2d:tcgsvr.obj
 0001:000c9860       ?GetThreadIndexBySoapFlag@CMainServer@@UAEIK@Z 004ca860 f   tcgament2d:tcgsvr.obj
 0001:000c98d0       ?IsBoutLotteryActive@CMainServer@@UAEHXZ 004ca8d0 f   tcgament2d:tcgsvr.obj
 0001:000c9930       ?IsTaskToGameActive@CMainServer@@UAEHXZ 004ca930 f   tcgament2d:tcgsvr.obj
 0001:000c9990       ?OnGetLotteryUser@CMainServer@@UAEHPAU_tagCONTEXT_HEAD@@PAVREQUEST@@PAVCWorkerContext@@@Z 004ca990 f   tcgament2d:tcgsvr.obj
 0001:000c9d60       ?OnGetLotteryUserOK@CMainServer@@UAEHPAU_tagCONTEXT_HEAD@@PAVREQUEST@@PAVCWorkerContext@@@Z 004cad60 f   tcgament2d:tcgsvr.obj
 0001:000ca050       ??1Reader@Json@@QAE@XZ     004cb050 f i tcgament2d:tcgsvr.obj
 0001:000ca100       ??1?$stack@PAVValue@Json@@V?$deque@PAVValue@Json@@V?$allocator@PAVValue@Json@@@std@@@std@@@std@@QAE@XZ 004cb100 f i tcgament2d:tcgsvr.obj
 0001:000ca140       ?OnSetLotteryTableUser@CMainServer@@UAEHPAU_tagCONTEXT_HEAD@@PAVREQUEST@@PAVCWorkerContext@@@Z 004cb140 f   tcgament2d:tcgsvr.obj
 0001:000ca520       ?OnSetLotteryUserOK@CMainServer@@UAEHPAU_tagCONTEXT_HEAD@@PAVREQUEST@@PAVCWorkerContext@@@Z 004cb520 f   tcgament2d:tcgsvr.obj
 0001:000ca9a0       ?OnDrawLottery@CMainServer@@UAEHPAU_tagCONTEXT_HEAD@@PAVREQUEST@@PAVCWorkerContext@@@Z 004cb9a0 f   tcgament2d:tcgsvr.obj
 0001:000cad80       ?OnDrawLotteryOK@CMainServer@@UAEHPAU_tagCONTEXT_HEAD@@PAVREQUEST@@PAVCWorkerContext@@@Z 004cbd80 f   tcgament2d:tcgsvr.obj
 0001:000cb3b0       ?OnDrawLotryToGame@CMainServer@@UAEHPAU_tagCONTEXT_HEAD@@PAVREQUEST@@PAVCWorkerContext@@@Z 004cc3b0 f   tcgament2d:tcgsvr.obj
 0001:000cb8e0       ?InitService@IXYSoapClient@XYSOAPCLIENTLib@@QAEJV_bstr_t@@000@Z 004cc8e0 f i tcgament2d:tcgsvr.obj
 0001:000cb9d0       ?OnDrawLotryToGameOK@CMainServer@@UAEHPAU_tagCONTEXT_HEAD@@PAVREQUEST@@PAVCWorkerContext@@@Z 004cc9d0 f   tcgament2d:tcgsvr.obj
 0001:000cc130       ?SetClientProperty@IXYSoapClient@XYSOAPCLIENTLib@@QAEJV_bstr_t@@ABV_variant_t@@@Z 004cd130 f i tcgament2d:tcgsvr.obj
 0001:000cc220       ?GetLastError@IXYSoapClient@XYSOAPCLIENTLib@@QAE?AV_bstr_t@@XZ 004cd220 f i tcgament2d:tcgsvr.obj
 0001:000cc2b0       ??0_bstr_t@@QAE@PAG_N@Z    004cd2b0 f i tcgament2d:tcgsvr.obj
 0001:000cc360       ??0Data_t@_bstr_t@@QAE@PAG_N@Z 004cd360 f i tcgament2d:tcgsvr.obj
 0001:000cc410       ?InvokeMethod@IXYSoapClient@XYSOAPCLIENTLib@@QAE?AV_variant_t@@V_bstr_t@@ABV3@1111@Z 004cd410 f i tcgament2d:tcgsvr.obj
 0001:000cc600       ??0_variant_t@@QAE@AAUtagVARIANT@@_N@Z 004cd600 f i tcgament2d:tcgsvr.obj
 0001:000cc690       ?SetSoapToolkitVersion@IXYSoapClient@XYSOAPCLIENTLib@@QAE?AV_bstr_t@@V3@@Z 004cd690 f i tcgament2d:tcgsvr.obj
 0001:000cc760       ?FillupTaskToGame@CMainServer@@UAEHPAU_tagTASK_TOGAME@@@Z 004cd760 f   tcgament2d:tcgsvr.obj
 0001:000cc920       ?OnTaskToGame@CMainServer@@UAEHPAU_tagCONTEXT_HEAD@@PAVREQUEST@@PAVCWorkerContext@@@Z 004cd920 f   tcgament2d:tcgsvr.obj
 0001:000ccf60       ?OnPlayerLeave@CMainServer@@MAEXPAU_tagCONTEXT_HEAD@@PAVCTable@@H@Z 004cdf60 f i tcgament2d:tcgsvr.obj
 0001:000ccf90       ?OnTaskToGameOK@CMainServer@@UAEHPAU_tagCONTEXT_HEAD@@PAVREQUEST@@PAVCWorkerContext@@@Z 004cdf90 f   tcgament2d:tcgsvr.obj
 0001:000cd3e0       ?Lottery_LoadData@CMainServer@@UAEXPAU_tagCONTEXT_HEAD@@PAVCTable@@PAVCPlayer@@H@Z 004ce3e0 f   tcgament2d:tcgsvr.obj
 0001:000cd5c0       ?Lottery_SaveData@CMainServer@@UAEXPAU_tagCONTEXT_HEAD@@PAVCTable@@HH@Z 004ce5c0 f   tcgament2d:tcgsvr.obj
 0001:000cd830       ?GetAwardStrByType@CMainServer@@UAE?AVCString@@H@Z 004ce830 f   tcgament2d:tcgsvr.obj
 0001:000cd980       ?NeedBroadcastLotry@CMainServer@@UAEHPAU_tagLOTTERY_DRAW_OK@@@Z 004ce980 f   tcgament2d:tcgsvr.obj
 0001:000cd9b0       ?BroadCast_Lottery@CMainServer@@UAEHIJPAU_tagLOTTERY_DRAW@@PAU_tagLOTTERY_DRAW_OK@@@Z 004ce9b0 f   tcgament2d:tcgsvr.obj
 0001:000cdb00       ?AddToBroadcastQueue@CMainServer@@UAEXAAU_tagBROAD_CAST@@@Z 004ceb00 f   tcgament2d:tcgsvr.obj
 0001:000cdbe0       ?CreateBroadcastThread@CMainServer@@UAEHXZ 004cebe0 f   tcgament2d:tcgsvr.obj
 0001:000cdcd0       ?GetBroadCastInterval@CMainServer@@UAEHXZ 004cecd0 f   tcgament2d:tcgsvr.obj
 0001:000cdd70       ?GetBroadCastMsgByType@CMainServer@@UAEIK@Z 004ced70 f   tcgament2d:tcgsvr.obj
 0001:000cddc0       ?BroadCast@CMainServer@@UAEHPAU_tagBROAD_CAST@@@Z 004cedc0 f   tcgament2d:tcgsvr.obj
 0001:000cdfc0       ?TakeDepositBonusToGame@CMainServer@@UAEHPAU_tagCONTEXT_HEAD@@AAU_tagTAKE_DEPOSIT_BONUS@@@Z 004cefc0 f   tcgament2d:tcgsvr.obj
 0001:000ce080       ?SetOneUserTakingBonus@CMainServer@@UAEHPAU_tagCONTEXT_HEAD@@HHHHH@Z 004cf080 f   tcgament2d:tcgsvr.obj
 0001:000ce270       ?OnTakeGameDepositBonusOK@CMainServer@@UAEHPAU_tagCONTEXT_HEAD@@PAVREQUEST@@1@Z 004cf270 f   tcgament2d:tcgsvr.obj
 0001:000ce6f0       ?OnTakeGameDepositBonusFail@CMainServer@@UAEHPAU_tagCONTEXT_HEAD@@PAVREQUEST@@1@Z 004cf6f0 f   tcgament2d:tcgsvr.obj
 0001:000ce7a0       ?NotifyTakeBonusInfo@CMainServer@@UAEHPAU_tagCONTEXT_HEAD@@PAVREQUEST@@KPBD@Z 004cf7a0 f   tcgament2d:tcgsvr.obj
 0001:000ce860       ?GetMaxGameWinDelay@CMainServer@@UAEHXZ 004cf860 f   tcgament2d:tcgsvr.obj
 0001:000ce890       ?NeedEnterWaitGameWin@CMainServer@@UAEHHHHHJH@Z 004cf890 f   tcgament2d:tcgsvr.obj
 0001:000cea50       ?NeedLeaveWaitGameWin@CMainServer@@UAEHHHHHJ@Z 004cfa50 f   tcgament2d:tcgsvr.obj
 0001:000cece0       ?NeedGameWinDelay@CMainServer@@MAEHPAU_tagCONTEXT_HEAD@@PAVCTable@@HHH@Z 004cfce0 f   tcgament2d:tcgsvr.obj
 0001:000ced90       ?ConstructDelayGameWin@CMainServer@@MAEHPAU_tagCONTEXT_HEAD@@PAVCTable@@HHHAAU_tagGAME_WIN_DELAY@@K@Z 004cfd90 f   tcgament2d:tcgsvr.obj
 0001:000ceec0       ?DelayGameWin@CMainServer@@MAEHPAU_tagCONTEXT_HEAD@@PAVCTable@@PAU_tagGAME_WIN_DELAY@@K@Z 004cfec0 f   tcgament2d:tcgsvr.obj
 0001:000cf040       ?AddToGameWinDelay@CMainServer@@MAEXAAU_tagGAME_WIN_DELAY@@@Z 004d0040 f   tcgament2d:tcgsvr.obj
 0001:000cf0d0       ?CalcResultWinOrLoss@CMainServer@@MAEXPAXHPAVCTable@@@Z 004d00d0 f   tcgament2d:tcgsvr.obj
 0001:000cf270       ?push_back@?$list@U_tagBROAD_CAST@@V?$allocator@U_tagBROAD_CAST@@@std@@@std@@QAEXABU_tagBROAD_CAST@@@Z 004d0270 f i tcgament2d:tcgsvr.obj
 0001:000cf2c0       ?push_back@?$list@U_tagGAME_WIN_DELAY@@V?$allocator@U_tagGAME_WIN_DELAY@@@std@@@std@@QAEXABU_tagGAME_WIN_DELAY@@@Z 004d02c0 f i tcgament2d:tcgsvr.obj
 0001:000cf310       ??1?$deque@PAVValue@Json@@V?$allocator@PAVValue@Json@@@std@@@std@@QAE@XZ 004d0310 f i tcgament2d:tcgsvr.obj
 0001:000cf360       ??1?$deque@VErrorInfo@Reader@Json@@V?$allocator@VErrorInfo@Reader@Json@@@std@@@std@@QAE@XZ 004d0360 f i tcgament2d:tcgsvr.obj
 0001:000cf3b0       ??0?$_com_ptr_t@V?$_com_IIID@UIXYSoapClient@XYSOAPCLIENTLib@@$1?_GUID_56fdbc41_47d1_4175_8116_487b0cb069d7@@3U__s_GUID@@A@@@@QAE@H@Z 004d03b0 f i tcgament2d:tcgsvr.obj
 0001:000cf400       ??1?$_com_ptr_t@V?$_com_IIID@UIXYSoapClient@XYSOAPCLIENTLib@@$1?_GUID_56fdbc41_47d1_4175_8116_487b0cb069d7@@3U__s_GUID@@A@@@@QAE@XZ 004d0400 f i tcgament2d:tcgsvr.obj
 0001:000cf440       ??C?$_com_ptr_t@V?$_com_IIID@UIXYSoapClient@XYSOAPCLIENTLib@@$1?_GUID_56fdbc41_47d1_4175_8116_487b0cb069d7@@3U__s_GUID@@A@@@@QBEPAUIXYSoapClient@XYSOAPCLIENTLib@@XZ 004d0440 f i tcgament2d:tcgsvr.obj
 0001:000cf490       ?Release@?$_com_ptr_t@V?$_com_IIID@UIXYSoapClient@XYSOAPCLIENTLib@@$1?_GUID_56fdbc41_47d1_4175_8116_487b0cb069d7@@3U__s_GUID@@A@@@@QAEXXZ 004d0490 f i tcgament2d:tcgsvr.obj
 0001:000cf500       ?CreateInstance@?$_com_ptr_t@V?$_com_IIID@UIXYSoapClient@XYSOAPCLIENTLib@@$1?_GUID_56fdbc41_47d1_4175_8116_487b0cb069d7@@3U__s_GUID@@A@@@@QAEJABU_GUID@@PAUIUnknown@@K@Z 004d0500 f i tcgament2d:tcgsvr.obj
 0001:000cf600       ??0?$list@U_tagIDSOCKTOKEN@@V?$allocator@U_tagIDSOCKTOKEN@@@std@@@std@@QAE@ABV?$allocator@U_tagIDSOCKTOKEN@@@1@@Z 004d0600 f i tcgament2d:tcgsvr.obj
 0001:000cf660       ??1?$list@U_tagIDSOCKTOKEN@@V?$allocator@U_tagIDSOCKTOKEN@@@std@@@std@@QAE@XZ 004d0660 f i tcgament2d:tcgsvr.obj
 0001:000cf6e0       ?begin@?$list@U_tagIDSOCKTOKEN@@V?$allocator@U_tagIDSOCKTOKEN@@@std@@@std@@QAE?AViterator@12@XZ 004d06e0 f i tcgament2d:tcgsvr.obj
 0001:000cf740       ?end@?$list@U_tagIDSOCKTOKEN@@V?$allocator@U_tagIDSOCKTOKEN@@@std@@@std@@QAE?AViterator@12@XZ 004d0740 f i tcgament2d:tcgsvr.obj
 0001:000cf790       ?push_back@?$list@U_tagIDSOCKTOKEN@@V?$allocator@U_tagIDSOCKTOKEN@@@std@@@std@@QAEXABU_tagIDSOCKTOKEN@@@Z 004d0790 f i tcgament2d:tcgsvr.obj
 0001:000cf7e0       ??Diterator@?$list@U_tagIDSOCKTOKEN@@V?$allocator@U_tagIDSOCKTOKEN@@@std@@@std@@QBEAAU_tagIDSOCKTOKEN@@XZ 004d07e0 f i tcgament2d:tcgsvr.obj
 0001:000cf820       ??Eiterator@?$list@U_tagIDSOCKTOKEN@@V?$allocator@U_tagIDSOCKTOKEN@@@std@@@std@@QAE?AV012@H@Z 004d0820 f i tcgament2d:tcgsvr.obj
 0001:000cf870       ??9iterator@?$list@U_tagIDSOCKTOKEN@@V?$allocator@U_tagIDSOCKTOKEN@@@std@@@std@@QBE_NABV012@@Z 004d0870 f i tcgament2d:tcgsvr.obj
 0001:000cf8c0       ?end@?$list@U_tagBROAD_CAST@@V?$allocator@U_tagBROAD_CAST@@@std@@@std@@QAE?AViterator@12@XZ 004d08c0 f i tcgament2d:tcgsvr.obj
 0001:000cf910       ?insert@?$list@U_tagBROAD_CAST@@V?$allocator@U_tagBROAD_CAST@@@std@@@std@@QAE?AViterator@12@V312@ABU_tagBROAD_CAST@@@Z 004d0910 f i tcgament2d:tcgsvr.obj
 0001:000cf9f0       ?end@?$list@U_tagGAME_WIN_DELAY@@V?$allocator@U_tagGAME_WIN_DELAY@@@std@@@std@@QAE?AViterator@12@XZ 004d09f0 f i tcgament2d:tcgsvr.obj
 0001:000cfa40       ?insert@?$list@U_tagGAME_WIN_DELAY@@V?$allocator@U_tagGAME_WIN_DELAY@@@std@@@std@@QAE?AViterator@12@V312@ABU_tagGAME_WIN_DELAY@@@Z 004d0a40 f i tcgament2d:tcgsvr.obj
 0001:000cfb20       ?empty@?$deque@PAVValue@Json@@V?$allocator@PAVValue@Json@@@std@@@std@@QBE_NXZ 004d0b20 f i tcgament2d:tcgsvr.obj
 0001:000cfb60       ?pop_front@?$deque@PAVValue@Json@@V?$allocator@PAVValue@Json@@@std@@@std@@QAEXXZ 004d0b60 f i tcgament2d:tcgsvr.obj
 0001:000cfbf0       ?empty@?$deque@VErrorInfo@Reader@Json@@V?$allocator@VErrorInfo@Reader@Json@@@std@@@std@@QBE_NXZ 004d0bf0 f i tcgament2d:tcgsvr.obj
 0001:000cfc30       ?pop_front@?$deque@VErrorInfo@Reader@Json@@V?$allocator@VErrorInfo@Reader@Json@@@std@@@std@@QAEXXZ 004d0c30 f i tcgament2d:tcgsvr.obj
 0001:000cfcc0       ?GetIID@?$_com_ptr_t@V?$_com_IIID@UIXYSoapClient@XYSOAPCLIENTLib@@$1?_GUID_56fdbc41_47d1_4175_8116_487b0cb069d7@@3U__s_GUID@@A@@@@SAABU_GUID@@XZ 004d0cc0 f i tcgament2d:tcgsvr.obj
 0001:000cfcf0       ?_Release@?$_com_ptr_t@V?$_com_IIID@UIXYSoapClient@XYSOAPCLIENTLib@@$1?_GUID_56fdbc41_47d1_4175_8116_487b0cb069d7@@3U__s_GUID@@A@@@@AAEXXZ 004d0cf0 f i tcgament2d:tcgsvr.obj
 0001:000cfd40       ?insert@?$list@U_tagIDSOCKTOKEN@@V?$allocator@U_tagIDSOCKTOKEN@@@std@@@std@@QAE?AViterator@12@V312@ABU_tagIDSOCKTOKEN@@@Z 004d0d40 f i tcgament2d:tcgsvr.obj
 0001:000cfe20       ?erase@?$list@U_tagIDSOCKTOKEN@@V?$allocator@U_tagIDSOCKTOKEN@@@std@@@std@@QAE?AViterator@12@V312@0@Z 004d0e20 f i tcgament2d:tcgsvr.obj
 0001:000cfe90       ?_Buynode@?$list@U_tagIDSOCKTOKEN@@V?$allocator@U_tagIDSOCKTOKEN@@@std@@@std@@IAEPAU_Node@12@PAU312@0@Z 004d0e90 f i tcgament2d:tcgsvr.obj
 0001:000cff20       ?_Freenode@?$list@U_tagIDSOCKTOKEN@@V?$allocator@U_tagIDSOCKTOKEN@@@std@@@std@@IAEXPAU_Node@12@@Z 004d0f20 f i tcgament2d:tcgsvr.obj
 0001:000cff60       ?_Next@_Acc@?$list@U_tagIDSOCKTOKEN@@V?$allocator@U_tagIDSOCKTOKEN@@@std@@@std@@SAAAPAU_Node@23@PAU423@@Z 004d0f60 f i tcgament2d:tcgsvr.obj
 0001:000cff90       ?_Value@_Acc@?$list@U_tagIDSOCKTOKEN@@V?$allocator@U_tagIDSOCKTOKEN@@@std@@@std@@SAAAU_tagIDSOCKTOKEN@@PAU_Node@23@@Z 004d0f90 f i tcgament2d:tcgsvr.obj
 0001:000cffc0       ??0iterator@?$list@U_tagIDSOCKTOKEN@@V?$allocator@U_tagIDSOCKTOKEN@@@std@@@std@@QAE@PAU_Node@12@@Z 004d0fc0 f i tcgament2d:tcgsvr.obj
 0001:000d0000       ??Eiterator@?$list@U_tagIDSOCKTOKEN@@V?$allocator@U_tagIDSOCKTOKEN@@@std@@@std@@QAEAAV012@XZ 004d1000 f i tcgament2d:tcgsvr.obj
 0001:000d0050       ??8iterator@?$list@U_tagIDSOCKTOKEN@@V?$allocator@U_tagIDSOCKTOKEN@@@std@@@std@@QBE_NABV012@@Z 004d1050 f i tcgament2d:tcgsvr.obj
 0001:000d0090       ?_Buynode@?$list@U_tagBROAD_CAST@@V?$allocator@U_tagBROAD_CAST@@@std@@@std@@IAEPAU_Node@12@PAU312@0@Z 004d1090 f i tcgament2d:tcgsvr.obj
 0001:000d0120       ?_Next@_Acc@?$list@U_tagBROAD_CAST@@V?$allocator@U_tagBROAD_CAST@@@std@@@std@@SAAAPAU_Node@23@PAU423@@Z 004d1120 f i tcgament2d:tcgsvr.obj
 0001:000d0150       ?_Prev@_Acc@?$list@U_tagBROAD_CAST@@V?$allocator@U_tagBROAD_CAST@@@std@@@std@@SAAAPAU_Node@23@PAU423@@Z 004d1150 f i tcgament2d:tcgsvr.obj
 0001:000d0180       ?_Value@_Acc@?$list@U_tagBROAD_CAST@@V?$allocator@U_tagBROAD_CAST@@@std@@@std@@SAAAU_tagBROAD_CAST@@PAU_Node@23@@Z 004d1180 f i tcgament2d:tcgsvr.obj
 0001:000d01b0       ?construct@?$allocator@U_tagBROAD_CAST@@@std@@QAEXPAU_tagBROAD_CAST@@ABU3@@Z 004d11b0 f i tcgament2d:tcgsvr.obj
 0001:000d01f0       ?_Mynode@const_iterator@?$list@U_tagBROAD_CAST@@V?$allocator@U_tagBROAD_CAST@@@std@@@std@@QBEPAU_Node@23@XZ 004d11f0 f i tcgament2d:tcgsvr.obj
 0001:000d0220       ??0iterator@?$list@U_tagBROAD_CAST@@V?$allocator@U_tagBROAD_CAST@@@std@@@std@@QAE@PAU_Node@12@@Z 004d1220 f i tcgament2d:tcgsvr.obj
 0001:000d0260       ?_Buynode@?$list@U_tagGAME_WIN_DELAY@@V?$allocator@U_tagGAME_WIN_DELAY@@@std@@@std@@IAEPAU_Node@12@PAU312@0@Z 004d1260 f i tcgament2d:tcgsvr.obj
 0001:000d02f0       ?_Next@_Acc@?$list@U_tagGAME_WIN_DELAY@@V?$allocator@U_tagGAME_WIN_DELAY@@@std@@@std@@SAAAPAU_Node@23@PAU423@@Z 004d12f0 f i tcgament2d:tcgsvr.obj
 0001:000d0320       ?_Prev@_Acc@?$list@U_tagGAME_WIN_DELAY@@V?$allocator@U_tagGAME_WIN_DELAY@@@std@@@std@@SAAAPAU_Node@23@PAU423@@Z 004d1320 f i tcgament2d:tcgsvr.obj
 0001:000d0350       ?_Value@_Acc@?$list@U_tagGAME_WIN_DELAY@@V?$allocator@U_tagGAME_WIN_DELAY@@@std@@@std@@SAAAU_tagGAME_WIN_DELAY@@PAU_Node@23@@Z 004d1350 f i tcgament2d:tcgsvr.obj
 0001:000d0380       ?construct@?$allocator@U_tagGAME_WIN_DELAY@@@std@@QAEXPAU_tagGAME_WIN_DELAY@@ABU3@@Z 004d1380 f i tcgament2d:tcgsvr.obj
 0001:000d03c0       ?_Mynode@const_iterator@?$list@U_tagGAME_WIN_DELAY@@V?$allocator@U_tagGAME_WIN_DELAY@@@std@@@std@@QBEPAU_Node@23@XZ 004d13c0 f i tcgament2d:tcgsvr.obj
 0001:000d03f0       ??0iterator@?$list@U_tagGAME_WIN_DELAY@@V?$allocator@U_tagGAME_WIN_DELAY@@@std@@@std@@QAE@PAU_Node@12@@Z 004d13f0 f i tcgament2d:tcgsvr.obj
 0001:000d0430       ?size@?$deque@PAVValue@Json@@V?$allocator@PAVValue@Json@@@std@@@std@@QBEIXZ 004d1430 f i tcgament2d:tcgsvr.obj
 0001:000d0460       ?_Freefront@?$deque@PAVValue@Json@@V?$allocator@PAVValue@Json@@@std@@@std@@IAEXXZ 004d1460 f i tcgament2d:tcgsvr.obj
 0001:000d0550       ?destroy@?$allocator@PAVValue@Json@@@std@@QAEXPAPAVValue@Json@@@Z 004d1550 f i tcgament2d:tcgsvr.obj
 0001:000d0590       ?size@?$deque@VErrorInfo@Reader@Json@@V?$allocator@VErrorInfo@Reader@Json@@@std@@@std@@QBEIXZ 004d1590 f i tcgament2d:tcgsvr.obj
 0001:000d05c0       ?_Freefront@?$deque@VErrorInfo@Reader@Json@@V?$allocator@VErrorInfo@Reader@Json@@@std@@@std@@IAEXXZ 004d15c0 f i tcgament2d:tcgsvr.obj
 0001:000d06b0       ?destroy@?$allocator@VErrorInfo@Reader@Json@@@std@@QAEXPAVErrorInfo@Reader@Json@@@Z 004d16b0 f i tcgament2d:tcgsvr.obj
 0001:000d06f0       ?GetIID@?$_com_IIID@UIXYSoapClient@XYSOAPCLIENTLib@@$1?_GUID_56fdbc41_47d1_4175_8116_487b0cb069d7@@3U__s_GUID@@A@@SAABU_GUID@@XZ 004d16f0 f i tcgament2d:tcgsvr.obj
 0001:000d0720       ?erase@?$list@U_tagIDSOCKTOKEN@@V?$allocator@U_tagIDSOCKTOKEN@@@std@@@std@@QAE?AViterator@12@V312@@Z 004d1720 f i tcgament2d:tcgsvr.obj
 0001:000d0800       ?_Prev@_Acc@?$list@U_tagIDSOCKTOKEN@@V?$allocator@U_tagIDSOCKTOKEN@@@std@@@std@@SAAAPAU_Node@23@PAU423@@Z 004d1800 f i tcgament2d:tcgsvr.obj
 0001:000d0830       ?_Charalloc@?$allocator@U_tagIDSOCKTOKEN@@@std@@QAEPADI@Z 004d1830 f i tcgament2d:tcgsvr.obj
 0001:000d0870       ?deallocate@?$allocator@U_tagIDSOCKTOKEN@@@std@@QAEXPAXI@Z 004d1870 f i tcgament2d:tcgsvr.obj
 0001:000d08b0       ?construct@?$allocator@U_tagIDSOCKTOKEN@@@std@@QAEXPAU_tagIDSOCKTOKEN@@ABU3@@Z 004d18b0 f i tcgament2d:tcgsvr.obj
 0001:000d08f0       ??0const_iterator@?$list@U_tagIDSOCKTOKEN@@V?$allocator@U_tagIDSOCKTOKEN@@@std@@@std@@QAE@PAU_Node@12@@Z 004d18f0 f i tcgament2d:tcgsvr.obj
 0001:000d0930       ?_Mynode@const_iterator@?$list@U_tagIDSOCKTOKEN@@V?$allocator@U_tagIDSOCKTOKEN@@@std@@@std@@QBEPAU_Node@23@XZ 004d1930 f i tcgament2d:tcgsvr.obj
 0001:000d0960       ?_Charalloc@?$allocator@U_tagBROAD_CAST@@@std@@QAEPADI@Z 004d1960 f i tcgament2d:tcgsvr.obj
 0001:000d09a0       ??0const_iterator@?$list@U_tagBROAD_CAST@@V?$allocator@U_tagBROAD_CAST@@@std@@@std@@QAE@PAU_Node@12@@Z 004d19a0 f i tcgament2d:tcgsvr.obj
 0001:000d09e0       ?_Charalloc@?$allocator@U_tagGAME_WIN_DELAY@@@std@@QAEPADI@Z 004d19e0 f i tcgament2d:tcgsvr.obj
 0001:000d0a20       ??0const_iterator@?$list@U_tagGAME_WIN_DELAY@@V?$allocator@U_tagGAME_WIN_DELAY@@@std@@@std@@QAE@PAU_Node@12@@Z 004d1a20 f i tcgament2d:tcgsvr.obj
 0001:000d0a60       ?_Freemap@?$deque@PAVValue@Json@@V?$allocator@PAVValue@Json@@@std@@@std@@IAEXXZ 004d1a60 f i tcgament2d:tcgsvr.obj
 0001:000d0ab0       ?_Freeptr@?$deque@PAVValue@Json@@V?$allocator@PAVValue@Json@@@std@@@std@@IAEXPAPAPAVValue@Json@@@Z 004d1ab0 f i tcgament2d:tcgsvr.obj
 0001:000d0b00       ??0iterator@?$deque@PAVValue@Json@@V?$allocator@PAVValue@Json@@@std@@@std@@QAE@XZ 004d1b00 f i tcgament2d:tcgsvr.obj
 0001:000d0b40       ??0iterator@?$deque@PAVValue@Json@@V?$allocator@PAVValue@Json@@@std@@@std@@QAE@PAPAVValue@Json@@PAPAPAV34@@Z 004d1b40 f i tcgament2d:tcgsvr.obj
 0001:000d0b90       ?_Freemap@?$deque@VErrorInfo@Reader@Json@@V?$allocator@VErrorInfo@Reader@Json@@@std@@@std@@IAEXXZ 004d1b90 f i tcgament2d:tcgsvr.obj
 0001:000d0be0       ?_Freeptr@?$deque@VErrorInfo@Reader@Json@@V?$allocator@VErrorInfo@Reader@Json@@@std@@@std@@IAEXPAPAVErrorInfo@Reader@Json@@@Z 004d1be0 f i tcgament2d:tcgsvr.obj
 0001:000d0c30       ??0iterator@?$deque@VErrorInfo@Reader@Json@@V?$allocator@VErrorInfo@Reader@Json@@@std@@@std@@QAE@XZ 004d1c30 f i tcgament2d:tcgsvr.obj
 0001:000d0c70       ??0iterator@?$deque@VErrorInfo@Reader@Json@@V?$allocator@VErrorInfo@Reader@Json@@@std@@@std@@QAE@PAVErrorInfo@Reader@Json@@PAPAV345@@Z 004d1c70 f i tcgament2d:tcgsvr.obj
 0001:000d0cc0       ?destroy@?$allocator@U_tagIDSOCKTOKEN@@@std@@QAEXPAU_tagIDSOCKTOKEN@@@Z 004d1cc0 f i tcgament2d:tcgsvr.obj
 0001:000d0d00       ?deallocate@?$allocator@PAVValue@Json@@@std@@QAEXPAXI@Z 004d1d00 f i tcgament2d:tcgsvr.obj
 0001:000d0d40       ??0const_iterator@?$deque@PAVValue@Json@@V?$allocator@PAVValue@Json@@@std@@@std@@QAE@XZ 004d1d40 f i tcgament2d:tcgsvr.obj
 0001:000d0d90       ??0const_iterator@?$deque@PAVValue@Json@@V?$allocator@PAVValue@Json@@@std@@@std@@QAE@PAPAVValue@Json@@PAPAPAV34@@Z 004d1d90 f i tcgament2d:tcgsvr.obj
 0001:000d0df0       ?deallocate@?$allocator@VErrorInfo@Reader@Json@@@std@@QAEXPAXI@Z 004d1df0 f i tcgament2d:tcgsvr.obj
 0001:000d0e30       ??0const_iterator@?$deque@VErrorInfo@Reader@Json@@V?$allocator@VErrorInfo@Reader@Json@@@std@@@std@@QAE@XZ 004d1e30 f i tcgament2d:tcgsvr.obj
 0001:000d0e80       ??0const_iterator@?$deque@VErrorInfo@Reader@Json@@V?$allocator@VErrorInfo@Reader@Json@@@std@@@std@@QAE@PAVErrorInfo@Reader@Json@@PAPAV345@@Z 004d1e80 f i tcgament2d:tcgsvr.obj
 0001:000d0ee0       ?Lookup@?$CMap@HHU_tagPLAYERLEVEL_EX@@U1@@@QBEHHAAU_tagPLAYERLEVEL_EX@@@Z 004d1ee0 f i tcgament2d:tcgsvr.obj
 0001:000d0f60       ?GetCount@?$CMap@HHPAVCPlayer@@PAV1@@@QBEHXZ 004d1f60 f i tcgament2d:tcgsvr.obj
 0001:000d0f90       ?Lookup@?$CMap@HHPAVCPlayer@@PAV1@@@QBEHHAAPAVCPlayer@@@Z 004d1f90 f i tcgament2d:tcgsvr.obj
 0001:000d1000       ?GetCount@?$CMap@JJU_tagID_SOCKET@@U1@@@QBEHXZ 004d2000 f i tcgament2d:tcgsvr.obj
 0001:000d1030       ?_Construct@std@@YAXPAU_tagBROAD_CAST@@ABU2@@Z 004d2030 f i tcgament2d:tcgsvr.obj
 0001:000d1090       ?_Construct@std@@YAXPAU_tagGAME_WIN_DELAY@@ABU2@@Z 004d2090 f i tcgament2d:tcgsvr.obj
 0001:000d10f0       ?_Destroy@std@@YAXPAPAVValue@Json@@@Z 004d20f0 f i tcgament2d:tcgsvr.obj
 0001:000d1110       ?_Destroy@std@@YAXPAVErrorInfo@Reader@Json@@@Z 004d2110 f i tcgament2d:tcgsvr.obj
 0001:000d1150       ?_Construct@std@@YAXPAU_tagIDSOCKTOKEN@@ABU2@@Z 004d2150 f i tcgament2d:tcgsvr.obj
 0001:000d11c0       ?_Destroy@std@@YAXPAU_tagIDSOCKTOKEN@@@Z 004d21c0 f i tcgament2d:tcgsvr.obj
 0001:000d11e0       ??_GErrorInfo@Reader@Json@@QAEPAXI@Z 004d21e0 f i tcgament2d:tcgsvr.obj
 0001:000d1240       ??1ErrorInfo@Reader@Json@@QAE@XZ 004d2240 f i tcgament2d:tcgsvr.obj
 0001:000d1290       ?SetAt@?$CMap@HHPAVCPlayer@@PAV1@@@QAEXHPAVCPlayer@@@Z 004d2290 f i tcgament2d:tcgsvr.obj
 0001:000d12e0       ?GetStartPosition@?$CMap@HHPAVCPlayer@@PAV1@@@QBEPAU__POSITION@@XZ 004d22e0 f i tcgament2d:tcgsvr.obj
 0001:000d1310       ?GetNextAssoc@?$CMap@HHPAVCPlayer@@PAV1@@@QBEXAAPAU__POSITION@@AAHAAPAVCPlayer@@@Z 004d2310 f i tcgament2d:tcgsvr.obj
 0001:000d1490       ?SetAt@?$CMap@HHPAVCTable@@PAV1@@@QAEXHPAVCTable@@@Z 004d2490 f i tcgament2d:tcgsvr.obj
 0001:000d14e0       ?SetAt@?$CMap@JJHH@@QAEXJH@Z 004d24e0 f i tcgament2d:tcgsvr.obj
 0001:000d1530       ?SetAt@?$CMap@JJU_tagID_SOCKET@@U1@@@QAEXJU_tagID_SOCKET@@@Z 004d2530 f i tcgament2d:tcgsvr.obj
 0001:000d1580       ?GetStartPosition@?$CMap@JJU_tagID_SOCKET@@U1@@@QBEPAU__POSITION@@XZ 004d2580 f i tcgament2d:tcgsvr.obj
 0001:000d15b0       ?GetNextAssoc@?$CMap@JJU_tagID_SOCKET@@U1@@@QBEXAAPAU__POSITION@@AAJAAU_tagID_SOCKET@@@Z 004d25b0 f i tcgament2d:tcgsvr.obj
 0001:000d1740       ?SetAt@?$CMap@HHPAVCRoom@@PAV1@@@QAEXHPAVCRoom@@@Z 004d2740 f i tcgament2d:tcgsvr.obj
 0001:000d1790       ?SetAt@?$CMap@HHU_tagUSER_DATA@@AAU1@@@QAEXHAAU_tagUSER_DATA@@@Z 004d2790 f i tcgament2d:tcgsvr.obj
 0001:000d17e0       ??A?$CMap@HHPAVCPlayer@@PAV1@@@QAEAAPAVCPlayer@@H@Z 004d27e0 f i tcgament2d:tcgsvr.obj
 0001:000d18a0       ??A?$CMap@HHPAVCTable@@PAV1@@@QAEAAPAVCTable@@H@Z 004d28a0 f i tcgament2d:tcgsvr.obj
 0001:000d1960       ??A?$CMap@JJHH@@QAEAAHJ@Z  004d2960 f i tcgament2d:tcgsvr.obj
 0001:000d1a20       ??A?$CMap@JJU_tagID_SOCKET@@U1@@@QAEAAU_tagID_SOCKET@@J@Z 004d2a20 f i tcgament2d:tcgsvr.obj
 0001:000d1ae0       ??A?$CMap@HHPAVCRoom@@PAV1@@@QAEAAPAVCRoom@@H@Z 004d2ae0 f i tcgament2d:tcgsvr.obj
 0001:000d1ba0       ??A?$CMap@HHU_tagUSER_DATA@@AAU1@@@QAEAAU_tagUSER_DATA@@H@Z 004d2ba0 f i tcgament2d:tcgsvr.obj
 0001:000d1c60       ?InitHashTable@?$CMap@HHPAVCPlayer@@PAV1@@@QAEXIH@Z 004d2c60 f i tcgament2d:tcgsvr.obj
 0001:000d1d60       ?NewAssoc@?$CMap@HHPAVCPlayer@@PAV1@@@IAEPAUCAssoc@1@XZ 004d2d60 f i tcgament2d:tcgsvr.obj
 0001:000d1ea0       ?GetAssocAt@?$CMap@HHPAVCPlayer@@PAV1@@@IBEPAUCAssoc@1@HAAI@Z 004d2ea0 f i tcgament2d:tcgsvr.obj
 0001:000d1f40       ?InitHashTable@?$CMap@HHPAVCTable@@PAV1@@@QAEXIH@Z 004d2f40 f i tcgament2d:tcgsvr.obj
 0001:000d2040       ?NewAssoc@?$CMap@HHPAVCTable@@PAV1@@@IAEPAUCAssoc@1@XZ 004d3040 f i tcgament2d:tcgsvr.obj
 0001:000d2180       ?InitHashTable@?$CMap@JJHH@@QAEXIH@Z 004d3180 f i tcgament2d:tcgsvr.obj
 0001:000d2280       ?NewAssoc@?$CMap@JJHH@@IAEPAUCAssoc@1@XZ 004d3280 f i tcgament2d:tcgsvr.obj
 0001:000d23c0       ?GetAssocAt@?$CMap@JJHH@@IBEPAUCAssoc@1@JAAI@Z 004d33c0 f i tcgament2d:tcgsvr.obj
 0001:000d2460       ?InitHashTable@?$CMap@JJU_tagID_SOCKET@@U1@@@QAEXIH@Z 004d3460 f i tcgament2d:tcgsvr.obj
 0001:000d2560       ?NewAssoc@?$CMap@JJU_tagID_SOCKET@@U1@@@IAEPAUCAssoc@1@XZ 004d3560 f i tcgament2d:tcgsvr.obj
 0001:000d26a0       ?GetAssocAt@?$CMap@JJU_tagID_SOCKET@@U1@@@IBEPAUCAssoc@1@JAAI@Z 004d36a0 f i tcgament2d:tcgsvr.obj
 0001:000d2740       ?InitHashTable@?$CMap@HHPAVCRoom@@PAV1@@@QAEXIH@Z 004d3740 f i tcgament2d:tcgsvr.obj
 0001:000d2840       ?NewAssoc@?$CMap@HHPAVCRoom@@PAV1@@@IAEPAUCAssoc@1@XZ 004d3840 f i tcgament2d:tcgsvr.obj
 0001:000d2980       ?GetAssocAt@?$CMap@HHU_tagPLAYERLEVEL_EX@@U1@@@IBEPAUCAssoc@1@HAAI@Z 004d3980 f i tcgament2d:tcgsvr.obj
 0001:000d2a20       ?InitHashTable@?$CMap@HHU_tagUSER_DATA@@AAU1@@@QAEXIH@Z 004d3a20 f i tcgament2d:tcgsvr.obj
 0001:000d2b20       ?NewAssoc@?$CMap@HHU_tagUSER_DATA@@AAU1@@@IAEPAUCAssoc@1@XZ 004d3b20 f i tcgament2d:tcgsvr.obj
 0001:000d2c60       ?ConstructElements@@YGXPAHH@Z 004d3c60 f i tcgament2d:tcgsvr.obj
 0001:000d2d10       ?ConstructElements@@YGXPAPAVCPlayer@@H@Z 004d3d10 f i tcgament2d:tcgsvr.obj
 0001:000d2dc0       ?ConstructElements@@YGXPAPAVCTable@@H@Z 004d3dc0 f i tcgament2d:tcgsvr.obj
 0001:000d2e70       ?ConstructElements@@YGXPAJH@Z 004d3e70 f i tcgament2d:tcgsvr.obj
 0001:000d2f20       ?HashKey@@YGIJ@Z           004d3f20 f i tcgament2d:tcgsvr.obj
 0001:000d2f50       ?CompareElements@@YGHPBJ0@Z 004d3f50 f i tcgament2d:tcgsvr.obj
 0001:000d2fe0       ?ConstructElements@@YGXPAU_tagID_SOCKET@@H@Z 004d3fe0 f i tcgament2d:tcgsvr.obj
 0001:000d3090       ?ConstructElements@@YGXPAPAVCRoom@@H@Z 004d4090 f i tcgament2d:tcgsvr.obj
 0001:000d3140       ?ConstructElements@@YGXPAU_tagUSER_DATA@@H@Z 004d4140 f i tcgament2d:tcgsvr.obj
 0001:000d31f0       ??0CPlayer@@QAE@PBDHHHH@Z  004d41f0 f   xygame2d:xygdata.obj
 0001:000d32f0       ??_ECPlayer@@UAEPAXI@Z     004d42f0 f i xygame2d:xygdata.obj
 0001:000d32f0       ??_GCPlayer@@UAEPAXI@Z     004d42f0 f i xygame2d:xygdata.obj
 0001:000d3350       ??1CPlayer@@UAE@XZ         004d4350 f   xygame2d:xygdata.obj
 0001:000d3380       ?SetSocketToken@CPlayer@@UAEXIJPBD@Z 004d4380 f   xygame2d:xygdata.obj
 0001:000d33e0       ?SetChairLookOn@CPlayer@@UAEXHH@Z 004d43e0 f   xygame2d:xygdata.obj
 0001:000d3420       ?SetScoreDeposit@CPlayer@@UAEXHHH@Z 004d4420 f   xygame2d:xygdata.obj
 0001:000d3470       ?IsWaitTakeBonus@CPlayer@@UAEHXZ 004d4470 f   xygame2d:xygdata.obj
 0001:000d34a0       ?SetWaitTakeBonus@CPlayer@@QAEXH@Z 004d44a0 f   xygame2d:xygdata.obj
 0001:000d34d0       ??0CTable@@QAE@HHHHKKH@Z   004d44d0 f   xygame2d:xygdata.obj
 0001:000d36c0       ??_ECTable@@UAEPAXI@Z      004d46c0 f i xygame2d:xygdata.obj
 0001:000d36c0       ??_GCTable@@UAEPAXI@Z      004d46c0 f i xygame2d:xygdata.obj
 0001:000d3720       ??_F?$CMap@HHPAVCPlayer@@PAV1@@@QAEXXZ 004d4720 f i xygame2d:xygdata.obj
 0001:000d3760       ??1?$map@HU_tagPlayerCache@@U?$less@H@std@@V?$allocator@U_tagPlayerCache@@@3@@std@@QAE@XZ 004d4760 f i xygame2d:xygdata.obj
 0001:000d37a0       ??1CTable@@UAE@XZ          004d47a0 f   xygame2d:xygdata.obj
 0001:000d38f0       ?InitParams@CTable@@UAEXXZ 004d48f0 f   xygame2d:xygdata.obj
 0001:000d3920       ?ResetMembers@CTable@@UAEXH@Z 004d4920 f   xygame2d:xygdata.obj
 0001:000d3f20       ?Reset@CTable@@UAEXXZ      004d4f20 f   xygame2d:xygdata.obj
 0001:000d3f70       ?ResetPlayer@CTable@@UAEXH@Z 004d4f70 f   xygame2d:xygdata.obj
 0001:000d40b0       ?ResetTable@CTable@@UAEXXZ 004d50b0 f   xygame2d:xygdata.obj
 0001:000d44a0       ?CreateMatchTable@CTable@@UAEXAAU_tagARRANGE_TABLE@@@Z 004d54a0 f   xygame2d:xygdata.obj
 0001:000d4540       ?ClearMatch@CTable@@UAEXXZ 004d5540 f   xygame2d:xygdata.obj
 0001:000d4590       ?IsInMatch@CTable@@UAEHXZ  004d5590 f   xygame2d:xygdata.obj
 0001:000d45d0       ?VisitorLeave@CTable@@UAEXHH@Z 004d55d0 f   xygame2d:xygdata.obj
 0001:000d46d0       ?RemoveVisitor@CTable@@UAEXHH@Z 004d56d0 f   xygame2d:xygdata.obj
 0001:000d47e0       ?IsPlayer@CTable@@UAEHH@Z  004d57e0 f   xygame2d:xygdata.obj
 0001:000d4850       ?IsPlayerOnChair@CTable@@UAEHXZ 004d5850 f   xygame2d:xygdata.obj
 0001:000d48a0       ?IsVisitor@CTable@@UAEHH@Z 004d58a0 f   xygame2d:xygdata.obj
 0001:000d4910       ?ValidateChair@CTable@@UAEHH@Z 004d5910 f   xygame2d:xygdata.obj
 0001:000d4960       ?GetPlayer@CTable@@UAEPAVCPlayer@@H@Z 004d5960 f   xygame2d:xygdata.obj
 0001:000d49d0       ?GetVisitor@CTable@@UAEPAVCPlayer@@H@Z 004d59d0 f   xygame2d:xygdata.obj
 0001:000d4a40       ?StartDeal@CTable@@UAEXXZ  004d5a40 f   xygame2d:xygdata.obj
 0001:000d4a90       ?CalcAfterDeal@CTable@@UAEHXZ 004d5a90 f   xygame2d:xygdata.obj
 0001:000d4ac0       ?ConstructGameData@CTable@@UAEXXZ 004d5ac0 f   xygame2d:xygdata.obj
 0001:000d4af0       ?ThrowDices@CTable@@UAEXXZ 004d5af0 f   xygame2d:xygdata.obj
 0001:000d4b20       ?Restart@CTable@@UAEHAAHHHHHHHHHHHHHHHHHHH@Z 004d5b20 f   xygame2d:xygdata.obj
 0001:000d51f0       ?PrepareNextBout@CTable@@UAEHPAXH@Z 004d61f0 f   xygame2d:xygdata.obj
 0001:000d52d0       ?GetEnterGameInfoSize@CTable@@UAEHXZ 004d62d0 f   xygame2d:xygdata.obj
 0001:000d5300       ?FillupEnterGameInfo@CTable@@UAEXPAXHHH@Z 004d6300 f   xygame2d:xygdata.obj
 0001:000d5400       ?GetGameTableInfoSize@CTable@@UAEHXZ 004d6400 f   xygame2d:xygdata.obj
 0001:000d5430       ?FillupGameTableInfo@CTable@@UAEXPAXHHH@Z 004d6430 f   xygame2d:xygdata.obj
 0001:000d5480       ?GetGameStartSize@CTable@@UAEHXZ 004d6480 f   xygame2d:xygdata.obj
 0001:000d54b0       ?FillupGameStart@CTable@@UAEXPAXHHH@Z 004d64b0 f   xygame2d:xygdata.obj
 0001:000d5500       ?GetGameWinSize@CTable@@UAEHXZ 004d6500 f   xygame2d:xygdata.obj
 0001:000d5530       ?FillupOldScoreDeposit@CTable@@UAEXPAXH@Z 004d6530 f   xygame2d:xygdata.obj
 0001:000d5650       ?FillupGameWin@CTable@@UAEHPAXHH@Z 004d6650 f   xygame2d:xygdata.obj
 0001:000d5a60       ?IsNextBoutNoLeave@CTable@@UAEKPAXH@Z 004d6a60 f   xygame2d:xygdata.obj
 0001:000d5a90       ?IsNextBoutBankerReset@CTable@@UAEKPAXH@Z 004d6a90 f   xygame2d:xygdata.obj
 0001:000d5ac0       ?IsGameOver@CTable@@UAEHXZ 004d6ac0 f   xygame2d:xygdata.obj
 0001:000d5b00       ?IsFirstBout@CTable@@UAEHXZ 004d6b00 f   xygame2d:xygdata.obj
 0001:000d5b40       ?GetTotalCroups@CTable@@UAEHXZ 004d6b40 f   xygame2d:xygdata.obj
 0001:000d5c10       ?GetTotalChairsOfGroup@CTable@@UAEHH@Z 004d6c10 f   xygame2d:xygdata.obj
 0001:000d5cf0       ?GetTotalChairsNotGroup@CTable@@UAEHH@Z 004d6cf0 f   xygame2d:xygdata.obj
 0001:000d5dd0       ?GetNextChairOfGroup@CTable@@UAEHHH@Z 004d6dd0 f   xygame2d:xygdata.obj
 0001:000d5e60       ?GetNextChairNotGroup@CTable@@UAEHHH@Z 004d6e60 f   xygame2d:xygdata.obj
 0001:000d5ef0       ?SetGroupsBefore@CTable@@UAEHXZ 004d6ef0 f   xygame2d:xygdata.obj
 0001:000d5f60       ?SetGroupsAfter@CTable@@UAEHPAXH@Z 004d6f60 f   xygame2d:xygdata.obj
 0001:000d5f90       ?IsPartner@CTable@@UAEHHH@Z 004d6f90 f   xygame2d:xygdata.obj
 0001:000d5fd0       ?SetRoundBefore@CTable@@UAEHXZ 004d6fd0 f   xygame2d:xygdata.obj
 0001:000d6020       ?SetRoundAfter@CTable@@UAEHPAXH@Z 004d7020 f   xygame2d:xygdata.obj
 0001:000d6050       ?GetCurrentChair@CTable@@UAEHXZ 004d7050 f   xygame2d:xygdata.obj
 0001:000d6080       ?SetCurrentChair@CTable@@UAEHHH@Z 004d7080 f   xygame2d:xygdata.obj
 0001:000d6180       ?CheckOffline@CTable@@UAEHH@Z 004d7180 f   xygame2d:xygdata.obj
 0001:000d6200       ?OnUserStart@CTable@@UAEXH@Z 004d7200 f   xygame2d:xygdata.obj
 0001:000d6260       ?SetCurrentChair@CTable@@UAEHH@Z 004d7260 f   xygame2d:xygdata.obj
 0001:000d6340       ?IsOperateTimeOver@CTable@@UAEHXZ 004d7340 f   xygame2d:xygdata.obj
 0001:000d63a0       ?IsLostActive@CTable@@UAEHXZ 004d73a0 f   xygame2d:xygdata.obj
 0001:000d6450       ?IsOffline@CTable@@UAEHH@Z 004d7450 f   xygame2d:xygdata.obj
 0001:000d64b0       ?IsAutoPlay@CTable@@UAEHH@Z 004d74b0 f   xygame2d:xygdata.obj
 0001:000d64f0       ?OnServerAutoPlay@CTable@@UAEHH@Z 004d74f0 f   xygame2d:xygdata.obj
 0001:000d6540       ?SetActionBegin@CTable@@UAEXXZ 004d7540 f   xygame2d:xygdata.obj
 0001:000d6590       ?GetNextChair@CTable@@UAEHH@Z 004d7590 f   xygame2d:xygdata.obj
 0001:000d65e0       ?GetPrevChair@CTable@@UAEHH@Z 004d75e0 f   xygame2d:xygdata.obj
 0001:000d6620       ?SetCurrentChairOnStart@CTable@@UAEHXZ 004d7620 f   xygame2d:xygdata.obj
 0001:000d6690       ?WinFlags_LastBout@CTable@@UAEKPAXH@Z 004d7690 f   xygame2d:xygdata.obj
 0001:000d66d0       ?BoutFlags_LastBout@CTable@@UAEKPAXH@Z 004d76d0 f   xygame2d:xygdata.obj
 0001:000d6710       ?CalcBankerChairBefore@CTable@@UAEHXZ 004d7710 f   xygame2d:xygdata.obj
 0001:000d6750       ?CalcBankerChairAfter@CTable@@UAEHPAXH@Z 004d7750 f   xygame2d:xygdata.obj
 0001:000d67a0       ?AddStatus@CTable@@UAEKK@Z 004d77a0 f   xygame2d:xygdata.obj
 0001:000d6830       ?RemoveStatus@CTable@@UAEKK@Z 004d7830 f   xygame2d:xygdata.obj
 0001:000d68a0       ?SetStatus@CTable@@UAEKK@Z 004d78a0 f   xygame2d:xygdata.obj
 0001:000d6900       ?SetStatusOnStart@CTable@@UAEKXZ 004d7900 f   xygame2d:xygdata.obj
 0001:000d6950       ?SetStatusOnEnd@CTable@@UAEKXZ 004d7950 f   xygame2d:xygdata.obj
 0001:000d69a0       ?SetStatusOnAskReply@CTable@@UAEKXZ 004d79a0 f   xygame2d:xygdata.obj
 0001:000d69f0       ?SetStatusOnAgreeReply@CTable@@UAEKXZ 004d79f0 f   xygame2d:xygdata.obj
 0001:000d6a40       ?CalcWinPoints@CTable@@UAEHPAXHHQAH@Z 004d7a40 f   xygame2d:xygdata.obj
 0001:000d6a70       ?IsBankWin@CTable@@UAEHPAXHH@Z 004d7a70 f   xygame2d:xygdata.obj
 0001:000d6b70       ?CalcGainsOnEnd@CTable@@UAEHXZ 004d7b70 f   xygame2d:xygdata.obj
 0001:000d6ba0       ?CalcBonusOnEnd@CTable@@UAEHXZ 004d7ba0 f   xygame2d:xygdata.obj
 0001:000d6bd0       ?CalcWinOnGiveUp@CTable@@UAEKHH@Z 004d7bd0 f   xygame2d:xygdata.obj
 0001:000d6c30       ?CalcWinOnStandOff@CTable@@UAEKH@Z 004d7c30 f   xygame2d:xygdata.obj
 0001:000d6c70       ?GetBaseScore@CTable@@UAEHH@Z 004d7c70 f   xygame2d:xygdata.obj
 0001:000d6d40       ?GetBaseDeposit@CTable@@UAEHH@Z 004d7d40 f   xygame2d:xygdata.obj
 0001:000d6f00       ?CalcLevelOnScore@CTable@@UAEHHH@Z 004d7f00 f   xygame2d:xygdata.obj
 0001:000d6f40       ?CalcLevelIDs@CTable@@UAEHQAH00@Z 004d7f40 f   xygame2d:xygdata.obj
 0001:000d6fe0       ?CalcBaseScore@CTable@@UAEHQAHH@Z 004d7fe0 f   xygame2d:xygdata.obj
 0001:000d7060       ?CalcBaseDeposit@CTable@@UAEHQAHH@Z 004d8060 f   xygame2d:xygdata.obj
 0001:000d70b0       ?FillupLevelNames@CTable@@UAEXPAXHAAV?$CMap@HHU_tagPLAYERLEVEL_EX@@U1@@@@Z 004d80b0 f   xygame2d:xygdata.obj
 0001:000d7150       ?FillupNextBoutInfo@CTable@@UAEXPAXHH@Z 004d8150 f   xygame2d:xygdata.obj
 0001:000d71b0       ?CalcSurplus@CTable@@UAEHQAH@Z 004d81b0 f   xygame2d:xygdata.obj
 0001:000d7220       ?CompensateDeposits@CTable@@UAEHQAH0@Z 004d8220 f   xygame2d:xygdata.obj
 0001:000d7580       ?CalcWinFees@CTable@@UAEHQAH0@Z 004d8580 f   xygame2d:xygdata.obj
 0001:000d79a0       ?CalcWinFeesEx@CTable@@UAEHQAH000@Z 004d89a0 f   xygame2d:xygdata.obj
 0001:000d7e20       ?GetMaxFeeRatio@CTable@@UAEHXZ 004d8e20 f   xygame2d:xygdata.obj
 0001:000d7e50       ?CheckDepositResults@CTable@@UAEHQAH0H@Z 004d8e50 f   xygame2d:xygdata.obj
 0001:000d7ef0       ?ActuallizeResults@CTable@@UAEXPAXH@Z 004d8ef0 f   xygame2d:xygdata.obj
 0001:000d8000       ?InvalidResults@CTable@@UAEXPAXH@Z 004d9000 f   xygame2d:xygdata.obj
 0001:000d80b0       ?FillupGameResults@CTable@@UAEXPAXHQAU_tagGAME_RESULT_EX@@@Z 004d90b0 f   xygame2d:xygdata.obj
 0001:000d8310       ?CalcTimeCost@CTable@@UAEHAAH0@Z 004d9310 f   xygame2d:xygdata.obj
 0001:000d83b0       ?CalcResultDiffs@CTable@@UAEHPAXHQAH1@Z 004d93b0 f   xygame2d:xygdata.obj
 0001:000d8400       ?CalcResultDiffsEx@CTable@@UAEHPAXHQAH1@Z 004d9400 f   xygame2d:xygdata.obj
 0001:000d8470       ?MemberReduceNGScore@CTable@@UAEHPAXHQAH@Z 004d9470 f   xygame2d:xygdata.obj
 0001:000d85b0       ?LeaveAsBreak@CTable@@UAEHHH@Z 004d95b0 f   xygame2d:xygdata.obj
 0001:000d85f0       ?IsBrokenAsLock@CTable@@UAEHHH@Z 004d95f0 f   xygame2d:xygdata.obj
 0001:000d8690       ?TellBreakChair@CTable@@UAEHHK@Z 004d9690 f   xygame2d:xygdata.obj
 0001:000d8730       ?CalcDoubleOfScore@CTable@@UAEHHHH@Z 004d9730 f   xygame2d:xygdata.obj
 0001:000d8790       ?BreakDoubleOfDeposit@CTable@@UAEHH@Z 004d9790 f   xygame2d:xygdata.obj
 0001:000d87c0       ?CalcBreakDeposit@CTable@@UAEHHHAAH@Z 004d97c0 f   xygame2d:xygdata.obj
 0001:000d8890       ?ShareDepositOnBreak@CTable@@UAEHHHH@Z 004d9890 f   xygame2d:xygdata.obj
 0001:000d8960       ?IsAllAllowExit@CTable@@UAEHH@Z 004d9960 f   xygame2d:xygdata.obj
 0001:000d8a10       ?IsAllStandBy@CTable@@UAEHPAU_tagALL_STANDBY@@AAV?$CMap@HHU_tagPLAYERLEVEL_EX@@U1@@@@Z 004d9a10 f   xygame2d:xygdata.obj
 0001:000d8b40       ?IsScoreFromDB@CTable@@UAEHXZ 004d9b40 f   xygame2d:xygdata.obj
 0001:000d8bc0       ?IsVerifyScore@CTable@@UAEHXZ 004d9bc0 f   xygame2d:xygdata.obj
 0001:000d8c20       ?IsResultToDB@CTable@@UAEHPAXH@Z 004d9c20 f   xygame2d:xygdata.obj
 0001:000d8cc0       ?IsForbidChat@CTable@@UAEHXZ 004d9cc0 f   xygame2d:xygdata.obj
 0001:000d8d10       ?IsForbidLookChat@CTable@@UAEHXZ 004d9d10 f   xygame2d:xygdata.obj
 0001:000d8d60       ?IsAutoStart@CTable@@UAEHXZ 004d9d60 f   xygame2d:xygdata.obj
 0001:000d8db0       ?IsWaitingStart@CTable@@UAEHXZ 004d9db0 f   xygame2d:xygdata.obj
 0001:000d8df0       ?IsTimeToStart@CTable@@UAEHXZ 004d9df0 f   xygame2d:xygdata.obj
 0001:000d8e60       ?IsVariableChairRoom@CTable@@UAEHXZ 004d9e60 f   xygame2d:xygdata.obj
 0001:000d8eb0       ?IsSoloRoom@CTable@@UAEHXZ 004d9eb0 f   xygame2d:xygdata.obj
 0001:000d8f00       ?IsRandomRoom@CTable@@UAEHXZ 004d9f00 f   xygame2d:xygdata.obj
 0001:000d8f50       ?IsDarkRoom@CTable@@UAEHXZ 004d9f50 f   xygame2d:xygdata.obj
 0001:000d8fa0       ?GetRoomConfig@CTable@@UAEKXZ 004d9fa0 f   xygame2d:xygdata.obj
 0001:000d9010       ?CheckInDB@CTable@@UAEHXZ  004da010 f   xygame2d:xygdata.obj
 0001:000d9040       ?BuildUpGameWin@CTable@@UAEHPAXHHHAAV?$CMap@HHU_tagPLAYERLEVEL_EX@@U1@@@@Z 004da040 f   xygame2d:xygdata.obj
 0001:000d9130       ?ConstructGameResults@CTable@@UAEHPAXHHHPAU_tagREFRESH_RESULT_EX@@QAU_tagGAME_RESULT_EX@@@Z 004da130 f   xygame2d:xygdata.obj
 0001:000d9260       ?RefreshPlayerData@CTable@@UAEHQAU_tagGAME_RESULT_EX@@@Z 004da260 f   xygame2d:xygdata.obj
 0001:000d92e0       ?UpdataGameWin@CTable@@UAEHPAU_tagREFRESH_RESULT_EX@@AAV?$CMap@HHU_tagPLAYERLEVEL_EX@@U1@@@@Z 004da2e0 f   xygame2d:xygdata.obj
 0001:000d9560       ?FindTokenByUser@CTable@@UAEJH@Z 004da560 f   xygame2d:xygdata.obj
 0001:000d95d0       ?IsBoutInvalid@CTable@@UAEHH@Z 004da5d0 f   xygame2d:xygdata.obj
 0001:000d9640       ?PlayerEnter@CTable@@UAEHPAVCPlayer@@@Z 004da640 f   xygame2d:xygdata.obj
 0001:000d9720       ?PlayerLeave@CTable@@UAEHHH@Z 004da720 f   xygame2d:xygdata.obj
 0001:000d9830       ?GetPlayerCount@CTable@@UAEHXZ 004da830 f   xygame2d:xygdata.obj
 0001:000d9870       ?GetMatchID@CTable@@UAEHXZ 004da870 f   xygame2d:xygdata.obj
 0001:000d98a0       ?IsTableFull@CTable@@UAEHXZ 004da8a0 f   xygame2d:xygdata.obj
 0001:000d98f0       ?IsTableEmpty@CTable@@UAEHXZ 004da8f0 f   xygame2d:xygdata.obj
 0001:000d9940       ?IsPlaying@CTable@@UAEHXZ  004da940 f   xygame2d:xygdata.obj
 0001:000d99b0       ?IsNeedCountdown@CTable@@UAEHXZ 004da9b0 f   xygame2d:xygdata.obj
 0001:000d99e0       ?IsInCountDown@CTable@@UAEHXZ 004da9e0 f   xygame2d:xygdata.obj
 0001:000d9a70       ?SetCountDown@CTable@@UAEHHH@Z 004daa70 f   xygame2d:xygdata.obj
 0001:000d9b30       ?GetCountDown@CTable@@UAEHXZ 004dab30 f   xygame2d:xygdata.obj
 0001:000d9b60       ?GetPlayerCountOnTable@CTable@@UAEHXZ 004dab60 f   xygame2d:xygdata.obj
 0001:000d9be0       ?CalcRemainCountdown@CTable@@UAEHK@Z 004dabe0 f   xygame2d:xygdata.obj
 0001:000d9c80       ?ResetCountdown@CTable@@UAEXXZ 004dac80 f   xygame2d:xygdata.obj
 0001:000d9cc0       ?SetPlayerStatusOnStart@CTable@@UAEXXZ 004dacc0 f   xygame2d:xygdata.obj
 0001:000d9de0       ?CalcUserBoutEndDiff@CTable@@UAEHHAAH00@Z 004dade0 f   xygame2d:xygdata.obj
 0001:000d9e30       ?BuildUpUserBoutEnd@CTable@@UAEHPAXHHHAAV?$CMap@HHU_tagPLAYERLEVEL_EX@@U1@@@@Z 004dae30 f   xygame2d:xygdata.obj
 0001:000da1a0       ?ConstructPreSaveResult@CTable@@UAEHPAXHHHHPAU_tagREFRESH_RESULT_EX@@PAU_tagGAME_RESULT_EX@@@Z 004db1a0 f   xygame2d:xygdata.obj
 0001:000da340       ?RefreshOnePlayerData@CTable@@UAEHPAU_tagGAME_RESULT_EX@@@Z 004db340 f   xygame2d:xygdata.obj
 0001:000da3a0       ?ConstructEndSaveResult@CTable@@UAEHPAXHHHPAU_tagREFRESH_RESULT_EX@@QAU_tagGAME_RESULT_EX@@@Z 004db3a0 f   xygame2d:xygdata.obj
 0001:000da520       ?FillupEndSaveGameResults@CTable@@UAEXPAXHQAU_tagGAME_RESULT_EX@@@Z 004db520 f   xygame2d:xygdata.obj
 0001:000da9a0       ?FillPlayerStatus@CTable@@UAEXPAXH@Z 004db9a0 f   xygame2d:xygdata.obj
 0001:000daa50       ?CompensateOneDeposit@CTable@@UAEHHAAH@Z 004dba50 f   xygame2d:xygdata.obj
 0001:000daaa0       ?CalcOneWinFee@CTable@@UAEHHAAH0@Z 004dbaa0 f   xygame2d:xygdata.obj
 0001:000dac40       ?CalcOneWinFeeEx@CTable@@UAEHHAAH00@Z 004dbc40 f   xygame2d:xygdata.obj
 0001:000dae40       ?RecordPlayerOnStart@CTable@@UAEXH@Z 004dbe40 f   xygame2d:xygdata.obj
 0001:000db040       ?RecordPlayerOnCurrencyChange@CTable@@UAEXHH@Z 004dc040 f   xygame2d:xygdata.obj
 0001:000db110       ?ReduceMinusScore@CTable@@UAEHH@Z 004dc110 f   xygame2d:xygdata.obj
 0001:000db290       ?GetScoreProtectPct@CTable@@UAEXAAHQAH1H@Z 004dc290 f   xygame2d:xygdata.obj
 0001:000db320       ?SetScoreProtect@CTable@@UAEHQAH0@Z 004dc320 f   xygame2d:xygdata.obj
 0001:000db420       ?GetSoloAloneKickOffTime@CTable@@UAEHXZ 004dc420 f   xygame2d:xygdata.obj
 0001:000db4d0       ?CheckDepositOneResult@CTable@@UAEHAAH0@Z 004dc4d0 f   xygame2d:xygdata.obj
 0001:000db520       ?IsKickOffTooManyIdlePlayer@CTable@@UAEHXZ 004dc520 f   xygame2d:xygdata.obj
 0001:000db550       ?IsMemberReduceNGScore@CTable@@UAEHXZ 004dc550 f   xygame2d:xygdata.obj
 0001:000db580       ?FillSoloPlayersData@CTable@@UAEXHPAX@Z 004dc580 f   xygame2d:xygdata.obj
 0001:000db660       ?SaveCloakPlayersReal@CTable@@UAEXPAX@Z 004dc660 f   xygame2d:xygdata.obj
 0001:000db7e0       ?SaveCloakPlayers@CTable@@UAEXHPAX@Z 004dc7e0 f   xygame2d:xygdata.obj
 0001:000db9a0       ?RandSoloPlayerInfo@CTable@@UAEXHPAU_tagSOLO_PLAYER@@@Z 004dc9a0 f   xygame2d:xygdata.obj
 0001:000dbbe0       ?SetSoloPlayerDXXW@CTable@@UAEXHPAU_tagSOLO_PLAYER@@@Z 004dcbe0 f   xygame2d:xygdata.obj
 0001:000dbca0       ?GetSoloPlayerName@CTable@@UAE?AVCString@@H@Z 004dcca0 f   xygame2d:xygdata.obj
 0001:000dbfa0       ?IsCheckingResult@CTable@@UAEHXZ 004dcfa0 f   xygame2d:xygdata.obj
 0001:000dc000       ?SetCheckingResult@CTable@@QAEXH@Z 004dd000 f   xygame2d:xygdata.obj
 0001:000dc060       ?IsTakingBonus@CTable@@UAEHXZ 004dd060 f   xygame2d:xygdata.obj
 0001:000dc150       ?IsPlayerTakingBonus@CTable@@UAEHH@Z 004dd150 f   xygame2d:xygdata.obj
 0001:000dc280       ?SetTakingBonus@CTable@@QAEXHH@Z 004dd280 f   xygame2d:xygdata.obj
 0001:000dc350       ?SetAllTakingBonus@CTable@@QAEXH@Z 004dd350 f   xygame2d:xygdata.obj
 0001:000dc410       ?SetHomeUserID@CTable@@QAEXH@Z 004dd410 f   xygame2d:xygdata.obj
 0001:000dc450       ?GetHomeUserID@CTable@@QAEHXZ 004dd450 f   xygame2d:xygdata.obj
 0001:000dc480       ?IsHomeChanged@CTable@@QAE_NXZ 004dd480 f   xygame2d:xygdata.obj
 0001:000dc4b0       ?SetHomeChanged@CTable@@QAEX_N@Z 004dd4b0 f   xygame2d:xygdata.obj
 0001:000dc4f0       ?CheckHomeUserChange@CTable@@QAEXH@Z 004dd4f0 f   xygame2d:xygdata.obj
 0001:000dc5c0       ?GetPlayerCache@CTable@@QAE_NHAAU_tagPlayerCache@@@Z 004dd5c0 f   xygame2d:xygdata.obj
 0001:000dc650       ?AddPlayerCache@CTable@@QAEXABU_tagPlayerCache@@@Z 004dd650 f   xygame2d:xygdata.obj
 0001:000dc6a0       ?FillPlayerCache@CTable@@QAEHHQAU_tagONE_PLAYER_SOCLALLY@@@Z 004dd6a0 f   xygame2d:xygdata.obj
 0001:000dc7c0       ??0CRoom@@QAE@H@Z          004dd7c0 f   xygame2d:xygdata.obj
 0001:000dc870       ??_GCRoom@@UAEPAXI@Z       004dd870 f i xygame2d:xygdata.obj
 0001:000dc870       ??_ECRoom@@UAEPAXI@Z       004dd870 f i xygame2d:xygdata.obj
 0001:000dc8d0       ??1CRoom@@UAE@XZ           004dd8d0 f   xygame2d:xygdata.obj
 0001:000dc9f0       ?GetWaitTableNO@CRoom@@UAEXAAH0@Z 004dd9f0 f   xygame2d:xygdata.obj
 0001:000dcb20       ?IsOnMatch@CRoom@@QAEHXZ   004ddb20 f   xygame2d:xygdata.obj
 0001:000dcb50       ?MatchBegin@CRoom@@QAEXH@Z 004ddb50 f   xygame2d:xygdata.obj
 0001:000dcc00       ?MatchClose@CRoom@@QAEXXZ  004ddc00 f   xygame2d:xygdata.obj
 0001:000dcca0       ?NewPlayerLevelMap@@YAXAAV?$CMap@HHU_tagPLAYERLEVEL_EX@@U1@@@PAEH@Z 004ddca0 f   xygame2d:xygdata.obj
 0001:000dcd20       ?LookupPlayerLevel@@YAHAAV?$CMap@HHU_tagPLAYERLEVEL_EX@@U1@@@HPAD@Z 004ddd20 f   xygame2d:xygdata.obj
 0001:000dcd90       ?GetINIFileName@@YA?AVCString@@XZ 004ddd90 f   xygame2d:xygdata.obj
 0001:000dcf30       ??0?$map@HU_tagPlayerCache@@U?$less@H@std@@V?$allocator@U_tagPlayerCache@@@3@@std@@QAE@ABU?$less@H@1@ABV?$allocator@U_tagPlayerCache@@@1@@Z 004ddf30 f i xygame2d:xygdata.obj
 0001:000dcf80       ?begin@?$map@HU_tagPlayerCache@@U?$less@H@std@@V?$allocator@U_tagPlayerCache@@@3@@std@@QAE?AViterator@?$_Tree@HU?$pair@$$CBHU_tagPlayerCache@@@std@@U_Kfn@?$map@HU_tagPlayerCache@@U?$less@H@std@@V?$allocator@U_tagPlayerCache@@@3@@2@U?$less@H@2@V?$allocator@U_tagPlayerCache@@@2@@2@XZ 004ddf80 f i xygame2d:xygdata.obj
 0001:000dcfd0       ?end@?$map@HU_tagPlayerCache@@U?$less@H@std@@V?$allocator@U_tagPlayerCache@@@3@@std@@QAE?AViterator@?$_Tree@HU?$pair@$$CBHU_tagPlayerCache@@@std@@U_Kfn@?$map@HU_tagPlayerCache@@U?$less@H@std@@V?$allocator@U_tagPlayerCache@@@3@@2@U?$less@H@2@V?$allocator@U_tagPlayerCache@@@2@@2@XZ 004ddfd0 f i xygame2d:xygdata.obj
 0001:000dd020       ??A?$map@HU_tagPlayerCache@@U?$less@H@std@@V?$allocator@U_tagPlayerCache@@@3@@std@@QAEAAU_tagPlayerCache@@ABH@Z 004de020 f i xygame2d:xygdata.obj
 0001:000dd090       ?erase@?$map@HU_tagPlayerCache@@U?$less@H@std@@V?$allocator@U_tagPlayerCache@@@3@@std@@QAEIABH@Z 004de090 f i xygame2d:xygdata.obj
 0001:000dd0d0       ?find@?$map@HU_tagPlayerCache@@U?$less@H@std@@V?$allocator@U_tagPlayerCache@@@3@@std@@QAE?AViterator@?$_Tree@HU?$pair@$$CBHU_tagPlayerCache@@@std@@U_Kfn@?$map@HU_tagPlayerCache@@U?$less@H@std@@V?$allocator@U_tagPlayerCache@@@3@@2@U?$less@H@2@V?$allocator@U_tagPlayerCache@@@2@@2@ABH@Z 004de0d0 f i xygame2d:xygdata.obj
 0001:000dd120       ??1?$_Tree@HU?$pair@$$CBHU_tagPlayerCache@@@std@@U_Kfn@?$map@HU_tagPlayerCache@@U?$less@H@std@@V?$allocator@U_tagPlayerCache@@@3@@2@U?$less@H@2@V?$allocator@U_tagPlayerCache@@@2@@std@@QAE@XZ 004de120 f i xygame2d:xygdata.obj
 0001:000dd210       ??Citerator@?$_Tree@HU?$pair@$$CBHU_tagPlayerCache@@@std@@U_Kfn@?$map@HU_tagPlayerCache@@U?$less@H@std@@V?$allocator@U_tagPlayerCache@@@3@@2@U?$less@H@2@V?$allocator@U_tagPlayerCache@@@2@@std@@QBEPAU?$pair@$$CBHU_tagPlayerCache@@@2@XZ 004de210 f i xygame2d:xygdata.obj
 0001:000dd250       ??Eiterator@?$_Tree@HU?$pair@$$CBHU_tagPlayerCache@@@std@@U_Kfn@?$map@HU_tagPlayerCache@@U?$less@H@std@@V?$allocator@U_tagPlayerCache@@@3@@2@U?$less@H@2@V?$allocator@U_tagPlayerCache@@@2@@std@@QAE?AV012@H@Z 004de250 f i xygame2d:xygdata.obj
 0001:000dd2a0       ??9iterator@?$_Tree@HU?$pair@$$CBHU_tagPlayerCache@@@std@@U_Kfn@?$map@HU_tagPlayerCache@@U?$less@H@std@@V?$allocator@U_tagPlayerCache@@@3@@2@U?$less@H@2@V?$allocator@U_tagPlayerCache@@@2@@std@@QBE_NABV012@@Z 004de2a0 f i xygame2d:xygdata.obj
 0001:000dd2f0       ?insert@?$map@HU_tagPlayerCache@@U?$less@H@std@@V?$allocator@U_tagPlayerCache@@@3@@std@@QAE?AU?$pair@Viterator@?$_Tree@HU?$pair@$$CBHU_tagPlayerCache@@@std@@U_Kfn@?$map@HU_tagPlayerCache@@U?$less@H@std@@V?$allocator@U_tagPlayerCache@@@3@@2@U?$less@H@2@V?$allocator@U_tagPlayerCache@@@2@@std@@_N@2@ABU?$pair@$$CBHU_tagPlayerCache@@@2@@Z 004de2f0 f i xygame2d:xygdata.obj
 0001:000dd360       ??0?$_Tree@HU?$pair@$$CBHU_tagPlayerCache@@@std@@U_Kfn@?$map@HU_tagPlayerCache@@U?$less@H@std@@V?$allocator@U_tagPlayerCache@@@3@@2@U?$less@H@2@V?$allocator@U_tagPlayerCache@@@2@@std@@QAE@ABU?$less@H@1@_NABV?$allocator@U_tagPlayerCache@@@1@@Z 004de360 f i xygame2d:xygdata.obj
 0001:000dd3c0       ?begin@?$_Tree@HU?$pair@$$CBHU_tagPlayerCache@@@std@@U_Kfn@?$map@HU_tagPlayerCache@@U?$less@H@std@@V?$allocator@U_tagPlayerCache@@@3@@2@U?$less@H@2@V?$allocator@U_tagPlayerCache@@@2@@std@@QAE?AViterator@12@XZ 004de3c0 f i xygame2d:xygdata.obj
 0001:000dd410       ?end@?$_Tree@HU?$pair@$$CBHU_tagPlayerCache@@@std@@U_Kfn@?$map@HU_tagPlayerCache@@U?$less@H@std@@V?$allocator@U_tagPlayerCache@@@3@@2@U?$less@H@2@V?$allocator@U_tagPlayerCache@@@2@@std@@QAE?AViterator@12@XZ 004de410 f i xygame2d:xygdata.obj
 0001:000dd460       ?erase@?$_Tree@HU?$pair@$$CBHU_tagPlayerCache@@@std@@U_Kfn@?$map@HU_tagPlayerCache@@U?$less@H@std@@V?$allocator@U_tagPlayerCache@@@3@@2@U?$less@H@2@V?$allocator@U_tagPlayerCache@@@2@@std@@QAE?AViterator@12@V312@0@Z 004de460 f i xygame2d:xygdata.obj
 0001:000dd580       ?erase@?$_Tree@HU?$pair@$$CBHU_tagPlayerCache@@@std@@U_Kfn@?$map@HU_tagPlayerCache@@U?$less@H@std@@V?$allocator@U_tagPlayerCache@@@3@@2@U?$less@H@2@V?$allocator@U_tagPlayerCache@@@2@@std@@QAEIABH@Z 004de580 f i xygame2d:xygdata.obj
 0001:000dd600       ?find@?$_Tree@HU?$pair@$$CBHU_tagPlayerCache@@@std@@U_Kfn@?$map@HU_tagPlayerCache@@U?$less@H@std@@V?$allocator@U_tagPlayerCache@@@3@@2@U?$less@H@2@V?$allocator@U_tagPlayerCache@@@2@@std@@QAE?AViterator@12@ABH@Z 004de600 f i xygame2d:xygdata.obj
 0001:000dd6c0       ?_Freenode@?$_Tree@HU?$pair@$$CBHU_tagPlayerCache@@@std@@U_Kfn@?$map@HU_tagPlayerCache@@U?$less@H@std@@V?$allocator@U_tagPlayerCache@@@3@@2@U?$less@H@2@V?$allocator@U_tagPlayerCache@@@2@@std@@IAEXPAU_Node@12@@Z 004de6c0 f i xygame2d:xygdata.obj
 0001:000dd700       ??0?$pair@$$CBHU_tagPlayerCache@@@std@@QAE@ABHABU_tagPlayerCache@@@Z 004de700 f i xygame2d:xygdata.obj
 0001:000dd750       ??Diterator@?$_Tree@HU?$pair@$$CBHU_tagPlayerCache@@@std@@U_Kfn@?$map@HU_tagPlayerCache@@U?$less@H@std@@V?$allocator@U_tagPlayerCache@@@3@@2@U?$less@H@2@V?$allocator@U_tagPlayerCache@@@2@@std@@QBEAAU?$pair@$$CBHU_tagPlayerCache@@@2@XZ 004de750 f i xygame2d:xygdata.obj
 0001:000dd790       ??Eiterator@?$_Tree@HU?$pair@$$CBHU_tagPlayerCache@@@std@@U_Kfn@?$map@HU_tagPlayerCache@@U?$less@H@std@@V?$allocator@U_tagPlayerCache@@@3@@2@U?$less@H@2@V?$allocator@U_tagPlayerCache@@@2@@std@@QAEAAV012@XZ 004de790 f i xygame2d:xygdata.obj
 0001:000dd7d0       ??8iterator@?$_Tree@HU?$pair@$$CBHU_tagPlayerCache@@@std@@U_Kfn@?$map@HU_tagPlayerCache@@U?$less@H@std@@V?$allocator@U_tagPlayerCache@@@3@@2@U?$less@H@2@V?$allocator@U_tagPlayerCache@@@2@@std@@QBE_NABV012@@Z 004de7d0 f i xygame2d:xygdata.obj
 0001:000dd810       ?deallocate@?$allocator@U_tagPlayerCache@@@std@@QAEXPAXI@Z 004de810 f i xygame2d:xygdata.obj
 0001:000dd850       ?_Key@?$_Tree@HU?$pair@$$CBHU_tagPlayerCache@@@std@@U_Kfn@?$map@HU_tagPlayerCache@@U?$less@H@std@@V?$allocator@U_tagPlayerCache@@@3@@2@U?$less@H@2@V?$allocator@U_tagPlayerCache@@@2@@std@@KAABHPAU_Node@12@@Z 004de850 f i xygame2d:xygdata.obj
 0001:000dd890       ?_Value@?$_Tree@HU?$pair@$$CBHU_tagPlayerCache@@@std@@U_Kfn@?$map@HU_tagPlayerCache@@U?$less@H@std@@V?$allocator@U_tagPlayerCache@@@3@@2@U?$less@H@2@V?$allocator@U_tagPlayerCache@@@2@@std@@KAAAU?$pair@$$CBHU_tagPlayerCache@@@2@PAU_Node@12@@Z 004de890 f i xygame2d:xygdata.obj
 0001:000dd8c0       ?size@?$_Tree@HU?$pair@$$CBHU_tagPlayerCache@@@std@@U_Kfn@?$map@HU_tagPlayerCache@@U?$less@H@std@@V?$allocator@U_tagPlayerCache@@@3@@2@U?$less@H@2@V?$allocator@U_tagPlayerCache@@@2@@std@@QBEIXZ 004de8c0 f i xygame2d:xygdata.obj
 0001:000dd8f0       ?insert@?$_Tree@HU?$pair@$$CBHU_tagPlayerCache@@@std@@U_Kfn@?$map@HU_tagPlayerCache@@U?$less@H@std@@V?$allocator@U_tagPlayerCache@@@3@@2@U?$less@H@2@V?$allocator@U_tagPlayerCache@@@2@@std@@QAE?AU?$pair@Viterator@?$_Tree@HU?$pair@$$CBHU_tagPlayerCache@@@std@@U_Kfn@?$map@HU_tagPlayerCache@@U?$less@H@std@@V?$allocator@U_tagPlayerCache@@@3@@2@U?$less@H@2@V?$allocator@U_tagPlayerCache@@@2@@std@@_N@2@ABU?$pair@$$CBHU_tagPlayerCache@@@2@@Z 004de8f0 f i xygame2d:xygdata.obj
 0001:000ddb20       ?erase@?$_Tree@HU?$pair@$$CBHU_tagPlayerCache@@@std@@U_Kfn@?$map@HU_tagPlayerCache@@U?$less@H@std@@V?$allocator@U_tagPlayerCache@@@3@@2@U?$less@H@2@V?$allocator@U_tagPlayerCache@@@2@@std@@QAE?AViterator@12@V312@@Z 004deb20 f i xygame2d:xygdata.obj
 0001:000de3a0       ?lower_bound@?$_Tree@HU?$pair@$$CBHU_tagPlayerCache@@@std@@U_Kfn@?$map@HU_tagPlayerCache@@U?$less@H@std@@V?$allocator@U_tagPlayerCache@@@3@@2@U?$less@H@2@V?$allocator@U_tagPlayerCache@@@2@@std@@QAE?AViterator@12@ABH@Z 004df3a0 f i xygame2d:xygdata.obj
 0001:000de3f0       ?equal_range@?$_Tree@HU?$pair@$$CBHU_tagPlayerCache@@@std@@U_Kfn@?$map@HU_tagPlayerCache@@U?$less@H@std@@V?$allocator@U_tagPlayerCache@@@3@@2@U?$less@H@2@V?$allocator@U_tagPlayerCache@@@2@@std@@QAE?AU?$pair@Viterator@?$_Tree@HU?$pair@$$CBHU_tagPlayerCache@@@std@@U_Kfn@?$map@HU_tagPlayerCache@@U?$less@H@std@@V?$allocator@U_tagPlayerCache@@@3@@2@U?$less@H@2@V?$allocator@U_tagPlayerCache@@@2@@std@@V123@@2@ABH@Z 004df3f0 f i xygame2d:xygdata.obj
 0001:000de460       ?_Erase@?$_Tree@HU?$pair@$$CBHU_tagPlayerCache@@@std@@U_Kfn@?$map@HU_tagPlayerCache@@U?$less@H@std@@V?$allocator@U_tagPlayerCache@@@3@@2@U?$less@H@2@V?$allocator@U_tagPlayerCache@@@2@@std@@IAEXPAU_Node@12@@Z 004df460 f i xygame2d:xygdata.obj
 0001:000de500       ?_Init@?$_Tree@HU?$pair@$$CBHU_tagPlayerCache@@@std@@U_Kfn@?$map@HU_tagPlayerCache@@U?$less@H@std@@V?$allocator@U_tagPlayerCache@@@3@@2@U?$less@H@2@V?$allocator@U_tagPlayerCache@@@2@@std@@IAEXXZ 004df500 f i xygame2d:xygdata.obj
 0001:000de630       ?_Lmost@?$_Tree@HU?$pair@$$CBHU_tagPlayerCache@@@std@@U_Kfn@?$map@HU_tagPlayerCache@@U?$less@H@std@@V?$allocator@U_tagPlayerCache@@@3@@2@U?$less@H@2@V?$allocator@U_tagPlayerCache@@@2@@std@@IAEAAPAU_Node@12@XZ 004df630 f i xygame2d:xygdata.obj
 0001:000de670       ?_Rmost@?$_Tree@HU?$pair@$$CBHU_tagPlayerCache@@@std@@U_Kfn@?$map@HU_tagPlayerCache@@U?$less@H@std@@V?$allocator@U_tagPlayerCache@@@3@@2@U?$less@H@2@V?$allocator@U_tagPlayerCache@@@2@@std@@IAEAAPAU_Node@12@XZ 004df670 f i xygame2d:xygdata.obj
 0001:000de6b0       ?_Root@?$_Tree@HU?$pair@$$CBHU_tagPlayerCache@@@std@@U_Kfn@?$map@HU_tagPlayerCache@@U?$less@H@std@@V?$allocator@U_tagPlayerCache@@@3@@2@U?$less@H@2@V?$allocator@U_tagPlayerCache@@@2@@std@@IAEAAPAU_Node@12@XZ 004df6b0 f i xygame2d:xygdata.obj
 0001:000de6f0       ?_Inc@const_iterator@?$_Tree@HU?$pair@$$CBHU_tagPlayerCache@@@std@@U_Kfn@?$map@HU_tagPlayerCache@@U?$less@H@std@@V?$allocator@U_tagPlayerCache@@@3@@2@U?$less@H@2@V?$allocator@U_tagPlayerCache@@@2@@std@@QAEXXZ 004df6f0 f i xygame2d:xygdata.obj
 0001:000de7b0       ?_Mynode@const_iterator@?$_Tree@HU?$pair@$$CBHU_tagPlayerCache@@@std@@U_Kfn@?$map@HU_tagPlayerCache@@U?$less@H@std@@V?$allocator@U_tagPlayerCache@@@3@@2@U?$less@H@2@V?$allocator@U_tagPlayerCache@@@2@@std@@QBEPAU_Node@23@XZ 004df7b0 f i xygame2d:xygdata.obj
 0001:000de7e0       ??0iterator@?$_Tree@HU?$pair@$$CBHU_tagPlayerCache@@@std@@U_Kfn@?$map@HU_tagPlayerCache@@U?$less@H@std@@V?$allocator@U_tagPlayerCache@@@3@@2@U?$less@H@2@V?$allocator@U_tagPlayerCache@@@2@@std@@QAE@PAU_Node@12@@Z 004df7e0 f i xygame2d:xygdata.obj
 0001:000de820       ??0?$pair@Viterator@?$_Tree@HU?$pair@$$CBHU_tagPlayerCache@@@std@@U_Kfn@?$map@HU_tagPlayerCache@@U?$less@H@std@@V?$allocator@U_tagPlayerCache@@@3@@2@U?$less@H@2@V?$allocator@U_tagPlayerCache@@@2@@std@@_N@std@@QAE@ABViterator@?$_Tree@HU?$pair@$$CBHU_tagPlayerCache@@@std@@U_Kfn@?$map@HU_tagPlayerCache@@U?$less@H@std@@V?$allocator@U_tagPlayerCache@@@3@@2@U?$less@H@2@V?$allocator@U_tagPlayerCache@@@2@@1@AB_N@Z 004df820 f i xygame2d:xygdata.obj
 0001:000de860       ??R_Kfn@?$map@HU_tagPlayerCache@@U?$less@H@std@@V?$allocator@U_tagPlayerCache@@@3@@std@@QBEABHABU?$pair@$$CBHU_tagPlayerCache@@@2@@Z 004df860 f i xygame2d:xygdata.obj
 0001:000de890       ?_Color@?$_Tree@HU?$pair@$$CBHU_tagPlayerCache@@@std@@U_Kfn@?$map@HU_tagPlayerCache@@U?$less@H@std@@V?$allocator@U_tagPlayerCache@@@3@@2@U?$less@H@2@V?$allocator@U_tagPlayerCache@@@2@@std@@KAAAW4_Redbl@12@PAU_Node@12@@Z 004df890 f i xygame2d:xygdata.obj
 0001:000de8c0       ?_Left@?$_Tree@HU?$pair@$$CBHU_tagPlayerCache@@@std@@U_Kfn@?$map@HU_tagPlayerCache@@U?$less@H@std@@V?$allocator@U_tagPlayerCache@@@3@@2@U?$less@H@2@V?$allocator@U_tagPlayerCache@@@2@@std@@KAAAPAU_Node@12@PAU312@@Z 004df8c0 f i xygame2d:xygdata.obj
 0001:000de8f0       ?_Parent@?$_Tree@HU?$pair@$$CBHU_tagPlayerCache@@@std@@U_Kfn@?$map@HU_tagPlayerCache@@U?$less@H@std@@V?$allocator@U_tagPlayerCache@@@3@@2@U?$less@H@2@V?$allocator@U_tagPlayerCache@@@2@@std@@KAAAPAU_Node@12@PAU312@@Z 004df8f0 f i xygame2d:xygdata.obj
 0001:000de920       ?_Right@?$_Tree@HU?$pair@$$CBHU_tagPlayerCache@@@std@@U_Kfn@?$map@HU_tagPlayerCache@@U?$less@H@std@@V?$allocator@U_tagPlayerCache@@@3@@2@U?$less@H@2@V?$allocator@U_tagPlayerCache@@@2@@std@@KAAAPAU_Node@12@PAU312@@Z 004df920 f i xygame2d:xygdata.obj
 0001:000de950       ?upper_bound@?$_Tree@HU?$pair@$$CBHU_tagPlayerCache@@@std@@U_Kfn@?$map@HU_tagPlayerCache@@U?$less@H@std@@V?$allocator@U_tagPlayerCache@@@3@@2@U?$less@H@2@V?$allocator@U_tagPlayerCache@@@2@@std@@QAE?AViterator@12@ABH@Z 004df950 f i xygame2d:xygdata.obj
 0001:000de9a0       ?_Insert@?$_Tree@HU?$pair@$$CBHU_tagPlayerCache@@@std@@U_Kfn@?$map@HU_tagPlayerCache@@U?$less@H@std@@V?$allocator@U_tagPlayerCache@@@3@@2@U?$less@H@2@V?$allocator@U_tagPlayerCache@@@2@@std@@IAE?AViterator@12@PAU_Node@12@0ABU?$pair@$$CBHU_tagPlayerCache@@@2@@Z 004df9a0 f i xygame2d:xygdata.obj
 0001:000dee50       ?_Lbound@?$_Tree@HU?$pair@$$CBHU_tagPlayerCache@@@std@@U_Kfn@?$map@HU_tagPlayerCache@@U?$less@H@std@@V?$allocator@U_tagPlayerCache@@@3@@2@U?$less@H@2@V?$allocator@U_tagPlayerCache@@@2@@std@@IBEPAU_Node@12@ABH@Z 004dfe50 f i xygame2d:xygdata.obj
 0001:000def00       ?_Lrotate@?$_Tree@HU?$pair@$$CBHU_tagPlayerCache@@@std@@U_Kfn@?$map@HU_tagPlayerCache@@U?$less@H@std@@V?$allocator@U_tagPlayerCache@@@3@@2@U?$less@H@2@V?$allocator@U_tagPlayerCache@@@2@@std@@IAEXPAU_Node@12@@Z 004dff00 f i xygame2d:xygdata.obj
 0001:000df050       ?_Max@?$_Tree@HU?$pair@$$CBHU_tagPlayerCache@@@std@@U_Kfn@?$map@HU_tagPlayerCache@@U?$less@H@std@@V?$allocator@U_tagPlayerCache@@@3@@2@U?$less@H@2@V?$allocator@U_tagPlayerCache@@@2@@std@@KAPAU_Node@12@PAU312@@Z 004e0050 f i xygame2d:xygdata.obj
 0001:000df0b0       ?_Min@?$_Tree@HU?$pair@$$CBHU_tagPlayerCache@@@std@@U_Kfn@?$map@HU_tagPlayerCache@@U?$less@H@std@@V?$allocator@U_tagPlayerCache@@@3@@2@U?$less@H@2@V?$allocator@U_tagPlayerCache@@@2@@std@@KAPAU_Node@12@PAU312@@Z 004e00b0 f i xygame2d:xygdata.obj
 0001:000df110       ?_Rrotate@?$_Tree@HU?$pair@$$CBHU_tagPlayerCache@@@std@@U_Kfn@?$map@HU_tagPlayerCache@@U?$less@H@std@@V?$allocator@U_tagPlayerCache@@@3@@2@U?$less@H@2@V?$allocator@U_tagPlayerCache@@@2@@std@@IAEXPAU_Node@12@@Z 004e0110 f i xygame2d:xygdata.obj
 0001:000df260       ?_Buynode@?$_Tree@HU?$pair@$$CBHU_tagPlayerCache@@@std@@U_Kfn@?$map@HU_tagPlayerCache@@U?$less@H@std@@V?$allocator@U_tagPlayerCache@@@3@@2@U?$less@H@2@V?$allocator@U_tagPlayerCache@@@2@@std@@IAEPAU_Node@12@PAU312@W4_Redbl@12@@Z 004e0260 f i xygame2d:xygdata.obj
 0001:000df2d0       ?_Destval@?$_Tree@HU?$pair@$$CBHU_tagPlayerCache@@@std@@U_Kfn@?$map@HU_tagPlayerCache@@U?$less@H@std@@V?$allocator@U_tagPlayerCache@@@3@@2@U?$less@H@2@V?$allocator@U_tagPlayerCache@@@2@@std@@IAEXPAU?$pair@$$CBHU_tagPlayerCache@@@2@@Z 004e02d0 f i xygame2d:xygdata.obj
 0001:000df310       ??0const_iterator@?$_Tree@HU?$pair@$$CBHU_tagPlayerCache@@@std@@U_Kfn@?$map@HU_tagPlayerCache@@U?$less@H@std@@V?$allocator@U_tagPlayerCache@@@3@@2@U?$less@H@2@V?$allocator@U_tagPlayerCache@@@2@@std@@QAE@PAU_Node@12@@Z 004e0310 f i xygame2d:xygdata.obj
 0001:000df350       ??Fiterator@?$_Tree@HU?$pair@$$CBHU_tagPlayerCache@@@std@@U_Kfn@?$map@HU_tagPlayerCache@@U?$less@H@std@@V?$allocator@U_tagPlayerCache@@@3@@2@U?$less@H@2@V?$allocator@U_tagPlayerCache@@@2@@std@@QAEAAV012@XZ 004e0350 f i xygame2d:xygdata.obj
 0001:000df390       ??0?$pair@Viterator@?$_Tree@HU?$pair@$$CBHU_tagPlayerCache@@@std@@U_Kfn@?$map@HU_tagPlayerCache@@U?$less@H@std@@V?$allocator@U_tagPlayerCache@@@3@@2@U?$less@H@2@V?$allocator@U_tagPlayerCache@@@2@@std@@V123@@std@@QAE@ABViterator@?$_Tree@HU?$pair@$$CBHU_tagPlayerCache@@@std@@U_Kfn@?$map@HU_tagPlayerCache@@U?$less@H@std@@V?$allocator@U_tagPlayerCache@@@3@@2@U?$less@H@2@V?$allocator@U_tagPlayerCache@@@2@@1@0@Z 004e0390 f i xygame2d:xygdata.obj
 0001:000df3d0       ?_Charalloc@?$allocator@U_tagPlayerCache@@@std@@QAEPADI@Z 004e03d0 f i xygame2d:xygdata.obj
 0001:000df410       ?_Root@?$_Tree@HU?$pair@$$CBHU_tagPlayerCache@@@std@@U_Kfn@?$map@HU_tagPlayerCache@@U?$less@H@std@@V?$allocator@U_tagPlayerCache@@@3@@2@U?$less@H@2@V?$allocator@U_tagPlayerCache@@@2@@std@@IBEAAPAU_Node@12@XZ 004e0410 f i xygame2d:xygdata.obj
 0001:000df450       ?_Ubound@?$_Tree@HU?$pair@$$CBHU_tagPlayerCache@@@std@@U_Kfn@?$map@HU_tagPlayerCache@@U?$less@H@std@@V?$allocator@U_tagPlayerCache@@@3@@2@U?$less@H@2@V?$allocator@U_tagPlayerCache@@@2@@std@@IBEPAU_Node@12@ABH@Z 004e0450 f i xygame2d:xygdata.obj
 0001:000df500       ?_Consval@?$_Tree@HU?$pair@$$CBHU_tagPlayerCache@@@std@@U_Kfn@?$map@HU_tagPlayerCache@@U?$less@H@std@@V?$allocator@U_tagPlayerCache@@@3@@2@U?$less@H@2@V?$allocator@U_tagPlayerCache@@@2@@std@@IAEXPAU?$pair@$$CBHU_tagPlayerCache@@@2@ABU32@@Z 004e0500 f i xygame2d:xygdata.obj
 0001:000df540       ?_Dec@const_iterator@?$_Tree@HU?$pair@$$CBHU_tagPlayerCache@@@std@@U_Kfn@?$map@HU_tagPlayerCache@@U?$less@H@std@@V?$allocator@U_tagPlayerCache@@@3@@2@U?$less@H@2@V?$allocator@U_tagPlayerCache@@@2@@std@@QAEXXZ 004e0540 f i xygame2d:xygdata.obj
 0001:000df630       ??0?$CMap@HHU_tagMATCHPLAYERINFO@@AAU1@@@QAE@H@Z 004e0630 f i xygame2d:xygdata.obj
 0001:000df700       ??0?$CMap@HHPAVCPlayer@@PAV1@@@QAE@H@Z 004e0700 f i xygame2d:xygdata.obj
 0001:000df7d0       ?RemoveKey@?$CMap@HHPAVCPlayer@@PAV1@@@QAEHH@Z 004e07d0 f i xygame2d:xygdata.obj
 0001:000df890       ??0?$CMap@HHPAVCTable@@PAV1@@@QAE@H@Z 004e0890 f i xygame2d:xygdata.obj
 0001:000df960       ?RemoveKey@?$CMap@HHPAVCTable@@PAV1@@@QAEHH@Z 004e0960 f i xygame2d:xygdata.obj
 0001:000dfa20       ?SetAt@?$CMap@HHU_tagPLAYERLEVEL_EX@@U1@@@QAEXHU_tagPLAYERLEVEL_EX@@@Z 004e0a20 f i xygame2d:xygdata.obj
 0001:000dfa70       ?_Distance@std@@YAXViterator@?$_Tree@HU?$pair@$$CBHU_tagPlayerCache@@@std@@U_Kfn@?$map@HU_tagPlayerCache@@U?$less@H@std@@V?$allocator@U_tagPlayerCache@@@3@@2@U?$less@H@2@V?$allocator@U_tagPlayerCache@@@2@@1@0AAI@Z 004e0a70 f i xygame2d:xygdata.obj
 0001:000dfac0       ?swap@std@@YAXAAW4_Redbl@?$_Tree@HU?$pair@$$CBHU_tagPlayerCache@@@std@@U_Kfn@?$map@HU_tagPlayerCache@@U?$less@H@std@@V?$allocator@U_tagPlayerCache@@@3@@2@U?$less@H@2@V?$allocator@U_tagPlayerCache@@@2@@1@0@Z 004e0ac0 f i xygame2d:xygdata.obj
 0001:000dfb00       ?_Destroy@std@@YAXPAU?$pair@$$CBHU_tagPlayerCache@@@1@@Z 004e0b00 f i xygame2d:xygdata.obj
 0001:000dfb20       ?_Construct@std@@YAXPAU?$pair@$$CBHU_tagPlayerCache@@@1@ABU21@@Z 004e0b20 f i xygame2d:xygdata.obj
 0001:000dfb80       ?FreeAssoc@?$CMap@HHPAVCPlayer@@PAV1@@@IAEXPAUCAssoc@1@@Z 004e0b80 f i xygame2d:xygdata.obj
 0001:000dfc30       ?FreeAssoc@?$CMap@HHPAVCTable@@PAV1@@@IAEXPAUCAssoc@1@@Z 004e0c30 f i xygame2d:xygdata.obj
 0001:000dfce0       ??A?$CMap@HHU_tagPLAYERLEVEL_EX@@U1@@@QAEAAU_tagPLAYERLEVEL_EX@@H@Z 004e0ce0 f i xygame2d:xygdata.obj
 0001:000dfda0       ?_Iter_cat@std@@YA?AUbidirectional_iterator_tag@1@ABU?$iterator@Ubidirectional_iterator_tag@std@@U?$pair@$$CBHU_tagPlayerCache@@@2@H@1@@Z 004e0da0 f i xygame2d:xygdata.obj
 0001:000dfdd0       ?_Distance@std@@YAXViterator@?$_Tree@HU?$pair@$$CBHU_tagPlayerCache@@@std@@U_Kfn@?$map@HU_tagPlayerCache@@U?$less@H@std@@V?$allocator@U_tagPlayerCache@@@3@@2@U?$less@H@2@V?$allocator@U_tagPlayerCache@@@2@@1@0AAIUbidirectional_iterator_tag@1@@Z 004e0dd0 f i xygame2d:xygdata.obj
 0001:000dfe30       ?InitHashTable@?$CMap@HHU_tagPLAYERLEVEL_EX@@U1@@@QAEXIH@Z 004e0e30 f i xygame2d:xygdata.obj
 0001:000dff30       ?NewAssoc@?$CMap@HHU_tagPLAYERLEVEL_EX@@U1@@@IAEPAUCAssoc@1@XZ 004e0f30 f i xygame2d:xygdata.obj
 0001:000e0070       ?ConstructElements@@YGXPAU_tagPLAYERLEVEL_EX@@H@Z 004e1070 f i xygame2d:xygdata.obj
 0001:000e0120       ??1?$CMap@HHPAVCPlayer@@PAV1@@@UAE@XZ 004e1120 f i xygame2d:xygdata.obj
 0001:000e01c0       ?Serialize@?$CMap@HHPAVCPlayer@@PAV1@@@UAEXAAVCArchive@@@Z 004e11c0 f i xygame2d:xygdata.obj
 0001:000e0310       ?Dump@?$CMap@HHPAVCPlayer@@PAV1@@@UBEXAAVCDumpContext@@@Z 004e1310 f i xygame2d:xygdata.obj
 0001:000e03f0       ?AssertValid@?$CMap@HHPAVCPlayer@@PAV1@@@UBEXXZ 004e13f0 f i xygame2d:xygdata.obj
 0001:000e0480       ??1?$CMap@HHPAVCTable@@PAV1@@@UAE@XZ 004e1480 f i xygame2d:xygdata.obj
 0001:000e0520       ?Serialize@?$CMap@HHPAVCTable@@PAV1@@@UAEXAAVCArchive@@@Z 004e1520 f i xygame2d:xygdata.obj
 0001:000e0670       ?Dump@?$CMap@HHPAVCTable@@PAV1@@@UBEXAAVCDumpContext@@@Z 004e1670 f i xygame2d:xygdata.obj
 0001:000e0750       ?AssertValid@?$CMap@HHPAVCTable@@PAV1@@@UBEXXZ 004e1750 f i xygame2d:xygdata.obj
 0001:000e07e0       ??1?$CMap@HHU_tagMATCHPLAYERINFO@@AAU1@@@UAE@XZ 004e17e0 f i xygame2d:xygdata.obj
 0001:000e0880       ?Serialize@?$CMap@HHU_tagMATCHPLAYERINFO@@AAU1@@@UAEXAAVCArchive@@@Z 004e1880 f i xygame2d:xygdata.obj
 0001:000e09e0       ?Dump@?$CMap@HHU_tagMATCHPLAYERINFO@@AAU1@@@UBEXAAVCDumpContext@@@Z 004e19e0 f i xygame2d:xygdata.obj
 0001:000e0ae0       ?AssertValid@?$CMap@HHU_tagMATCHPLAYERINFO@@AAU1@@@UBEXXZ 004e1ae0 f i xygame2d:xygdata.obj
 0001:000e0b70       ??_E?$CMap@HHPAVCPlayer@@PAV1@@@UAEPAXI@Z 004e1b70 f i xygame2d:xygdata.obj
 0001:000e0b70       ??_G?$CMap@HHPAVCPlayer@@PAV1@@@UAEPAXI@Z 004e1b70 f i xygame2d:xygdata.obj
 0001:000e0bc0       ??_E?$CMap@HHPAVCTable@@PAV1@@@UAEPAXI@Z 004e1bc0 f i xygame2d:xygdata.obj
 0001:000e0bc0       ??_G?$CMap@HHPAVCTable@@PAV1@@@UAEPAXI@Z 004e1bc0 f i xygame2d:xygdata.obj
 0001:000e0c10       ??_E?$CMap@HHU_tagMATCHPLAYERINFO@@AAU1@@@UAEPAXI@Z 004e1c10 f i xygame2d:xygdata.obj
 0001:000e0c10       ??_G?$CMap@HHU_tagMATCHPLAYERINFO@@AAU1@@@UAEPAXI@Z 004e1c10 f i xygame2d:xygdata.obj
 0001:000e0c60       ?RemoveAll@?$CMap@HHPAVCPlayer@@PAV1@@@QAEXXZ 004e1c60 f i xygame2d:xygdata.obj
 0001:000e0d50       ?SerializeElements@@YGXAAVCArchive@@PAHH@Z 004e1d50 f i xygame2d:xygdata.obj
 0001:000e0df0       ?SerializeElements@@YGXAAVCArchive@@PAPAVCPlayer@@H@Z 004e1df0 f i xygame2d:xygdata.obj
 0001:000e0e90       ?DumpElements@@YGXAAVCDumpContext@@PBHH@Z 004e1e90 f i xygame2d:xygdata.obj
 0001:000e0ef0       ?DumpElements@@YGXAAVCDumpContext@@PBQAVCPlayer@@H@Z 004e1ef0 f i xygame2d:xygdata.obj
 0001:000e0f50       ?RemoveAll@?$CMap@HHPAVCTable@@PAV1@@@QAEXXZ 004e1f50 f i xygame2d:xygdata.obj
 0001:000e1040       ?GetStartPosition@?$CMap@HHPAVCTable@@PAV1@@@QBEPAU__POSITION@@XZ 004e2040 f i xygame2d:xygdata.obj
 0001:000e1070       ?GetNextAssoc@?$CMap@HHPAVCTable@@PAV1@@@QBEXAAPAU__POSITION@@AAHAAPAVCTable@@@Z 004e2070 f i xygame2d:xygdata.obj
 0001:000e11f0       ?SerializeElements@@YGXAAVCArchive@@PAPAVCTable@@H@Z 004e21f0 f i xygame2d:xygdata.obj
 0001:000e1290       ?DumpElements@@YGXAAVCDumpContext@@PBQAVCTable@@H@Z 004e2290 f i xygame2d:xygdata.obj
 0001:000e12f0       ?SetAt@?$CMap@HHU_tagMATCHPLAYERINFO@@AAU1@@@QAEXHAAU_tagMATCHPLAYERINFO@@@Z 004e22f0 f i xygame2d:xygdata.obj
 0001:000e1340       ?RemoveAll@?$CMap@HHU_tagMATCHPLAYERINFO@@AAU1@@@QAEXXZ 004e2340 f i xygame2d:xygdata.obj
 0001:000e1430       ?GetStartPosition@?$CMap@HHU_tagMATCHPLAYERINFO@@AAU1@@@QBEPAU__POSITION@@XZ 004e2430 f i xygame2d:xygdata.obj
 0001:000e1460       ?GetNextAssoc@?$CMap@HHU_tagMATCHPLAYERINFO@@AAU1@@@QBEXAAPAU__POSITION@@AAHAAU_tagMATCHPLAYERINFO@@@Z 004e2460 f i xygame2d:xygdata.obj
 0001:000e15f0       ?SerializeElements@@YGXAAVCArchive@@PAU_tagMATCHPLAYERINFO@@H@Z 004e25f0 f i xygame2d:xygdata.obj
 0001:000e1690       ?DumpElements@@YGXAAVCDumpContext@@PBU_tagMATCHPLAYERINFO@@H@Z 004e2690 f i xygame2d:xygdata.obj
 0001:000e1700       ?DestructElements@@YGXPAPAVCPlayer@@H@Z 004e2700 f i xygame2d:xygdata.obj
 0001:000e1780       ?DestructElements@@YGXPAHH@Z 004e2780 f i xygame2d:xygdata.obj
 0001:000e1800       ?DestructElements@@YGXPAPAVCTable@@H@Z 004e2800 f i xygame2d:xygdata.obj
 0001:000e1880       ??A?$CMap@HHU_tagMATCHPLAYERINFO@@AAU1@@@QAEAAU_tagMATCHPLAYERINFO@@H@Z 004e2880 f i xygame2d:xygdata.obj
 0001:000e1940       ?DestructElements@@YGXPAU_tagMATCHPLAYERINFO@@H@Z 004e2940 f i xygame2d:xygdata.obj
 0001:000e19c0       ?InitHashTable@?$CMap@HHU_tagMATCHPLAYERINFO@@AAU1@@@QAEXIH@Z 004e29c0 f i xygame2d:xygdata.obj
 0001:000e1ac0       ?NewAssoc@?$CMap@HHU_tagMATCHPLAYERINFO@@AAU1@@@IAEPAUCAssoc@1@XZ 004e2ac0 f i xygame2d:xygdata.obj
 0001:000e1c00       ?GetAssocAt@?$CMap@HHU_tagMATCHPLAYERINFO@@AAU1@@@IBEPAUCAssoc@1@HAAI@Z 004e2c00 f i xygame2d:xygdata.obj
 0001:000e1ca0       ?ConstructElements@@YGXPAU_tagMATCHPLAYERINFO@@H@Z 004e2ca0 f i xygame2d:xygdata.obj
 0001:000e1d50       ?XygGetRandomBetween@@YAHH@Z 004e2d50 f   xygame2d:xygutil.obj
 0001:000e1dc0       ?XygGetRandomBetweenEx@@YAHHH@Z 004e2dc0 f   xygame2d:xygutil.obj
 0001:000e1e40       ?XygInitializeDice@@YAHAAH0H@Z 004e2e40 f   xygame2d:xygutil.obj
 0001:000e1f10       ?XygCreateRandomCards@@YAHAAV?$CArray@HH@@HH@Z 004e2f10 f   xygame2d:xygutil.obj
 0001:000e2100       ?XygCreateRandomCardsEx@@YAHAAV?$CArray@HH@@HH@Z 004e3100 f   xygame2d:xygutil.obj
 0001:000e2220       ?XygTellAllBreak@@YAHQAKH@Z 004e3220 f   xygame2d:xygutil.obj
 0001:000e22b0       ?XygCalcTimeCost@@YAHKAAH0H@Z 004e32b0 f   xygame2d:xygutil.obj
 0001:000e2340       ?XygCalcLevelOnScore@@YAHHH@Z 004e3340 f   xygame2d:xygutil.obj
 0001:000e23a0       ?XygLookupLevelName@@YAXAAV?$CMap@HHU_tagPLAYERLEVEL_EX@@U1@@@HPAD@Z 004e33a0 f   xygame2d:xygutil.obj
 0001:000e2410       ?XygGetStartCount@@YAHQAKH@Z 004e3410 f   xygame2d:xygutil.obj
 0001:000e24b0       ?XygGetOptionAllTrue@@YAHQAKHK@Z 004e34b0 f   xygame2d:xygutil.obj
 0001:000e2550       ?XygGetOptionOneTrue@@YAHQAKHK@Z 004e3550 f   xygame2d:xygutil.obj
 0001:000e25f0       ?XygGetTableEqual@@YAHQAKH@Z 004e35f0 f   xygame2d:xygutil.obj
 0001:000e2630       ?XygGetNeedDeposit@@YAHQAKH@Z 004e3630 f   xygame2d:xygutil.obj
 0001:000e2670       ?XygGetForbidDesert@@YAHQAKH@Z 004e3670 f   xygame2d:xygutil.obj
 0001:000e26b0       ?XygCalcBaseDeposit@@YAHQAHHH@Z 004e36b0 f   xygame2d:xygutil.obj
 0001:000e27a0       ?XygCalcBaseScore@@YAHQAHHHH@Z 004e37a0 f   xygame2d:xygutil.obj
 0001:000e2860       ?XygInitChairCards@@YAXQAHH@Z 004e3860 f   xygame2d:xygutil.obj
 0001:000e28b0       ?XygInitBottomCards@@YAXQAHH@Z 004e38b0 f   xygame2d:xygutil.obj
 0001:000e2900       ?XygGetCountOfCards@@YAHQAHH@Z 004e3900 f   xygame2d:xygutil.obj
 0001:000e2970       ?XygGetFirstCardID@@YAHQAHH@Z 004e3970 f   xygame2d:xygutil.obj
 0001:000e29d0       ?XygGetFirstCardIndex@@YAHQAHH@Z 004e39d0 f   xygame2d:xygutil.obj
 0001:000e2a20       ?XygCardRemains@@YAHQAHH@Z 004e3a20 f   xygame2d:xygutil.obj
 0001:000e2a80       ?XygContainCards@@YAHQAH0H@Z 004e3a80 f   xygame2d:xygutil.obj
 0001:000e2af0       ?XygRemoveCards@@YAHQAH0H@Z 004e3af0 f   xygame2d:xygutil.obj
 0001:000e2b70       ?XygJoinCards@@YAHQAH0H@Z  004e3b70 f   xygame2d:xygutil.obj
 0001:000e2bd0       ?XygMoveCards@@YAHQAH0HHH@Z 004e3bd0 f   xygame2d:xygutil.obj
 0001:000e2c60       ?XygCopyCardAry@@YAHAAV?$CArray@U_tagCARD@@U1@@@0@Z 004e3c60 f   xygame2d:xygutil.obj
 0001:000e2ce0       ?XygCardDistinct@@YAHQAHH@Z 004e3ce0 f   xygame2d:xygutil.obj
 0001:000e2d80       ?XygHaveCard@@YAHQAHHH@Z   004e3d80 f   xygame2d:xygutil.obj
 0001:000e2df0       ?XygHaveCardsIn@@YAHQAHH0H@Z 004e3df0 f   xygame2d:xygutil.obj
 0001:000e2e70       ?XygSameCards@@YAHQAHH0H@Z 004e3e70 f   xygame2d:xygutil.obj
 0001:000e2ef0       ?XygFillupQiPos@@YAHAAV?$CList@U_tagQI_POS@@AAU1@@@QAU_tagQI_POS@@H@Z 004e3ef0 f   xygame2d:xygutil.obj
 0001:000e2fa0       ?XygJoinCard@@YAHQAHHH@Z   004e3fa0 f   xygame2d:xygutil.obj
 0001:000e3000       ?xygRegMessageWnd@@YAHHPBDP6GJPAUHWND__@@IIJ@Z@Z 004e4000 f   xygame2d:xygutil.obj
 0001:000e32a0       ?xygUnregMessageWnd@@YAXHPBD@Z 004e42a0 f   xygame2d:xygutil.obj
 0001:000e3380       ?xygCreateMessageWnd@@YAPAUHWND__@@HPBD00@Z 004e4380 f   xygame2d:xygutil.obj
 0001:000e3680       ?xygPayResultLog@@YAXPADZZ 004e4680 f   xygame2d:xygutil.obj
 0001:000e38f0       ?xygIsExpressionStr@@YA_NPBD@Z 004e48f0 f   xygame2d:xygutil.obj
 0001:000e3970       ??0?$CArray@HH@@QAE@XZ     004e4970 f i xygame2d:xygutil.obj
 0001:000e39e0       ?GetSize@?$CArray@HH@@QBEHXZ 004e49e0 f i xygame2d:xygutil.obj
 0001:000e3a10       ?Add@?$CArray@HH@@QAEHH@Z  004e4a10 f i xygame2d:xygutil.obj
 0001:000e3a60       ??A?$CArray@HH@@QAEAAHH@Z  004e4a60 f i xygame2d:xygutil.obj
 0001:000e3aa0       ?InsertAt@?$CArray@HH@@QAEXHHH@Z 004e4aa0 f i xygame2d:xygutil.obj
 0001:000e3c20       ??1?$CArray@HH@@UAE@XZ     004e4c20 f i xygame2d:xygutil.obj
 0001:000e3cd0       ?Serialize@?$CArray@HH@@UAEXAAVCArchive@@@Z 004e4cd0 f i xygame2d:xygutil.obj
 0001:000e3d70       ?Dump@?$CArray@HH@@UBEXAAVCDumpContext@@@Z 004e4d70 f i xygame2d:xygutil.obj
 0001:000e3e10       ?AssertValid@?$CArray@HH@@UBEXXZ 004e4e10 f i xygame2d:xygutil.obj
 0001:000e3f40       ?GetSize@?$CArray@U_tagCARD@@U1@@@QBEHXZ 004e4f40 f i xygame2d:xygutil.obj
 0001:000e3f70       ?RemoveAll@?$CArray@U_tagCARD@@U1@@@QAEXXZ 004e4f70 f i xygame2d:xygutil.obj
 0001:000e3fb0       ?Add@?$CArray@U_tagCARD@@U1@@@QAEHU_tagCARD@@@Z 004e4fb0 f i xygame2d:xygutil.obj
 0001:000e4010       ??A?$CArray@U_tagCARD@@U1@@@QAEAAU_tagCARD@@H@Z 004e5010 f i xygame2d:xygutil.obj
 0001:000e4050       ?GetCount@?$CList@U_tagQI_POS@@AAU1@@@QBEHXZ 004e5050 f i xygame2d:xygutil.obj
 0001:000e4080       ?GetHeadPosition@?$CList@U_tagQI_POS@@AAU1@@@QBEPAU__POSITION@@XZ 004e5080 f i xygame2d:xygutil.obj
 0001:000e40b0       ?GetNext@?$CList@U_tagQI_POS@@AAU1@@@QAEAAU_tagQI_POS@@AAPAU__POSITION@@@Z 004e50b0 f i xygame2d:xygutil.obj
 0001:000e4130       ??_E?$CArray@HH@@UAEPAXI@Z 004e5130 f i xygame2d:xygutil.obj
 0001:000e4130       ??_G?$CArray@HH@@UAEPAXI@Z 004e5130 f i xygame2d:xygutil.obj
 0001:000e4180       ?SetSize@?$CArray@HH@@QAEXHH@Z 004e5180 f i xygame2d:xygutil.obj
 0001:000e44a0       ?ElementAt@?$CArray@HH@@QAEAAHH@Z 004e54a0 f i xygame2d:xygutil.obj
 0001:000e4510       ?SetAtGrow@?$CArray@HH@@QAEXHH@Z 004e5510 f i xygame2d:xygutil.obj
 0001:000e45a0       ?SetSize@?$CArray@U_tagCARD@@U1@@@QAEXHH@Z 004e55a0 f i xygame2d:xygutil.obj
 0001:000e48d0       ?ElementAt@?$CArray@U_tagCARD@@U1@@@QAEAAU_tagCARD@@H@Z 004e58d0 f i xygame2d:xygutil.obj
 0001:000e4940       ?SetAtGrow@?$CArray@U_tagCARD@@U1@@@QAEXHU_tagCARD@@@Z 004e5940 f i xygame2d:xygutil.obj
 0001:000e49e0       ?DestructElements@@YGXPAU_tagCARD@@H@Z 004e59e0 f i xygame2d:xygutil.obj
 0001:000e4a60       ?ConstructElements@@YGXPAU_tagCARD@@H@Z 004e5a60 f i xygame2d:xygutil.obj
 0001:000e4d10       ?XygInit@@YAPAUHINSTANCE__@@PBDKH@Z 004e5d10 f   xygame2d:xygmain.obj
 0001:000e4eb0       ?XygTerm@@YAXPAUHINSTANCE__@@H@Z 004e5eb0 f   xygame2d:xygmain.obj
 0001:000e4f00       ?XygInitNoRes@@YAHPBDK@Z   004e5f00 f   xygame2d:xygmain.obj
 0001:000e4f40       ?XygTermNoRes@@YAXXZ       004e5f40 f   xygame2d:xygmain.obj
 0001:000e5180       ?OnRequest@CSockClient@@MAEHPAX0@Z 004e6180 f   xygament2d:xygsockc.obj
 0001:000e5320       ?OnNotifyClient@CSockClient@@MAEHPAVREQUEST@@@Z 004e6320 f   xygament2d:xygsockc.obj
 0001:000e54d0       ?OnGameResultUnSave@CSockClient@@MAEHPAVREQUEST@@@Z 004e64d0 f   xygament2d:xygsockc.obj
 0001:000e5820       ?OnGameResultNotify@CSockClient@@MAEHPAVREQUEST@@@Z 004e6820 f   xygament2d:xygsockc.obj
 0001:000e5aa0       ?OnEnterRoomNotify@CSockClient@@MAEHPAVREQUEST@@@Z 004e6aa0 f   xygament2d:xygsockc.obj
 0001:000e5d70       ?OnResponse@CSockClient@@MAEHPAU_tagCONTEXT_HEAD@@PAVREQUEST@@1@Z 004e6d70 f   xygament2d:xygsockc.obj
 0001:000e6120       ?OnDefault@CSockClient@@MAEHPAU_tagCONTEXT_HEAD@@PAVREQUEST@@1@Z 004e7120 f   xygament2d:xygsockc.obj
 0001:000e6220       ?OnEnterGameExtOK@CSockClient@@MAEHPAU_tagCONTEXT_HEAD@@PAVREQUEST@@1@Z 004e7220 f   xygament2d:xygsockc.obj
 0001:000e6290       ?OnEnterGameOK@CSockClient@@MAEHPAU_tagCONTEXT_HEAD@@PAVREQUEST@@1@Z 004e7290 f   xygament2d:xygsockc.obj
 0001:000e6300       ?OnDeleteFilterWord@CSockClient@@MAEHPAVREQUEST@@@Z 004e7300 f   xygament2d:xygsockc.obj
 0001:000e63b0       ?OnAddFilterWord@CSockClient@@MAEHPAVREQUEST@@@Z 004e73b0 f   xygament2d:xygsockc.obj
 0001:000e6480       ?OnForbidChat@CSockClient@@MAEHPAVREQUEST@@@Z 004e7480 f   xygament2d:xygsockc.obj
 0001:000e64e0       ?OnPayResult@CSockClient@@MAEHPAVREQUEST@@@Z 004e74e0 f   xygament2d:xygsockc.obj
 0001:000e6540       ?OnUserCurrencyExchange@CSockClient@@MAEHPAVREQUEST@@@Z 004e7540 f   xygament2d:xygsockc.obj
 0001:000e65a0       ?RemoveKey@?$CMap@HHU_tagFILTER_WORD_EX@@AAU1@@@QAEHH@Z 004e75a0 f i xygament2d:xygsockc.obj
 0001:000e6660       ?FreeAssoc@?$CMap@HHU_tagFILTER_WORD_EX@@AAU1@@@IAEXPAUCAssoc@1@@Z 004e7660 f i xygament2d:xygsockc.obj
 0001:000e6910       ?SetAt@?$CMap@HHU_tagFILTER_WORD_EX@@AAU1@@@QAEXHAAU_tagFILTER_WORD_EX@@@Z 004e7910 f i xygament2d:xygsockc.obj
 0001:000e6960       ?RemoveAll@?$CMap@HHU_tagFILTER_WORD_EX@@AAU1@@@QAEXXZ 004e7960 f i xygament2d:xygsockc.obj
 0001:000e6a50       ??A?$CMap@HHU_tagFILTER_WORD_EX@@AAU1@@@QAEAAU_tagFILTER_WORD_EX@@H@Z 004e7a50 f i xygament2d:xygsockc.obj
 0001:000e6b10       ?DestructElements@@YGXPAU_tagFILTER_WORD_EX@@H@Z 004e7b10 f i xygament2d:xygsockc.obj
 0001:000e6b90       ?InitHashTable@?$CMap@HHU_tagFILTER_WORD_EX@@AAU1@@@QAEXIH@Z 004e7b90 f i xygament2d:xygsockc.obj
 0001:000e6c90       ?NewAssoc@?$CMap@HHU_tagFILTER_WORD_EX@@AAU1@@@IAEPAUCAssoc@1@XZ 004e7c90 f i xygament2d:xygsockc.obj
 0001:000e6dd0       ?GetAssocAt@?$CMap@HHU_tagFILTER_WORD_EX@@AAU1@@@IBEPAUCAssoc@1@HAAI@Z 004e7dd0 f i xygament2d:xygsockc.obj
 0001:000e6e70       ?ConstructElements@@YGXPAU_tagFILTER_WORD_EX@@H@Z 004e7e70 f i xygament2d:xygsockc.obj
 0001:000e6f20       ?xygMakeHardID2Code@@YAHPBDHAAK@Z 004e7f20 f   xygament2d:xygsvr.obj
 0001:000e6f70       ??0CBaseServer@@QAE@PBD00HHKK@Z 004e7f70 f   xygament2d:xygsvr.obj
 0001:000e7540       ??_ECBaseServer@@UAEPAXI@Z 004e8540 f i xygament2d:xygsvr.obj
 0001:000e7540       ??_GCBaseServer@@UAEPAXI@Z 004e8540 f i xygament2d:xygsvr.obj
 0001:000e75a0       ??1CBaseServer@@UAE@XZ     004e85a0 f   xygament2d:xygsvr.obj
 0001:000e7880       ?Initialize@CBaseServer@@UAEHXZ 004e8880 f   xygament2d:xygsvr.obj
 0001:000e8720       ?Shutdown@CBaseServer@@UAEXXZ 004e9720 f   xygament2d:xygsvr.obj
 0001:000e8c10       ?OnDefaultResponse@CBaseServer@@UAEHPAU_tagCONTEXT_HEAD@@PAVREQUEST@@1@Z 004e9c10 f   xygament2d:xygsvr.obj
 0001:000e8c80       ?OnForbidChat@CBaseServer@@UAEHPAVREQUEST@@@Z 004e9c80 f   xygament2d:xygsvr.obj
 0001:000e8e10       ?TransmitRequest@CBaseServer@@UAEHPAU_tagCONTEXT_HEAD@@PAVREQUEST@@@Z 004e9e10 f   xygament2d:xygsvr.obj
 0001:000e8fe0       ?SendReqToCheckSvr@CBaseServer@@UAEHIHPAX@Z 004e9fe0 f   xygament2d:xygsvr.obj
 0001:000e90f0       ?SimulateReqFromCheckSvr@CBaseServer@@UAEHIHPAXH@Z 004ea0f0 f   xygament2d:xygsvr.obj
 0001:000e9270       ?TransmitEnterMatch@CBaseServer@@UAEHPAU_tagCONTEXT_HEAD@@PAU_tagENTER_MATCH@@@Z 004ea270 f   xygament2d:xygsvr.obj
 0001:000e93d0       ?TransmitEnterGame@CBaseServer@@UAEHPAU_tagCONTEXT_HEAD@@PAU_tagENTER_GAME_EX@@@Z 004ea3d0 f   xygament2d:xygsvr.obj
 0001:000e94c0       ?SubmitRequest@CBaseServer@@UAEHPAU_tagCONTEXT_HEAD@@PAVREQUEST@@@Z 004ea4c0 f   xygament2d:xygsvr.obj
 0001:000e9690       ?SendReqToRoomSvr@CBaseServer@@UAEHIHPAXH@Z 004ea690 f   xygament2d:xygsvr.obj
 0001:000e97a0       ?SimulateReqFromRoomSvr@CBaseServer@@UAEHIHPAXH@Z 004ea7a0 f   xygament2d:xygsvr.obj
 0001:000e9920       ?LogDepositError@@YAXPAU_tagREFRESH_RESULT_EX@@PAU_tagGAME_RESULT_EX@@@Z 004ea920 f   xygament2d:xygsvr.obj
 0001:000e9b50       ?TransmitGameResult@CBaseServer@@UAEHPAU_tagCONTEXT_HEAD@@PAU_tagREFRESH_RESULT_EX@@PAU_tagGAME_RESULT_EX@@H@Z 004eab50 f   xygament2d:xygsvr.obj
 0001:000e9d70       ?TransmitGameResultEx@CBaseServer@@UAEHPAVCTable@@PAU_tagCONTEXT_HEAD@@PAU_tagREFRESH_RESULT_EX@@PAU_tagGAME_RESULT_EX@@H@Z 004ead70 f   xygament2d:xygsvr.obj
 0001:000ea050       ?TransmitTakeBonus@CBaseServer@@UAEHPAU_tagCONTEXT_HEAD@@PAU_tagTAKE_DEPOSIT_BONUS@@@Z 004eb050 f   xygament2d:xygsvr.obj
 0001:000ea130       ?SendPulseData@CBaseServer@@UAEXXZ 004eb130 f   xygament2d:xygsvr.obj
 0001:000ea270       ?SendPulseDataToRoom@CBaseServer@@UAEXXZ 004eb270 f   xygament2d:xygsvr.obj
 0001:000ea3b0       ?SendGameSvrPulse@CBaseServer@@UAEXXZ 004eb3b0 f   xygament2d:xygsvr.obj
 0001:000ea4f0       ?OnSendGameSvrPulse@CBaseServer@@UAEXXZ 004eb4f0 f   xygament2d:xygsvr.obj
 0001:000ea680       ?SendThreadFunc@CBaseServer@@KGIPAX@Z 004eb680 f   xygament2d:xygsvr.obj
 0001:000ea6d0       ?SendThreadProc@CBaseServer@@MAEIXZ 004eb6d0 f   xygament2d:xygsvr.obj
 0001:000ea970       ?ConnectThreadFunc@CBaseServer@@KGIPAX@Z 004eb970 f   xygament2d:xygsvr.obj
 0001:000ea9c0       ?ConnectThreadProc@CBaseServer@@MAEIXZ 004eb9c0 f   xygament2d:xygsvr.obj
 0001:000ead40       ?TimerThreadFunc@CBaseServer@@KGIPAX@Z 004ebd40 f   xygament2d:xygsvr.obj
 0001:000ead90       ?TimerThreadProc@CBaseServer@@MAEIXZ 004ebd90 f   xygament2d:xygsvr.obj
 0001:000eaf80       ?TimerExThreadFunc@CBaseServer@@KGIPAX@Z 004ebf80 f   xygament2d:xygsvr.obj
 0001:000eafd0       ?TimerExThreadProc@CBaseServer@@MAEIXZ 004ebfd0 f   xygament2d:xygsvr.obj
 0001:000eb1d0       ?BroadcastThreadFunc@CBaseServer@@KGIPAX@Z 004ec1d0 f   xygament2d:xygsvr.obj
 0001:000eb220       ?BroadcastThreadProc@CBaseServer@@MAEIXZ 004ec220 f   xygament2d:xygsvr.obj
 0001:000eb4d0       ?OnTimerTriggered@CBaseServer@@MAEHKAAH00@Z 004ec4d0 f   xygament2d:xygsvr.obj
 0001:000eb550       ?IsTimingOK@CBaseServer@@MAEHKAAH00@Z 004ec550 f   xygament2d:xygsvr.obj
 0001:000eb6a0       ?DoTimingWork@CBaseServer@@MAEHXZ 004ec6a0 f   xygament2d:xygsvr.obj
 0001:000eb9d0       ?GetFreeMemory@@YAHXZ      004ec9d0 f   xygament2d:xygsvr.obj
 0001:000eba20       ?GetExeMemoryByFileName@@YAHPBD@Z 004eca20 f   xygament2d:xygsvr.obj
 0001:000ebc40       ?GetFileNameExt@@YAXPBDPAD@Z 004ecc40 f   xygament2d:xygsvr.obj
 0001:000ebd10       ?GetExeMemory@@YAHXZ       004ecd10 f   xygament2d:xygsvr.obj
 0001:000ebda0       ?GetProcessCpuUsage@@YAKPBD@Z 004ecda0 f   xygament2d:xygsvr.obj
 0001:000ec150       ?GetExeProcessCpuUsage@@YAHXZ 004ed150 f   xygament2d:xygsvr.obj
 0001:000ec210       ?OnHourTriggered@CBaseServer@@MAEXAAH@Z 004ed210 f   xygament2d:xygsvr.obj
 0001:000ec310       ?MessageThreadFunc@CBaseServer@@KGIPAX@Z 004ed310 f   xygament2d:xygsvr.obj
 0001:000ec360       ?MessageThreadProc@CBaseServer@@MAEIXZ 004ed360 f   xygament2d:xygsvr.obj
 0001:000ece60       ?OnReconnectSvr@CBaseServer@@MAEHH@Z 004ede60 f   xygament2d:xygsvr.obj
 0001:000ecf00       ?OnGetFinished@CBaseServer@@MAEHHHHH@Z 004edf00 f   xygament2d:xygsvr.obj
 0001:000ed1d0       ?OnKickOffPlayer@CBaseServer@@MAEHHHHH@Z 004ee1d0 f   xygament2d:xygsvr.obj
 0001:000ed470       ?OnHardCode@CBaseServer@@MAEHHK@Z 004ee470 f   xygament2d:xygsvr.obj
 0001:000ed4d0       ?OnRoomTokenID@CBaseServer@@MAEHHH@Z 004ee4d0 f   xygament2d:xygsvr.obj
 0001:000ed550       ?OnExperience@CBaseServer@@MAEHHH@Z 004ee550 f   xygament2d:xygsvr.obj
 0001:000ed5b0       ?OnRoomSvrHWnd@CBaseServer@@MAEHHPAUHWND__@@@Z 004ee5b0 f   xygament2d:xygsvr.obj
 0001:000ed610       ?OnRoomOption@CBaseServer@@MAEHHK@Z 004ee610 f   xygament2d:xygsvr.obj
 0001:000ed670       ?OnRoomConfig@CBaseServer@@MAEHHK@Z 004ee670 f   xygament2d:xygsvr.obj
 0001:000ed6d0       ?OnRoomManage@CBaseServer@@MAEHHK@Z 004ee6d0 f   xygament2d:xygsvr.obj
 0001:000ed730       ?OnGameOption@CBaseServer@@MAEHHK@Z 004ee730 f   xygament2d:xygsvr.obj
 0001:000ed790       ?OnGameParam@CBaseServer@@MAEHHK@Z 004ee790 f   xygament2d:xygsvr.obj
 0001:000ed7f0       ?OnGameData@CBaseServer@@MAEHHK@Z 004ee7f0 f   xygament2d:xygsvr.obj
 0001:000ed850       ?OnMinPlayScore@CBaseServer@@MAEHHH@Z 004ee850 f   xygament2d:xygsvr.obj
 0001:000ed8b0       ?OnMaxPlayScore@CBaseServer@@MAEHHH@Z 004ee8b0 f   xygament2d:xygsvr.obj
 0001:000ed910       ?OnClearTable@CBaseServer@@MAEHHH@Z 004ee910 f   xygament2d:xygsvr.obj
 0001:000edb30       ?OnRoomTableChair@CBaseServer@@MAEHKH@Z 004eeb30 f   xygament2d:xygsvr.obj
 0001:000edb90       ?OnLeaveRoom@CBaseServer@@MAEHHH@Z 004eeb90 f   xygament2d:xygsvr.obj
 0001:000ede10       ?ValidateClientInfo@CBaseServer@@MAEHH@Z 004eee10 f   xygament2d:xygsvr.obj
 0001:000ee050       ?GetPlayerLevelInfo@CBaseServer@@MAEHXZ 004ef050 f   xygament2d:xygsvr.obj
 0001:000ee250       ?GetFilterWord@CBaseServer@@MAEHXZ 004ef250 f   xygament2d:xygsvr.obj
 0001:000ee4b0       ?GetForbidChatData@CBaseServer@@MAEHXZ 004ef4b0 f   xygament2d:xygsvr.obj
 0001:000ee770       ?RemoveClients@CBaseServer@@MAEHPAVCTable@@JHH@Z 004ef770 f   xygament2d:xygsvr.obj
 0001:000ee890       ?RemoveOneClients@CBaseServer@@MAEHPAVCTable@@HH@Z 004ef890 f   xygament2d:xygsvr.obj
 0001:000ee990       ?GetRoom@CBaseServer@@MAEPAVCRoom@@H@Z 004ef990 f   xygament2d:xygsvr.obj
 0001:000eea90       ?GetHardCode@CBaseServer@@MAEKH@Z 004efa90 f   xygament2d:xygsvr.obj
 0001:000eeb80       ?GetRoomTokenID@CBaseServer@@MAEHH@Z 004efb80 f   xygament2d:xygsvr.obj
 0001:000eec70       ?GetExperience@CBaseServer@@MAEHH@Z 004efc70 f   xygament2d:xygsvr.obj
 0001:000eed60       ?GetRoomSvrWnd@CBaseServer@@MAEPAUHWND__@@H@Z 004efd60 f   xygament2d:xygsvr.obj
 0001:000eee30       ?GetRoomOption@CBaseServer@@MAEKH@Z 004efe30 f   xygament2d:xygsvr.obj
 0001:000eef00       ?GetRoomConfig@CBaseServer@@MAEKH@Z 004eff00 f   xygament2d:xygsvr.obj
 0001:000eefd0       ?GetRoomManage@CBaseServer@@MAEKH@Z 004effd0 f   xygament2d:xygsvr.obj
 0001:000ef0a0       ?GetGameOption@CBaseServer@@MAEKH@Z 004f00a0 f   xygament2d:xygsvr.obj
 0001:000ef170       ?GetGameParam@CBaseServer@@MAEKH@Z 004f0170 f   xygament2d:xygsvr.obj
 0001:000ef240       ?GetGameData@CBaseServer@@MAEKH@Z 004f0240 f   xygament2d:xygsvr.obj
 0001:000ef310       ?GetMinPlayScore@CBaseServer@@MAEHH@Z 004f0310 f   xygament2d:xygsvr.obj
 0001:000ef3e0       ?GetMaxPlayScore@CBaseServer@@MAEHH@Z 004f03e0 f   xygament2d:xygsvr.obj
 0001:000ef4b0       ?GetUserID@CBaseServer@@MAEHK@Z 004f04b0 f   xygament2d:xygsvr.obj
 0001:000ef580       ?SetHardCode@CBaseServer@@MAEXHK@Z 004f0580 f   xygament2d:xygsvr.obj
 0001:000ef770       ?SetRoomTokenID@CBaseServer@@MAEXHH@Z 004f0770 f   xygament2d:xygsvr.obj
 0001:000ef960       ?SetExperience@CBaseServer@@MAEXHH@Z 004f0960 f   xygament2d:xygsvr.obj
 0001:000efa50       ?SetRoomSvrWnd@CBaseServer@@MAEXHPAUHWND__@@@Z 004f0a50 f   xygament2d:xygsvr.obj
 0001:000efb20       ?SetRoomOption@CBaseServer@@MAEXHK@Z 004f0b20 f   xygament2d:xygsvr.obj
 0001:000efbf0       ?SetRoomConfig@CBaseServer@@MAEXHK@Z 004f0bf0 f   xygament2d:xygsvr.obj
 0001:000efcc0       ?SetRoomManage@CBaseServer@@MAEXHK@Z 004f0cc0 f   xygament2d:xygsvr.obj
 0001:000efd90       ?SetGameOption@CBaseServer@@MAEXHK@Z 004f0d90 f   xygament2d:xygsvr.obj
 0001:000efe60       ?SetGameParam@CBaseServer@@MAEXHK@Z 004f0e60 f   xygament2d:xygsvr.obj
 0001:000eff30       ?SetGameData@CBaseServer@@MAEXHK@Z 004f0f30 f   xygament2d:xygsvr.obj
 0001:000f0000       ?SetMinPlayScore@CBaseServer@@MAEXHH@Z 004f1000 f   xygament2d:xygsvr.obj
 0001:000f00d0       ?SetMaxPlayScore@CBaseServer@@MAEXHH@Z 004f10d0 f   xygament2d:xygsvr.obj
 0001:000f01a0       ?CheckUserClient@CBaseServer@@MAEHHPAU_tagCONTEXT_HEAD@@@Z 004f11a0 f   xygament2d:xygsvr.obj
 0001:000f0280       ?SetUserID@CBaseServer@@MAEXKH@Z 004f1280 f   xygament2d:xygsvr.obj
 0001:000f0370       ?RemoveRoomTableChairs@CBaseServer@@MAEXHHH@Z 004f1370 f   xygament2d:xygsvr.obj
 0001:000f0430       ?RemoveRoomTable@CBaseServer@@MAEXHH@Z 004f1430 f   xygament2d:xygsvr.obj
 0001:000f04f0       ?SetEnterParams@CBaseServer@@MAEXHHHHIJ@Z 004f14f0 f   xygament2d:xygsvr.obj
 0001:000f0670       ?SetEnterParams@CBaseServer@@MAEXHHHHHHIJ@Z 004f1670 f   xygament2d:xygsvr.obj
 0001:000f0a60       ?SetEnterParams@CBaseServer@@MAEXPAVCRoom@@HHH@Z 004f1a60 f   xygament2d:xygsvr.obj
 0001:000f0bd0       ?SetUserDataParam@CBaseServer@@MAEXHHHH@Z 004f1bd0 f   xygament2d:xygsvr.obj
 0001:000f0ce0       ?SetVistorParams@CBaseServer@@MAEXPAVCRoom@@HIJH@Z 004f1ce0 f   xygament2d:xygsvr.obj
 0001:000f0d10       ?ClearStaleUserData@CBaseServer@@MAEHK@Z 004f1d10 f   xygament2d:xygsvr.obj
 0001:000f0f10       ?OpeAfterCheckResult@CBaseServer@@MAEXPAVCTable@@PAXHHH@Z 004f1f10 f   xygament2d:xygsvr.obj
 0001:000f0f40       ?SendToRoomThreadFunc@CBaseServer@@KGIPAX@Z 004f1f40 f   xygament2d:xygsvr.obj
 0001:000f0f90       ?SendToRoomThreadProc@CBaseServer@@MAEIXZ 004f1f90 f   xygament2d:xygsvr.obj
 0001:000f1230       ?ConnectRoomThreadFunc@CBaseServer@@KGIPAX@Z 004f2230 f   xygament2d:xygsvr.obj
 0001:000f1280       ?ConnectRoomThreadProc@CBaseServer@@MAEIXZ 004f2280 f   xygament2d:xygsvr.obj
 0001:000f1640       ?OnRequest@CBaseServer@@MAEHPAX0@Z 004f2640 f   xygament2d:xygsvr.obj
 0001:000f1d00       ?OnReconnectSvr@CBaseServer@@MAEHPAU_tagCONTEXT_HEAD@@PAVREQUEST@@PAVCWorkerContext@@@Z 004f2d00 f   xygament2d:xygsvr.obj
 0001:000f1f00       ?EjectLeaveGame@CBaseServer@@UAEHHHHHIJ@Z 004f2f00 f   xygament2d:xygsvr.obj
 0001:000f1f30       ?EjectLeaveGameEx@CBaseServer@@UAEHHHHHIJ@Z 004f2f30 f   xygament2d:xygsvr.obj
 0001:000f1f60       ?EjectStartGame@CBaseServer@@UAEHHHHHIJ@Z 004f2f60 f   xygament2d:xygsvr.obj
 0001:000f1f90       ?OnGameEntered@CBaseServer@@UAEHPAVCTable@@HHHHIJ@Z 004f2f90 f   xygament2d:xygsvr.obj
 0001:000f20f0       ?OnGameLeft@CBaseServer@@UAEHHH@Z 004f30f0 f   xygament2d:xygsvr.obj
 0001:000f2170       ?OnGameLeft@CBaseServer@@UAEHHHHH@Z 004f3170 f   xygament2d:xygsvr.obj
 0001:000f2200       ?PostSoloUserBoutEnd@CBaseServer@@MAEHHH@Z 004f3200 f   xygament2d:xygsvr.obj
 0001:000f2280       ?RegistOnRoomSvr@CBaseServer@@UAEHXZ 004f3280 f   xygament2d:xygsvr.obj
 0001:000f23f0       ?RegistUserOnRoomSvr@CBaseServer@@UAEHHH@Z 004f33f0 f   xygament2d:xygsvr.obj
 0001:000f2520       ?MatchPlayerLeave@CBaseServer@@UAEHHHH@Z 004f3520 f   xygament2d:xygsvr.obj
 0001:000f27a0       ?ClearPlayerInfo@CBaseServer@@MAEHHHH@Z 004f37a0 f   xygament2d:xygsvr.obj
 0001:000f2a30       ?FreshUserDataFromMatchResult@CBaseServer@@MAEXPAVCRoom@@PAU_tagUSER_DIFF@@@Z 004f3a30 f   xygament2d:xygsvr.obj
 0001:000f2bf0       ?CreateMatchTable@CBaseServer@@UAEHPAU_tagARRANGE_TABLE@@@Z 004f3bf0 f   xygament2d:xygsvr.obj
 0001:000f31a0       ?OnGameStart@CBaseServer@@MAEHPAU_tagGAME_START@@@Z 004f41a0 f   xygament2d:xygsvr.obj
 0001:000f31d0       ?NotifyOverTime@CBaseServer@@UAEXPAU_tagMATCH_OVERTIME@@@Z 004f41d0 f   xygament2d:xygsvr.obj
 0001:000f3200       ?NotifyPlayerList@CBaseServer@@UAEXPAU_tagMATCH_RECOVER@@@Z 004f4200 f   xygament2d:xygsvr.obj
 0001:000f3460       ?NotifyUserStatus@CBaseServer@@UAEXPAU_tagMATCH_USER_STATUS@@@Z 004f4460 f   xygament2d:xygsvr.obj
 0001:000f34d0       ?NotifyMatchFinish@CBaseServer@@UAEXPAU_tagMATCH_ASKGAIN@@H@Z 004f44d0 f   xygament2d:xygsvr.obj
 0001:000f3600       ?NotifyMatchGain@CBaseServer@@UAEXPAU_tagMATCH_USERGAIN@@H@Z 004f4600 f   xygament2d:xygsvr.obj
 0001:000f3760       ?CreateArrangeTableInfo@CBaseServer@@UAEPAEPAVCRoom@@PAVCTable@@AAH@Z 004f4760 f   xygament2d:xygsvr.obj
 0001:000f38c0       ?NotifyMatchRankList@CBaseServer@@UAEXPAU_tagMATCH_RANK_LIST@@@Z 004f48c0 f   xygament2d:xygsvr.obj
 0001:000f3970       ?NotifyUserWaitFinal@CBaseServer@@UAEXPAU_tagMATCH_WAIT_FINAL@@@Z 004f4970 f   xygament2d:xygsvr.obj
 0001:000f39d0       ?NotifyRoom@CBaseServer@@UAEHHIPAXHH@Z 004f49d0 f   xygament2d:xygsvr.obj
 0001:000f3b10       ?OnPlayerWaitArrage@CBaseServer@@UAEHPAU_tagCONTEXT_HEAD@@PAU_tagMATCH_PLAYER@@PAU_tagMATCH_HINT@@@Z 004f4b10 f   xygament2d:xygsvr.obj
 0001:000f3db0       ?OnPlayerDXXW@CBaseServer@@UAEHPAU_tagCONTEXT_HEAD@@PAU_tagMATCH_PLAYER@@PAU_tagMATCH_HINT@@H@Z 004f4db0 f   xygament2d:xygsvr.obj
 0001:000f4730       ?OnEnterMatchDXXW@CBaseServer@@UAEHPAU_tagCONTEXT_HEAD@@PAVCTable@@PAVCPlayer@@@Z 004f5730 f   xygament2d:xygsvr.obj
 0001:000f4760       ?OnPlayerEnterMatch@CBaseServer@@UAEHPAU_tagCONTEXT_HEAD@@PAU_tagMATCH_PLAYER@@PAU_tagMATCH_HINT@@@Z 004f5760 f   xygament2d:xygsvr.obj
 0001:000f4d90       ?OnPlayerEnterGameExt@CBaseServer@@UAEHPAU_tagCONTEXT_HEAD@@PAXPAVREQUEST@@@Z 004f5d90 f   xygament2d:xygsvr.obj
 0001:000f4dc0       ?OnPlayerEnterGame@CBaseServer@@UAEHPAU_tagCONTEXT_HEAD@@PAU_tagENTER_GAME_OK_EX@@PAVREQUEST@@@Z 004f5dc0 f   xygament2d:xygsvr.obj
 0001:000f4df0       ?CalcEnterUserDatelen@CBaseServer@@UAEHPAVCRoom@@PAVCTable@@PAVCPlayer@@@Z 004f5df0 f   xygament2d:xygsvr.obj
 0001:000f4e80       ?CopyEnterUserData@CBaseServer@@UAEXPAVCRoom@@PAVCTable@@PAVCPlayer@@PAEH@Z 004f5e80 f   xygament2d:xygsvr.obj
 0001:000f50f0       ?OnPlayerEnterSpecialGame@CBaseServer@@UAEHPAU_tagCONTEXT_HEAD@@PAXPAVREQUEST@@@Z 004f60f0 f   xygament2d:xygsvr.obj
 0001:000f5120       ?NotifyOneUserStartSoloTable@CBaseServer@@UAEXHIJPAXH@Z 004f6120 f   xygament2d:xygsvr.obj
 0001:000f5180       ?NotifyPlayersSomeoneEnter@CBaseServer@@UAEXPAVCTable@@PAU_tagSOLO_PLAYER@@J@Z 004f6180 f   xygament2d:xygsvr.obj
 0001:000f51e0       ?NotifyVistorsSomeoneEnter@CBaseServer@@UAEXPAVCTable@@PAU_tagSOLO_PLAYER@@J@Z 004f61e0 f   xygament2d:xygsvr.obj
 0001:000f5240       ?NotifyOneUserErrorInfo@CBaseServer@@UAEXPAU_tagCONTEXT_HEAD@@PBD@Z 004f6240 f   xygament2d:xygsvr.obj
 0001:000f5340       ?NotifyUser@CBaseServer@@UAEHPAVCRoom@@HIPAXHH@Z 004f6340 f   xygament2d:xygsvr.obj
 0001:000f5370       ?NotifyUser@CBaseServer@@UAEHHHIPAXHH@Z 004f6370 f   xygament2d:xygsvr.obj
 0001:000f53a0       ?SimulateReqFromUser@CBaseServer@@UAEHIJIHPAX@Z 004f63a0 f   xygament2d:xygsvr.obj
 0001:000f5500       ?SimulateDelayReqFromUser@CBaseServer@@UAEHIJIHPAXK@Z 004f6500 f   xygament2d:xygsvr.obj
 0001:000f5620       ?PlayerEnterMatchTable@CBaseServer@@UAEHHHHHHH@Z 004f6620 f   xygament2d:xygsvr.obj
 0001:000f59a0       ?NotifyMatchStart@CBaseServer@@UAEXPAU_tagMATCH_START@@@Z 004f69a0 f   xygament2d:xygsvr.obj
 0001:000f5af0       ?NotifyMatchClear@CBaseServer@@UAEXH@Z 004f6af0 f   xygament2d:xygsvr.obj
 0001:000f5df0       ?NotifyKickOffPlayer@CBaseServer@@UAEXPAU_tagMATCH_KICKPLAYER@@@Z 004f6df0 f   xygament2d:xygsvr.obj
 0001:000f5fe0       ?NotifyTerminateTable@CBaseServer@@UAEXPAU_tagTERMINATE_TABLE@@@Z 004f6fe0 f   xygament2d:xygsvr.obj
 0001:000f6140       ?NotifyMatchCanceled@CBaseServer@@UAEXPAU_tagMATCH_CANCELED@@@Z 004f7140 f   xygament2d:xygsvr.obj
 0001:000f61a0       ?NotifyMatchSignUped@CBaseServer@@UAEXPAU_tagMATCH_SIGNUPED@@@Z 004f71a0 f   xygament2d:xygsvr.obj
 0001:000f6200       ?NotifyMatchSignUpOK@CBaseServer@@UAEXPAU_tagMATCH_SIGNUPOK@@@Z 004f7200 f   xygament2d:xygsvr.obj
 0001:000f62c0       ?NotifyMatchGiveUpOK@CBaseServer@@UAEXPAU_tagMATCH_SIGNUPOK@@@Z 004f72c0 f   xygament2d:xygsvr.obj
 0001:000f6370       ?OnNewTable@CBaseServer@@UAEPAVCTable@@HHH@Z 004f7370 f   xygament2d:xygsvr.obj
 0001:000f6430       ?OnNewPlayer@CBaseServer@@UAEPAVCPlayer@@PBDHHHH@Z 004f7430 f   xygament2d:xygsvr.obj
 0001:000f64f0       ?MatchTriggerThreadProc@CBaseServer@@UAEIXZ 004f74f0 f   xygament2d:xygsvr.obj
 0001:000f6590       ?MatchTriggerThreadFunc@CBaseServer@@SGIPAX@Z 004f7590 f   xygament2d:xygsvr.obj
 0001:000f65e0       ?CheckRoomStatus@CBaseServer@@UAEXXZ 004f75e0 f   xygament2d:xygsvr.obj
 0001:000f66f0       ?CheckTableStatus@CBaseServer@@UAEXPAVCRoom@@@Z 004f76f0 f   xygament2d:xygsvr.obj
 0001:000f6950       ?CreateSimulateRequst@CBaseServer@@UAEXKIHPAXIJ@Z 004f7950 f   xygament2d:xygsvr.obj
 0001:000f6ac0       ?FreshSimulateRequest@CBaseServer@@UAEXK@Z 004f7ac0 f   xygament2d:xygsvr.obj
 0001:000f6c30       ?ClearSimulateRequest@CBaseServer@@UAEXXZ 004f7c30 f   xygament2d:xygsvr.obj
 0001:000f6cc0       ?OnPlayerOffline@CBaseServer@@MAEXPAVCTable@@H@Z 004f7cc0 f   xygament2d:xygsvr.obj
 0001:000f6cf0       ?OnUserStart@CBaseServer@@MAEHPAVCTable@@H@Z 004f7cf0 f   xygament2d:xygsvr.obj
 0001:000f6fa0       ?OnGameStarted@CBaseServer@@MAEHPAVCTable@@K@Z 004f7fa0 f   xygament2d:xygsvr.obj
 0001:000f6fd0       ?OnConnectSocket@CBaseServer@@UAEHPAU_tagCONTEXT_HEAD@@PAVREQUEST@@PAVCWorkerContext@@@Z 004f7fd0 f   xygament2d:xygsvr.obj
 0001:000f70a0       ?RemoveTokenInfo@CBaseServer@@UAEXH@Z 004f80a0 f   xygament2d:xygsvr.obj
 0001:000f7130       ?RemoveTokenData@CBaseServer@@UAEHJAAH00@Z 004f8130 f   xygament2d:xygsvr.obj
 0001:000f71a0       ?SetTokenUser@CBaseServer@@UAEHJHH@Z 004f81a0 f   xygament2d:xygsvr.obj
 0001:000f7290       ?OnPlayerInvalid@CBaseServer@@UAEHPAU_tagCONTEXT_HEAD@@PAVREQUEST@@1@Z 004f8290 f   xygament2d:xygsvr.obj
 0001:000f73e0       ?OnMatchSignUp@CBaseServer@@MAEHPAU_tagCONTEXT_HEAD@@PAU_tagMATCH_ASKSIGNUP@@@Z 004f83e0 f   xygament2d:xygsvr.obj
 0001:000f7580       ?OnMatchGiveUp@CBaseServer@@MAEHPAU_tagCONTEXT_HEAD@@PAU_tagMATCH_ASKSIGNUP@@@Z 004f8580 f   xygament2d:xygsvr.obj
 0001:000f7720       ?OnMatchGetUserDetail@CBaseServer@@MAEHPAU_tagCONTEXT_HEAD@@PAVREQUEST@@PAVCWorkerContext@@@Z 004f8720 f   xygament2d:xygsvr.obj
 0001:000f7a80       ?OnGameUnableContinue@CBaseServer@@UAEHPAVCTable@@PBD@Z 004f8a80 f   xygament2d:xygsvr.obj
 0001:000f7ab0       ?OnMatchUnableContinue@CBaseServer@@UAEHPAVCTable@@PBD@Z 004f8ab0 f   xygament2d:xygsvr.obj
 0001:000f7ae0       ?PostVerifyStart@CBaseServer@@UAEXHHHH@Z 004f8ae0 f   xygament2d:xygsvr.obj
 0001:000f7b80       ?PostAskNewTable@CBaseServer@@UAEXHHHH@Z 004f8b80 f   xygament2d:xygsvr.obj
 0001:000f7c20       ?PostSoloGameStart@CBaseServer@@UAEHHH@Z 004f8c20 f   xygament2d:xygsvr.obj
 0001:000f7cb0       ?PostSoloGameWin@CBaseServer@@UAEHHH@Z 004f8cb0 f   xygament2d:xygsvr.obj
 0001:000f7d40       ?PostGameStart@CBaseServer@@UAEXHH@Z 004f8d40 f   xygament2d:xygsvr.obj
 0001:000f7dd0       ?PostGameBoutEnd@CBaseServer@@UAEXHHPAVCTable@@@Z 004f8dd0 f   xygament2d:xygsvr.obj
 0001:000f7f20       ?PostUserPlayingStatus@CBaseServer@@UAEXHH_N@Z 004f8f20 f   xygament2d:xygsvr.obj
 0001:000f7ff0       ?PostCloseSoloTable@CBaseServer@@UAEHHH@Z 004f8ff0 f   xygament2d:xygsvr.obj
 0001:000f8080       ?PostChangeTable@CBaseServer@@UAEXHHHH@Z 004f9080 f   xygament2d:xygsvr.obj
 0001:000f8120       ?PostChangeChair@CBaseServer@@UAEXHHHH@Z 004f9120 f   xygament2d:xygsvr.obj
 0001:000f81c0       ?PostWelfareDeposit@CBaseServer@@UAEXHHH@Z 004f91c0 f   xygament2d:xygsvr.obj
 0001:000f8270       ?PostAddDeposit@CBaseServer@@UAEXHHH@Z 004f9270 f   xygament2d:xygsvr.obj
 0001:000f8320       ?PostMinusDeposit@CBaseServer@@UAEXHHH@Z 004f9320 f   xygament2d:xygsvr.obj
 0001:000f83d0       ?PostAddScore@CBaseServer@@UAEXHHH@Z 004f93d0 f   xygament2d:xygsvr.obj
 0001:000f8480       ?PostMinusScore@CBaseServer@@UAEXHHH@Z 004f9480 f   xygament2d:xygsvr.obj
 0001:000f8530       ?IsSoloRoom@CBaseServer@@UAEHH@Z 004f9530 f   xygament2d:xygsvr.obj
 0001:000f8590       ?IsRandomRoom@CBaseServer@@UAEHH@Z 004f9590 f   xygament2d:xygsvr.obj
 0001:000f85f0       ?IsWaitCheckResult@CBaseServer@@UAEHH@Z 004f95f0 f   xygament2d:xygsvr.obj
 0001:000f8660       ?IsLeaveAlone@CBaseServer@@UAEHH@Z 004f9660 f   xygament2d:xygsvr.obj
 0001:000f86d0       ?IsPrivateRoom@CBaseServer@@UAEHH@Z 004f96d0 f   xygament2d:xygsvr.obj
 0001:000f8740       ?IsCloakingRoom@CBaseServer@@UAEHH@Z 004f9740 f   xygament2d:xygsvr.obj
 0001:000f87a0       ?IsTakeDepositRoom@CBaseServer@@UAEHH@Z 004f97a0 f   xygament2d:xygsvr.obj
 0001:000f8810       ?IsNeedDepositRoom@CBaseServer@@UAEHH@Z 004f9810 f   xygament2d:xygsvr.obj
 0001:000f8870       ?IsRoomInOpenTime@CBaseServer@@UAEHHAAH0@Z 004f9870 f   xygament2d:xygsvr.obj
 0001:000f8a50       ?IsForbidChatUserID@CBaseServer@@UAEHHAAH@Z 004f9a50 f   xygament2d:xygsvr.obj
 0001:000f8b40       ?IsForbidChatMachine@CBaseServer@@UAEHPBDAAH@Z 004f9b40 f   xygament2d:xygsvr.obj
 0001:000f8c80       ?IsForbidChatUser@CBaseServer@@UAEHHPBDAAH@Z 004f9c80 f   xygament2d:xygsvr.obj
 0001:000f8d10       ?GetYxpdSvrINIFileName@@YA?AVCString@@XZ 004f9d10 f   xygament2d:xygsvr.obj
 0001:000f8de0       ?IsFileExistEx@@YAHPBD@Z   004f9de0 f   xygament2d:xygsvr.obj
 0001:000f8e90       ?BuildDirectory@@YAHVCString@@H@Z 004f9e90 f   xygament2d:xygsvr.obj
 0001:000f90c0       ?RegistInSystem@CBaseServer@@UAEXXZ 004fa0c0 f   xygament2d:xygsvr.obj
 0001:000f9240       ?StoreUpGameWin@CBaseServer@@UAEXPAVCTable@@PAXHH@Z 004fa240 f   xygament2d:xygsvr.obj
 0001:000f9380       ?NotifyClientGameWin@CBaseServer@@UAEXPAVCTable@@@Z 004fa380 f   xygament2d:xygsvr.obj
 0001:000f93f0       ?NotifyMatchWWW@CBaseServer@@UAEXHHIJ@Z 004fa3f0 f   xygament2d:xygsvr.obj
 0001:000f9630       ?NotifyHandPhoneQRCodeURL@CBaseServer@@UAEXHHIJ@Z 004fa630 f   xygament2d:xygsvr.obj
 0001:000f97a0       ?ClearGameWin@CBaseServer@@UAEXPAVCTable@@@Z 004fa7a0 f   xygament2d:xygsvr.obj
 0001:000f98a0       ?CheckGameWin@CBaseServer@@UAEXXZ 004fa8a0 f   xygament2d:xygsvr.obj
 0001:000f9b20       ?OnVerifyStart@CBaseServer@@MAEHHHHH@Z 004fab20 f   xygament2d:xygsvr.obj
 0001:000f9d70       ?OnVerifyStartFaild@CBaseServer@@MAEHHHHH@Z 004fad70 f   xygament2d:xygsvr.obj
 0001:000f9da0       ?xyGetAboveFolder@@YA?AVCString@@PBD@Z 004fada0 f   xygament2d:xygsvr.obj
 0001:000f9ee0       ?OnStartSoloTable@CBaseServer@@MAEHHH@Z 004faee0 f   xygament2d:xygsvr.obj
 0001:000fa1f0       ?CheckOpenTime@CBaseServer@@UAEHPAVCTable@@@Z 004fb1f0 f   xygament2d:xygsvr.obj
 0001:000fa300       ?StartSoloTable@CBaseServer@@MAEHPAU_tagSTART_SOLOTABLE@@@Z 004fb300 f   xygament2d:xygsvr.obj
 0001:000fb6a0       ?NotifyServiceFee@CBaseServer@@UAEXPAVCTable@@@Z 004fc6a0 f   xygament2d:xygsvr.obj
 0001:000fb6d0       ?NotifyScoreProtect@CBaseServer@@UAEXPAVCTable@@@Z 004fc6d0 f   xygament2d:xygsvr.obj
 0001:000fb700       ?NotifySoloPlayerRealData@CBaseServer@@UAEXPAVCTable@@@Z 004fc700 f   xygament2d:xygsvr.obj
 0001:000fb730       ?RecordUserGameBout@CBaseServer@@MAEXPAVCTable@@@Z 004fc730 f   xygament2d:xygsvr.obj
 0001:000fb8c0       ?CloseClientInSolo@CBaseServer@@MAEHH@Z 004fc8c0 f   xygament2d:xygsvr.obj
 0001:000fbbc0       ?MoveUserToChair@CBaseServer@@MAEHHHHPAU_tagSOLO_PLAYER@@@Z 004fcbc0 f   xygament2d:xygsvr.obj
 0001:000fc330       ?LookupUserData@CBaseServer@@UAEHHAAU_tagUSER_DATA@@@Z 004fd330 f   xygament2d:xygsvr.obj
 0001:000fc3d0       ?SetUserData@CBaseServer@@UAEXHAAU_tagUSER_DATA@@AAU_tagGAME_PULSE@@@Z 004fd3d0 f   xygament2d:xygsvr.obj
 0001:000fc660       ?RemoveUserData@CBaseServer@@UAEXH@Z 004fd660 f   xygament2d:xygsvr.obj
 0001:000fc6f0       ?UserCloseClient@CBaseServer@@UAEXJ@Z 004fd6f0 f   xygament2d:xygsvr.obj
 0001:000fc860       ?ClearUserToken@CBaseServer@@UAEXXZ 004fd860 f   xygament2d:xygsvr.obj
 0001:000fc9a0       ?CalcBreakUsers@CBaseServer@@UAEXH@Z 004fd9a0 f   xygament2d:xygsvr.obj
 0001:000fcd40       ?RecordGameRunLog@CBaseServer@@UAEXXZ 004fdd40 f   xygament2d:xygsvr.obj
 0001:000fea10       ?LogAnalyFile@CBaseServer@@UAAXPBDZZ 004ffa10 f   xygament2d:xygsvr.obj
 0001:000feb50       ?LogAnalyPrintf@CBaseServer@@UAEXPAD@Z 004ffb50 f   xygament2d:xygsvr.obj
 0001:000fedc0       __tcsrchr                  004ffdc0 f i xygament2d:xygsvr.obj
 0001:000fee10       ?LookupSoloPlayer@CBaseServer@@UAEHHAAU_tagSOLO_PLAYER@@@Z 004ffe10 f   xygament2d:xygsvr.obj
 0001:000feeb0       ?SetSoloPlayer@CBaseServer@@UAEXHAAU_tagSOLO_PLAYER@@@Z 004ffeb0 f   xygament2d:xygsvr.obj
 0001:000fef40       ?RemoveSoloPlayer@CBaseServer@@UAEXH@Z 004fff40 f   xygament2d:xygsvr.obj
 0001:000fefd0       ?FormatDateAndTime@@YA?AVCString@@HH@Z 004fffd0 f   xygament2d:xygsvr.obj
 0001:000ff270       ?GetOutOfOpenTimeCause@CBaseServer@@UAE?AVCString@@PAU_tagOUT_OF_OPENTIME@@@Z 00500270 f   xygament2d:xygsvr.obj
 0001:000ff750       ?GetOpenTimeSection@CBaseServer@@UAEHHPAU_tagOUT_OF_OPENTIME@@@Z 00500750 f   xygament2d:xygsvr.obj
 0001:000ffa70       ?GetActivitySection@CBaseServer@@UAEHPAU_tagOUT_OF_OPENTIME@@@Z 00500a70 f   xygament2d:xygsvr.obj
 0001:000ffd90       ?GetStrByRemainSec@CBaseServer@@UAE?AVCString@@H@Z 00500d90 f   xygament2d:xygsvr.obj
 0001:000fff40       ?CheckRoomInOpenTime@CBaseServer@@UAEHH@Z 00500f40 f   xygament2d:xygsvr.obj
 0001:00100500       ?xyStrstr@@YAPADPBD0@Z     00501500 f   xygament2d:xygsvr.obj
 0001:00100600       ?IsIncludeFilterWord@CBaseServer@@MAEHPBD@Z 00501600 f   xygament2d:xygsvr.obj
 0001:00100760       ?xyStrstrEx@@YAPADPBD0H@Z  00501760 f   xygament2d:xygsvr.obj
 0001:00100a20       ?xyStrTrim_Info@@YAXPAD0@Z 00501a20 f   xygament2d:xygsvr.obj
 0001:00100b10       ?xyStrTrim_Num@@YAXPAD0@Z  00501b10 f   xygament2d:xygsvr.obj
 0001:00100bb0       ?IsIncludeFilterWord@CBaseServer@@MAEHPBDH@Z 00501bb0 f   xygament2d:xygsvr.obj
 0001:00100e00       ?SetEnterRoomTime@CBaseServer@@MAEXHH@Z 00501e00 f   xygament2d:xygsvr.obj
 0001:00100ef0       ?GetEnterRoomTime@CBaseServer@@MAEHH@Z 00501ef0 f   xygament2d:xygsvr.obj
 0001:00100fe0       ?SetUserLastSpeakInfo@CBaseServer@@MAEXH@Z 00501fe0 f   xygament2d:xygsvr.obj
 0001:001010e0       ?SetVisitorLastSpeakInfo@CBaseServer@@MAEXHHH@Z 005020e0 f   xygament2d:xygsvr.obj
 0001:00101210       ?GetUserLastSpeakInfo@CBaseServer@@MAEHHAAH@Z 00502210 f   xygament2d:xygsvr.obj
 0001:00101310       ?GetVisitorLastSpeakInfo@CBaseServer@@MAEHHAAH00@Z 00502310 f   xygament2d:xygsvr.obj
 0001:00101430       ?VerifyVistorSpeak@CBaseServer@@MAEHHHHPBD@Z 00502430 f   xygament2d:xygsvr.obj
 0001:00101550       ?VerifyUserSpeak@CBaseServer@@MAEHH@Z 00502550 f   xygament2d:xygsvr.obj
 0001:001015f0       ?GetUserSpeakSpan@CBaseServer@@MAEHXZ 005025f0 f   xygament2d:xygsvr.obj
 0001:00101650       ?OnMinDeposit@CBaseServer@@MAEHHH@Z 00502650 f   xygament2d:xygsvr.obj
 0001:001016b0       ?OnMaxDeposit@CBaseServer@@MAEHHH@Z 005026b0 f   xygament2d:xygsvr.obj
 0001:00101710       ?GetMinDeposit@CBaseServer@@MAEHH@Z 00502710 f   xygament2d:xygsvr.obj
 0001:001017e0       ?GetMaxDeposit@CBaseServer@@MAEHH@Z 005027e0 f   xygament2d:xygsvr.obj
 0001:001018b0       ?SetMinDeposit@CBaseServer@@MAEXHH@Z 005028b0 f   xygament2d:xygsvr.obj
 0001:00101980       ?SetMaxDeposit@CBaseServer@@MAEXHH@Z 00502980 f   xygament2d:xygsvr.obj
 0001:00101a50       ?IsAllowStartGame@CBaseServer@@MAEHPAVCTable@@H@Z 00502a50 f   xygament2d:xygsvr.obj
 0001:00101a80       ?IsVariableChairRoom@CBaseServer@@MAEHH@Z 00502a80 f   xygament2d:xygsvr.obj
 0001:00101af0       ?GetMinPlayerCount@CBaseServer@@MAEHPAVCTable@@H@Z 00502af0 f   xygament2d:xygsvr.obj
 0001:00101b20       ?GetCountdown@CBaseServer@@MAEHPAVCTable@@H@Z 00502b20 f   xygament2d:xygsvr.obj
 0001:00101b50       ?OnLookSafeDeposit@CBaseServer@@UAEHPAU_tagCONTEXT_HEAD@@PAVREQUEST@@PAVCWorkerContext@@@Z 00502b50 f   xygament2d:xygsvr.obj
 0001:00101e60       ?OnLookSafeDepositOK@CBaseServer@@UAEHPAU_tagCONTEXT_HEAD@@PAVREQUEST@@1@Z 00502e60 f   xygament2d:xygsvr.obj
 0001:00101f30       ?OnTakeSafeDeposit@CBaseServer@@UAEHPAU_tagCONTEXT_HEAD@@PAVREQUEST@@PAVCWorkerContext@@@Z 00502f30 f   xygament2d:xygsvr.obj
 0001:00102a10       ?OnTakeSafeDepositOK@CBaseServer@@UAEHPAU_tagCONTEXT_HEAD@@PAVREQUEST@@1@Z 00503a10 f   xygament2d:xygsvr.obj
 0001:00102ea0       ?OnSaveSafeDeposit@CBaseServer@@UAEHPAU_tagCONTEXT_HEAD@@PAVREQUEST@@PAVCWorkerContext@@@Z 00503ea0 f   xygament2d:xygsvr.obj
 0001:00103900       ?OnSaveSafeDepositOK@CBaseServer@@UAEHPAU_tagCONTEXT_HEAD@@PAVREQUEST@@1@Z 00504900 f   xygament2d:xygsvr.obj
 0001:00103db0       ??0CSockServer@@QAE@HKK@Z  00504db0 f i xygament2d:xygsvr.obj
 0001:00103ec0       ??1CSockServer@@UAE@XZ     00504ec0 f i xygament2d:xygsvr.obj
 0001:00103fb0       ??_ECSockServer@@UAEPAXI@Z 00504fb0 f i xygament2d:xygsvr.obj
 0001:00103fb0       ??_GCSockServer@@UAEPAXI@Z 00504fb0 f i xygament2d:xygsvr.obj
 0001:00104010       ?OnTakeSafeRndKey@CBaseServer@@UAEHPAU_tagCONTEXT_HEAD@@PAVREQUEST@@PAVCWorkerContext@@@Z 00505010 f   xygament2d:xygsvr.obj
 0001:001042a0       ?OnTakeSafeRndKeyOK@CBaseServer@@UAEHPAU_tagCONTEXT_HEAD@@PAVREQUEST@@1@Z 005052a0 f   xygament2d:xygsvr.obj
 0001:00104370       ?OnLookBackDepositInGame@CBaseServer@@UAEHPAU_tagCONTEXT_HEAD@@PAVREQUEST@@PAVCWorkerContext@@@Z 00505370 f   xygament2d:xygsvr.obj
 0001:00104680       ?OnLookBackDepositInGameOK@CBaseServer@@UAEHPAU_tagCONTEXT_HEAD@@PAVREQUEST@@1@Z 00505680 f   xygament2d:xygsvr.obj
 0001:00104750       ?OnTakeBackDepositInGame@CBaseServer@@UAEHPAU_tagCONTEXT_HEAD@@PAVREQUEST@@PAVCWorkerContext@@@Z 00505750 f   xygament2d:xygsvr.obj
 0001:00105210       ?OnTakeBackDepositInGameOK@CBaseServer@@UAEHPAU_tagCONTEXT_HEAD@@PAVREQUEST@@1@Z 00506210 f   xygament2d:xygsvr.obj
 0001:001056a0       ?OnSaveBackDepositInGame@CBaseServer@@UAEHPAU_tagCONTEXT_HEAD@@PAVREQUEST@@PAVCWorkerContext@@@Z 005066a0 f   xygament2d:xygsvr.obj
 0001:00106100       ?OnSaveBackDepositInGameOK@CBaseServer@@UAEHPAU_tagCONTEXT_HEAD@@PAVREQUEST@@1@Z 00507100 f   xygament2d:xygsvr.obj
 0001:001065b0       ?OnNewTableChair@CBaseServer@@MAEHHHHH@Z 005075b0 f   xygament2d:xygsvr.obj
 0001:00106e30       ?OnNewChair@CBaseServer@@MAEHHHHH@Z 00507e30 f   xygament2d:xygsvr.obj
 0001:00107490       ?ClearMatchTable@CBaseServer@@UAEXPAVCRoom@@PAVCTable@@@Z 00508490 f i xygament2d:xygsvr.obj
 0001:001074c0       ?DisableUnActiveTable@CBaseServer@@UAEXPAVCRoom@@PAVCTable@@@Z 005084c0 f i xygament2d:xygsvr.obj
 0001:001074f0       ?OnHomeUserID@CBaseServer@@MAEHHH@Z 005084f0 f   xygament2d:xygsvr.obj
 0001:00107710       ?OnUserClothing@CBaseServer@@MAEHHH@Z 00508710 f   xygament2d:xygsvr.obj
 0001:00107b70       ?OnBecomeMember@CBaseServer@@MAEHHH@Z 00508b70 f   xygament2d:xygsvr.obj
 0001:00108020       ?OnVerifyRoomTableChair@CBaseServer@@MAEHHHHH@Z 00509020 f   xygament2d:xygsvr.obj
 0001:00108410       ?OnAskNewTableChair@CBaseServer@@UAEHPAU_tagCONTEXT_HEAD@@PAVREQUEST@@PAVCWorkerContext@@@Z 00509410 f   xygament2d:xygsvr.obj
 0001:00108c00       ?OnAskOnlyChangeChair@CBaseServer@@UAEHPAU_tagCONTEXT_HEAD@@PAVREQUEST@@PAVCWorkerContext@@@Z 00509c00 f   xygament2d:xygsvr.obj
 0001:00109370       ?OnHomeTickPlayer@CBaseServer@@UAEHPAU_tagCONTEXT_HEAD@@PAVREQUEST@@PAVCWorkerContext@@@Z 0050a370 f   xygament2d:xygsvr.obj
 0001:00109de0       ?GetAskNewTableTimeSpan@CBaseServer@@UAEHXZ 0050ade0 f   xygament2d:xygsvr.obj
 0001:00109e40       ?VerifyAskNewTableChair@CBaseServer@@UAEHH@Z 0050ae40 f   xygament2d:xygsvr.obj
 0001:00109fd0       ?OnChangeHomeUserID@CBaseServer@@UAEHHPAVCTable@@@Z 0050afd0 f   xygament2d:xygsvr.obj
 0001:0010a130       ?OnAskRandomTable@CBaseServer@@UAEHPAU_tagCONTEXT_HEAD@@PAVREQUEST@@PAVCWorkerContext@@@Z 0050b130 f   xygament2d:xygsvr.obj
 0001:0010aca0       ?KickOffTooManyIdlePlayer@CBaseServer@@MAEXPAVCTable@@H@Z 0050bca0 f   xygament2d:xygsvr.obj
 0001:0010acd0       ?GetMinPlayingDeposit@CBaseServer@@MAEHPAVCTable@@H@Z 0050bcd0 f   xygament2d:xygsvr.obj
 0001:0010ad00       ?IsCheckDepositMin@CBaseServer@@UAEHH@Z 0050bd00 f   xygament2d:xygsvr.obj
 0001:0010ad60       ?IsCheckDepositMax@CBaseServer@@UAEHH@Z 0050bd60 f   xygament2d:xygsvr.obj
 0001:0010adc0       ?GetChatTags@CBaseServer@@UAE?AVCString@@K@Z 0050bdc0 f   xygament2d:xygsvr.obj
 0001:0010ae50       ?CreateSoapThreads@CBaseServer@@UAEXXZ 0050be50 f   xygament2d:xygsvr.obj
 0001:0010af20       ?InitSoapConfig@CBaseServer@@UAEHXZ 0050bf20 f   xygament2d:xygsvr.obj
 0001:0010b200       ?xyRetrieveFields_Ref@@YAHPADPAPADH1@Z 0050c200 f   xygament2d:xygsvr.obj
 0001:0010b320       ?xyConvertIPToStr_Ref@@YA?AVCString@@K@Z 0050c320 f   xygament2d:xygsvr.obj
 0001:0010b3e0       ?SoapThreadFunc@CBaseServer@@KGIPAX@Z 0050c3e0 f   xygament2d:xygsvr.obj
 0001:0010b440       ?SoapThreadProc@CBaseServer@@MAEIPAX@Z 0050c440 f   xygament2d:xygsvr.obj
 0001:0010b9c0       ?DealSoapMessage@CBaseServer@@UAEHPAU_tagSOAP_SERVICE@@AAV?$_com_ptr_t@V?$_com_IIID@UIXYSoapClient@XYSOAPCLIENTLib@@$1?_GUID_56fdbc41_47d1_4175_8116_487b0cb069d7@@3U__s_GUID@@A@@@@PAU_tagCONTEXT_HEAD@@PAVREQUEST@@@Z 0050c9c0 f   xygament2d:xygsvr.obj
 0001:0010bae0       ?DealApplyBaseWelfare@CBaseServer@@UAEHPAU_tagSOAP_SERVICE@@AAV?$_com_ptr_t@V?$_com_IIID@UIXYSoapClient@XYSOAPCLIENTLib@@$1?_GUID_56fdbc41_47d1_4175_8116_487b0cb069d7@@3U__s_GUID@@A@@@@PAU_tagCONTEXT_HEAD@@PAVREQUEST@@@Z 0050cae0 f   xygament2d:xygsvr.obj
 0001:0010bb10       ?DealApplyBaseWelfareEx@CBaseServer@@UAEHPAU_tagSOAP_SERVICE@@AAV?$_com_ptr_t@V?$_com_IIID@UIXYSoapClient@XYSOAPCLIENTLib@@$1?_GUID_56fdbc41_47d1_4175_8116_487b0cb069d7@@3U__s_GUID@@A@@@@PAU_tagCONTEXT_HEAD@@PAVREQUEST@@@Z 0050cb10 f   xygament2d:xygsvr.obj
 0001:0010bb40       ?DealGetWelfareConfig@CBaseServer@@UAEHPAU_tagSOAP_SERVICE@@AAV?$_com_ptr_t@V?$_com_IIID@UIXYSoapClient@XYSOAPCLIENTLib@@$1?_GUID_56fdbc41_47d1_4175_8116_487b0cb069d7@@3U__s_GUID@@A@@@@PAU_tagCONTEXT_HEAD@@PAVREQUEST@@@Z 0050cb40 f   xygament2d:xygsvr.obj
 0001:0010bb70       ?DealSelfMessage@CBaseServer@@UAEHPAU_tagSOAP_SERVICE@@AAV?$_com_ptr_t@V?$_com_IIID@UIXYSoapClient@XYSOAPCLIENTLib@@$1?_GUID_56fdbc41_47d1_4175_8116_487b0cb069d7@@3U__s_GUID@@A@@@@PAU_tagCONTEXT_HEAD@@PAVREQUEST@@@Z 0050cb70 f   xygament2d:xygsvr.obj
 0001:0010bba0       ?OnApplyBaseWelfare@CBaseServer@@UAEHPAU_tagCONTEXT_HEAD@@PAVREQUEST@@PAVCWorkerContext@@@Z 0050cba0 f   xygament2d:xygsvr.obj
 0001:0010bc50       ?OnApplyBaseWelfareEx@CBaseServer@@UAEHPAU_tagCONTEXT_HEAD@@PAVREQUEST@@PAVCWorkerContext@@@Z 0050cc50 f   xygament2d:xygsvr.obj
 0001:0010bd00       ?OnGetWelfareConfig@CBaseServer@@UAEHPAU_tagCONTEXT_HEAD@@PAVREQUEST@@PAVCWorkerContext@@@Z 0050cd00 f   xygament2d:xygsvr.obj
 0001:0010bdb0       ?PostSoapRequest@CBaseServer@@UAEHIPAU_tagCONTEXT_HEAD@@PAVREQUEST@@@Z 0050cdb0 f   xygament2d:xygsvr.obj
 0001:0010bfa0       ?IsBaseWelfareActive@CBaseServer@@UAEHXZ 0050cfa0 f   xygament2d:xygsvr.obj
 0001:0010bfd0       ?NeedUpdateWelfareConfig@CBaseServer@@UAEHXZ 0050cfd0 f   xygament2d:xygsvr.obj
 0001:0010c000       ?SetUpdateWelfareConfig@CBaseServer@@UAEXH@Z 0050d000 f   xygament2d:xygsvr.obj
 0001:0010c030       ?AddToMobileBkgQueue@CBaseServer@@UAEXAAU_tagENTER_BKG_MB@@@Z 0050d030 f   xygament2d:xygsvr.obj
 0001:0010c150       ?RemoveFromMobileBkgQueue@CBaseServer@@UAEXAAU_tagENTER_BKG_MB@@@Z 0050d150 f   xygament2d:xygsvr.obj
 0001:0010c290       ?AddToMobileBkgQueue_GameOver@CBaseServer@@UAEXPAVCTable@@@Z 0050d290 f   xygament2d:xygsvr.obj
 0001:0010c390       ?ClearMobileBkg@CBaseServer@@UAEXXZ 0050d390 f   xygament2d:xygsvr.obj
 0001:0010c420       ?IsValidMobileUserData@CBaseServer@@UAEHHHHH@Z 0050d420 f   xygament2d:xygsvr.obj
 0001:0010c6f0       ?NeedRemoveFromBkgQueue@CBaseServer@@UAEHAAU_tagENTER_BKG_MB@@HHAAK@Z 0050d6f0 f   xygament2d:xygsvr.obj
 0001:0010c800       ?IsKickMobileBkgActive@CBaseServer@@UAEHXZ 0050d800 f   xygament2d:xygsvr.obj
 0001:0010c860       ?GetKickBkgInterval@CBaseServer@@UAEHXZ 0050d860 f   xygament2d:xygsvr.obj
 0001:0010c8d0       ?GetKickBkgWait@CBaseServer@@UAEHXZ 0050d8d0 f   xygament2d:xygsvr.obj
 0001:0010c940       ?GetKickBkgWait_GameOver@CBaseServer@@UAEHXZ 0050d940 f   xygament2d:xygsvr.obj
 0001:0010c9b0       ?DoTimingWork_KickMobileUser@CBaseServer@@UAEXXZ 0050d9b0 f   xygament2d:xygsvr.obj
 0001:0010cce0       ?GetGameCode@CBaseServer@@UAE?AVCString@@XZ 0050dce0 f   xygament2d:xygsvr.obj
 0001:0010ce70       ?BroadCast@CBaseServer@@UAEHPAU_tagBROAD_CAST@@@Z 0050de70 f   xygament2d:xygsvr.obj
 0001:0010cea0       ?GetBroadCastInterval@CBaseServer@@UAEHXZ 0050dea0 f   xygament2d:xygsvr.obj
 0001:0010ced0       ?ClearBroadcast@CBaseServer@@UAEXXZ 0050ded0 f   xygament2d:xygsvr.obj
 0001:0010cf60       ?OnLookGameDepositBonus@CBaseServer@@UAEHPAU_tagCONTEXT_HEAD@@PAVREQUEST@@PAVCWorkerContext@@@Z 0050df60 f   xygament2d:xygsvr.obj
 0001:0010cf90       ?OnLookGameDepositBonusOK@CBaseServer@@UAEHPAU_tagCONTEXT_HEAD@@PAVREQUEST@@1@Z 0050df90 f   xygament2d:xygsvr.obj
 0001:0010cfc0       ?OnTakeGameDepositBonus@CBaseServer@@UAEHPAU_tagCONTEXT_HEAD@@PAVREQUEST@@PAVCWorkerContext@@@Z 0050dfc0 f   xygament2d:xygsvr.obj
 0001:0010d530       ?OnTakeGameDepositBonusOK@CBaseServer@@UAEHPAU_tagCONTEXT_HEAD@@PAVREQUEST@@1@Z 0050e530 f   xygament2d:xygsvr.obj
 0001:0010d560       ?OnTakeGameDepositBonusFail@CBaseServer@@UAEHPAU_tagCONTEXT_HEAD@@PAVREQUEST@@1@Z 0050e560 f   xygament2d:xygsvr.obj
 0001:0010d5e0       ?NotifyTakeBonusInfo@CBaseServer@@UAEHPAU_tagCONTEXT_HEAD@@PAVREQUEST@@KPBD@Z 0050e5e0 f   xygament2d:xygsvr.obj
 0001:0010d610       ?NeedChangeBaseDeposit@CBaseServer@@UAEHPAVCTable@@PAVCPlayer@@@Z 0050e610 f   xygament2d:xygsvr.obj
 0001:0010d6a0       ?ChangeBaseDeposit@CBaseServer@@UAEHPAVCTable@@@Z 0050e6a0 f   xygament2d:xygsvr.obj
 0001:0010d730       ?BaseVerify@CBaseServer@@UAEHHHHH@Z 0050e730 f   xygament2d:xygsvr.obj
 0001:0010d780       ?GetRoomPtr@CBaseServer@@UAEHHPAPAVCRoom@@@Z 0050e780 f   xygament2d:xygsvr.obj
 0001:0010d860       ?GetTablePtr@CBaseServer@@UAEHPAVCRoom@@HPAPAVCTable@@@Z 0050e860 f   xygament2d:xygsvr.obj
 0001:0010d930       ?DestructorClear@CBaseServer@@UAEXXZ 0050e930 f   xygament2d:xygsvr.obj
 0001:0010d9c0       ?IsPassiveReq@CBaseServer@@UAEHPAU_tagCONTEXT_HEAD@@@Z 0050e9c0 f   xygament2d:xygsvr.obj
 0001:0010da10       ?IsPlayerIdle@CBaseServer@@UAEHHHHHJ@Z 0050ea10 f   xygament2d:xygsvr.obj
 0001:0010dc10       ?SetOneUserTakingBonus@CBaseServer@@UAEHPAU_tagCONTEXT_HEAD@@HHHHH@Z 0050ec10 f   xygament2d:xygsvr.obj
 0001:0010dc40       ?FreshGameWinDelay@CBaseServer@@UAEXK@Z 0050ec40 f   xygament2d:xygsvr.obj
 0001:0010de40       ?ClearGameWinDelay@CBaseServer@@UAEXXZ 0050ee40 f   xygament2d:xygsvr.obj
 0001:0010ded0       ?SetGameWinDelay@CBaseServer@@UAEXK@Z 0050eed0 f   xygament2d:xygsvr.obj
 0001:0010df10       ?GetGameWinDelay@CBaseServer@@UBEKXZ 0050ef10 f   xygament2d:xygsvr.obj
 0001:0010df40       ?GetRequestDelay@CBaseServer@@UBEKXZ 0050ef40 f   xygament2d:xygsvr.obj
 0001:0010df70       ?MD5String@CBaseServer@@UAE?AVCString@@PBD@Z 0050ef70 f   xygament2d:xygsvr.obj
 0001:0010e070       ?IsSupportPassive@CBaseServer@@UAEHXZ 0050f070 f   xygament2d:xygsvr.obj
 0001:0010e0d0       ?GetBoutLeast@CBaseServer@@UAEHXZ 0050f0d0 f   xygament2d:xygsvr.obj
 0001:0010e130       ?GetBoutTimeMin@CBaseServer@@UAEHXZ 0050f130 f   xygament2d:xygsvr.obj
 0001:0010e190       ?GetBoutTimeMax@CBaseServer@@UAEHXZ 0050f190 f   xygament2d:xygsvr.obj
 0001:0010e200       ?OnPayResultToGame@CBaseServer@@UAEHPAVREQUEST@@@Z 0050f200 f   xygament2d:xygsvr.obj
 0001:0010e8b0       ?OnCurrencyExchange@CBaseServer@@UAEHPAVREQUEST@@@Z 0050f8b0 f   xygament2d:xygsvr.obj
 0001:0010ef70       ?QueryTopRankList2Check@CBaseServer@@QAEXW4GAME_RANK_FIELD@@H@Z 0050ff70 f   xygament2d:xygsvr.obj
 0001:0010f070       ?OnQueryTopRankListOK@CBaseServer@@UAEHPAU_tagCONTEXT_HEAD@@PAVREQUEST@@1@Z 00510070 f   xygament2d:xygsvr.obj
 0001:0010f0a0       ??0?$list@U_tagENTER_BKG_MB@@V?$allocator@U_tagENTER_BKG_MB@@@std@@@std@@QAE@ABV?$allocator@U_tagENTER_BKG_MB@@@1@@Z 005100a0 f i xygament2d:xygsvr.obj
 0001:0010f100       ??1?$list@U_tagENTER_BKG_MB@@V?$allocator@U_tagENTER_BKG_MB@@@std@@@std@@QAE@XZ 00510100 f i xygament2d:xygsvr.obj
 0001:0010f180       ?begin@?$list@U_tagENTER_BKG_MB@@V?$allocator@U_tagENTER_BKG_MB@@@std@@@std@@QAE?AViterator@12@XZ 00510180 f i xygament2d:xygsvr.obj
 0001:0010f1e0       ?end@?$list@U_tagENTER_BKG_MB@@V?$allocator@U_tagENTER_BKG_MB@@@std@@@std@@QAE?AViterator@12@XZ 005101e0 f i xygament2d:xygsvr.obj
 0001:0010f230       ?push_back@?$list@U_tagENTER_BKG_MB@@V?$allocator@U_tagENTER_BKG_MB@@@std@@@std@@QAEXABU_tagENTER_BKG_MB@@@Z 00510230 f i xygament2d:xygsvr.obj
 0001:0010f280       ?erase@?$list@U_tagENTER_BKG_MB@@V?$allocator@U_tagENTER_BKG_MB@@@std@@@std@@QAE?AViterator@12@V312@@Z 00510280 f i xygament2d:xygsvr.obj
 0001:0010f360       ?clear@?$list@U_tagENTER_BKG_MB@@V?$allocator@U_tagENTER_BKG_MB@@@std@@@std@@QAEXXZ 00510360 f i xygament2d:xygsvr.obj
 0001:0010f3c0       ??0iterator@?$list@U_tagENTER_BKG_MB@@V?$allocator@U_tagENTER_BKG_MB@@@std@@@std@@QAE@XZ 005103c0 f i xygament2d:xygsvr.obj
 0001:0010f400       ??Diterator@?$list@U_tagENTER_BKG_MB@@V?$allocator@U_tagENTER_BKG_MB@@@std@@@std@@QBEAAU_tagENTER_BKG_MB@@XZ 00510400 f i xygament2d:xygsvr.obj
 0001:0010f440       ??Eiterator@?$list@U_tagENTER_BKG_MB@@V?$allocator@U_tagENTER_BKG_MB@@@std@@@std@@QAE?AV012@H@Z 00510440 f i xygament2d:xygsvr.obj
 0001:0010f490       ??9iterator@?$list@U_tagENTER_BKG_MB@@V?$allocator@U_tagENTER_BKG_MB@@@std@@@std@@QBE_NABV012@@Z 00510490 f i xygament2d:xygsvr.obj
 0001:0010f4e0       ??0?$list@U_tagBROAD_CAST@@V?$allocator@U_tagBROAD_CAST@@@std@@@std@@QAE@ABV?$allocator@U_tagBROAD_CAST@@@1@@Z 005104e0 f i xygament2d:xygsvr.obj
 0001:0010f540       ??1?$list@U_tagBROAD_CAST@@V?$allocator@U_tagBROAD_CAST@@@std@@@std@@QAE@XZ 00510540 f i xygament2d:xygsvr.obj
 0001:0010f5c0       ?empty@?$list@U_tagBROAD_CAST@@V?$allocator@U_tagBROAD_CAST@@@std@@@std@@QBE_NXZ 005105c0 f i xygament2d:xygsvr.obj
 0001:0010f600       ?front@?$list@U_tagBROAD_CAST@@V?$allocator@U_tagBROAD_CAST@@@std@@@std@@QAEAAU_tagBROAD_CAST@@XZ 00510600 f i xygament2d:xygsvr.obj
 0001:0010f650       ?pop_front@?$list@U_tagBROAD_CAST@@V?$allocator@U_tagBROAD_CAST@@@std@@@std@@QAEXXZ 00510650 f i xygament2d:xygsvr.obj
 0001:0010f6a0       ?clear@?$list@U_tagBROAD_CAST@@V?$allocator@U_tagBROAD_CAST@@@std@@@std@@QAEXXZ 005106a0 f i xygament2d:xygsvr.obj
 0001:0010f700       ??0?$list@U_tagGAME_WIN_DELAY@@V?$allocator@U_tagGAME_WIN_DELAY@@@std@@@std@@QAE@ABV?$allocator@U_tagGAME_WIN_DELAY@@@1@@Z 00510700 f i xygament2d:xygsvr.obj
 0001:0010f760       ??1?$list@U_tagGAME_WIN_DELAY@@V?$allocator@U_tagGAME_WIN_DELAY@@@std@@@std@@QAE@XZ 00510760 f i xygament2d:xygsvr.obj
 0001:0010f7e0       ?begin@?$list@U_tagGAME_WIN_DELAY@@V?$allocator@U_tagGAME_WIN_DELAY@@@std@@@std@@QAE?AViterator@12@XZ 005107e0 f i xygament2d:xygsvr.obj
 0001:0010f840       ?erase@?$list@U_tagGAME_WIN_DELAY@@V?$allocator@U_tagGAME_WIN_DELAY@@@std@@@std@@QAE?AViterator@12@V312@@Z 00510840 f i xygament2d:xygsvr.obj
 0001:0010f920       ?clear@?$list@U_tagGAME_WIN_DELAY@@V?$allocator@U_tagGAME_WIN_DELAY@@@std@@@std@@QAEXXZ 00510920 f i xygament2d:xygsvr.obj
 0001:0010f980       ??0iterator@?$list@U_tagGAME_WIN_DELAY@@V?$allocator@U_tagGAME_WIN_DELAY@@@std@@@std@@QAE@XZ 00510980 f i xygament2d:xygsvr.obj
 0001:0010f9c0       ??Diterator@?$list@U_tagGAME_WIN_DELAY@@V?$allocator@U_tagGAME_WIN_DELAY@@@std@@@std@@QBEAAU_tagGAME_WIN_DELAY@@XZ 005109c0 f i xygament2d:xygsvr.obj
 0001:0010fa00       ??Citerator@?$list@U_tagGAME_WIN_DELAY@@V?$allocator@U_tagGAME_WIN_DELAY@@@std@@@std@@QBEPAU_tagGAME_WIN_DELAY@@XZ 00510a00 f i xygament2d:xygsvr.obj
 0001:0010fa40       ??Eiterator@?$list@U_tagGAME_WIN_DELAY@@V?$allocator@U_tagGAME_WIN_DELAY@@@std@@@std@@QAE?AV012@H@Z 00510a40 f i xygament2d:xygsvr.obj
 0001:0010fa90       ??9iterator@?$list@U_tagGAME_WIN_DELAY@@V?$allocator@U_tagGAME_WIN_DELAY@@@std@@@std@@QBE_NABV012@@Z 00510a90 f i xygament2d:xygsvr.obj
 0001:0010fae0       ??0?$vector@U_tagENTER_BKG_MB@@V?$allocator@U_tagENTER_BKG_MB@@@std@@@std@@QAE@ABV?$allocator@U_tagENTER_BKG_MB@@@1@@Z 00510ae0 f i xygament2d:xygsvr.obj
 0001:0010fb40       ??1?$vector@U_tagENTER_BKG_MB@@V?$allocator@U_tagENTER_BKG_MB@@@std@@@std@@QAE@XZ 00510b40 f i xygament2d:xygsvr.obj
 0001:0010fbd0       ?begin@?$vector@U_tagENTER_BKG_MB@@V?$allocator@U_tagENTER_BKG_MB@@@std@@@std@@QAEPAU_tagENTER_BKG_MB@@XZ 00510bd0 f i xygament2d:xygsvr.obj
 0001:0010fc00       ?end@?$vector@U_tagENTER_BKG_MB@@V?$allocator@U_tagENTER_BKG_MB@@@std@@@std@@QAEPAU_tagENTER_BKG_MB@@XZ 00510c00 f i xygament2d:xygsvr.obj
 0001:0010fc30       ?size@?$vector@U_tagENTER_BKG_MB@@V?$allocator@U_tagENTER_BKG_MB@@@std@@@std@@QBEIXZ 00510c30 f i xygament2d:xygsvr.obj
 0001:0010fc80       ?push_back@?$vector@U_tagENTER_BKG_MB@@V?$allocator@U_tagENTER_BKG_MB@@@std@@@std@@QAEXABU_tagENTER_BKG_MB@@@Z 00510c80 f i xygament2d:xygsvr.obj
 0001:0010fcd0       ?clear@?$vector@U_tagENTER_BKG_MB@@V?$allocator@U_tagENTER_BKG_MB@@@std@@@std@@QAEXXZ 00510cd0 f i xygament2d:xygsvr.obj
 0001:0010fd20       ?insert@?$list@U_tagENTER_BKG_MB@@V?$allocator@U_tagENTER_BKG_MB@@@std@@@std@@QAE?AViterator@12@V312@ABU_tagENTER_BKG_MB@@@Z 00510d20 f i xygament2d:xygsvr.obj
 0001:0010fe00       ?erase@?$list@U_tagENTER_BKG_MB@@V?$allocator@U_tagENTER_BKG_MB@@@std@@@std@@QAE?AViterator@12@V312@0@Z 00510e00 f i xygament2d:xygsvr.obj
 0001:0010fe70       ?_Buynode@?$list@U_tagENTER_BKG_MB@@V?$allocator@U_tagENTER_BKG_MB@@@std@@@std@@IAEPAU_Node@12@PAU312@0@Z 00510e70 f i xygament2d:xygsvr.obj
 0001:0010ff00       ?_Freenode@?$list@U_tagENTER_BKG_MB@@V?$allocator@U_tagENTER_BKG_MB@@@std@@@std@@IAEXPAU_Node@12@@Z 00510f00 f i xygament2d:xygsvr.obj
 0001:0010ff40       ?_Next@_Acc@?$list@U_tagENTER_BKG_MB@@V?$allocator@U_tagENTER_BKG_MB@@@std@@@std@@SAAAPAU_Node@23@PAU423@@Z 00510f40 f i xygament2d:xygsvr.obj
 0001:0010ff70       ?_Prev@_Acc@?$list@U_tagENTER_BKG_MB@@V?$allocator@U_tagENTER_BKG_MB@@@std@@@std@@SAAAPAU_Node@23@PAU423@@Z 00510f70 f i xygament2d:xygsvr.obj
 0001:0010ffa0       ?_Value@_Acc@?$list@U_tagENTER_BKG_MB@@V?$allocator@U_tagENTER_BKG_MB@@@std@@@std@@SAAAU_tagENTER_BKG_MB@@PAU_Node@23@@Z 00510fa0 f i xygament2d:xygsvr.obj
 0001:0010ffd0       ?deallocate@?$allocator@U_tagENTER_BKG_MB@@@std@@QAEXPAXI@Z 00510fd0 f i xygament2d:xygsvr.obj
 0001:00110010       ?destroy@?$allocator@U_tagENTER_BKG_MB@@@std@@QAEXPAU_tagENTER_BKG_MB@@@Z 00511010 f i xygament2d:xygsvr.obj
 0001:00110050       ??0const_iterator@?$list@U_tagENTER_BKG_MB@@V?$allocator@U_tagENTER_BKG_MB@@@std@@@std@@QAE@XZ 00511050 f i xygament2d:xygsvr.obj
 0001:00110080       ?_Mynode@const_iterator@?$list@U_tagENTER_BKG_MB@@V?$allocator@U_tagENTER_BKG_MB@@@std@@@std@@QBEPAU_Node@23@XZ 00511080 f i xygament2d:xygsvr.obj
 0001:001100b0       ??0iterator@?$list@U_tagENTER_BKG_MB@@V?$allocator@U_tagENTER_BKG_MB@@@std@@@std@@QAE@PAU_Node@12@@Z 005110b0 f i xygament2d:xygsvr.obj
 0001:001100f0       ??Eiterator@?$list@U_tagENTER_BKG_MB@@V?$allocator@U_tagENTER_BKG_MB@@@std@@@std@@QAEAAV012@XZ 005110f0 f i xygament2d:xygsvr.obj
 0001:00110140       ??8iterator@?$list@U_tagENTER_BKG_MB@@V?$allocator@U_tagENTER_BKG_MB@@@std@@@std@@QBE_NABV012@@Z 00511140 f i xygament2d:xygsvr.obj
 0001:00110180       ?begin@?$list@U_tagBROAD_CAST@@V?$allocator@U_tagBROAD_CAST@@@std@@@std@@QAE?AViterator@12@XZ 00511180 f i xygament2d:xygsvr.obj
 0001:001101e0       ?size@?$list@U_tagBROAD_CAST@@V?$allocator@U_tagBROAD_CAST@@@std@@@std@@QBEIXZ 005111e0 f i xygament2d:xygsvr.obj
 0001:00110210       ?erase@?$list@U_tagBROAD_CAST@@V?$allocator@U_tagBROAD_CAST@@@std@@@std@@QAE?AViterator@12@V312@@Z 00511210 f i xygament2d:xygsvr.obj
 0001:001102f0       ?erase@?$list@U_tagBROAD_CAST@@V?$allocator@U_tagBROAD_CAST@@@std@@@std@@QAE?AViterator@12@V312@0@Z 005112f0 f i xygament2d:xygsvr.obj
 0001:00110360       ?_Freenode@?$list@U_tagBROAD_CAST@@V?$allocator@U_tagBROAD_CAST@@@std@@@std@@IAEXPAU_Node@12@@Z 00511360 f i xygament2d:xygsvr.obj
 0001:001103a0       ??Diterator@?$list@U_tagBROAD_CAST@@V?$allocator@U_tagBROAD_CAST@@@std@@@std@@QBEAAU_tagBROAD_CAST@@XZ 005113a0 f i xygament2d:xygsvr.obj
 0001:001103e0       ?erase@?$list@U_tagGAME_WIN_DELAY@@V?$allocator@U_tagGAME_WIN_DELAY@@@std@@@std@@QAE?AViterator@12@V312@0@Z 005113e0 f i xygament2d:xygsvr.obj
 0001:00110450       ?_Freenode@?$list@U_tagGAME_WIN_DELAY@@V?$allocator@U_tagGAME_WIN_DELAY@@@std@@@std@@IAEXPAU_Node@12@@Z 00511450 f i xygament2d:xygsvr.obj
 0001:00110490       ?destroy@?$allocator@U_tagGAME_WIN_DELAY@@@std@@QAEXPAU_tagGAME_WIN_DELAY@@@Z 00511490 f i xygament2d:xygsvr.obj
 0001:001104d0       ??0const_iterator@?$list@U_tagGAME_WIN_DELAY@@V?$allocator@U_tagGAME_WIN_DELAY@@@std@@@std@@QAE@XZ 005114d0 f i xygament2d:xygsvr.obj
 0001:00110500       ??Eiterator@?$list@U_tagGAME_WIN_DELAY@@V?$allocator@U_tagGAME_WIN_DELAY@@@std@@@std@@QAEAAV012@XZ 00511500 f i xygament2d:xygsvr.obj
 0001:00110550       ??8iterator@?$list@U_tagGAME_WIN_DELAY@@V?$allocator@U_tagGAME_WIN_DELAY@@@std@@@std@@QBE_NABV012@@Z 00511550 f i xygament2d:xygsvr.obj
 0001:00110590       ?insert@?$vector@U_tagENTER_BKG_MB@@V?$allocator@U_tagENTER_BKG_MB@@@std@@@std@@QAEPAU_tagENTER_BKG_MB@@PAU3@ABU3@@Z 00511590 f i xygament2d:xygsvr.obj
 0001:00110600       ?erase@?$vector@U_tagENTER_BKG_MB@@V?$allocator@U_tagENTER_BKG_MB@@@std@@@std@@QAEPAU_tagENTER_BKG_MB@@PAU3@0@Z 00511600 f i xygament2d:xygsvr.obj
 0001:00110670       ?_Destroy@?$vector@U_tagENTER_BKG_MB@@V?$allocator@U_tagENTER_BKG_MB@@@std@@@std@@IAEXPAU_tagENTER_BKG_MB@@0@Z 00511670 f i xygament2d:xygsvr.obj
 0001:001106d0       ?_Charalloc@?$allocator@U_tagENTER_BKG_MB@@@std@@QAEPADI@Z 005116d0 f i xygament2d:xygsvr.obj
 0001:00110710       ?construct@?$allocator@U_tagENTER_BKG_MB@@@std@@QAEXPAU_tagENTER_BKG_MB@@ABU3@@Z 00511710 f i xygament2d:xygsvr.obj
 0001:00110750       ??0const_iterator@?$list@U_tagENTER_BKG_MB@@V?$allocator@U_tagENTER_BKG_MB@@@std@@@std@@QAE@PAU_Node@12@@Z 00511750 f i xygament2d:xygsvr.obj
 0001:00110790       ?deallocate@?$allocator@U_tagBROAD_CAST@@@std@@QAEXPAXI@Z 00511790 f i xygament2d:xygsvr.obj
 0001:001107d0       ?destroy@?$allocator@U_tagBROAD_CAST@@@std@@QAEXPAU_tagBROAD_CAST@@@Z 005117d0 f i xygament2d:xygsvr.obj
 0001:00110810       ??Eiterator@?$list@U_tagBROAD_CAST@@V?$allocator@U_tagBROAD_CAST@@@std@@@std@@QAE?AV012@H@Z 00511810 f i xygament2d:xygsvr.obj
 0001:00110860       ??9iterator@?$list@U_tagBROAD_CAST@@V?$allocator@U_tagBROAD_CAST@@@std@@@std@@QBE_NABV012@@Z 00511860 f i xygament2d:xygsvr.obj
 0001:001108b0       ?deallocate@?$allocator@U_tagGAME_WIN_DELAY@@@std@@QAEXPAXI@Z 005118b0 f i xygament2d:xygsvr.obj
 0001:001108f0       ?insert@?$vector@U_tagENTER_BKG_MB@@V?$allocator@U_tagENTER_BKG_MB@@@std@@@std@@QAEXPAU_tagENTER_BKG_MB@@IABU3@@Z 005118f0 f i xygament2d:xygsvr.obj
 0001:00110b50       ?allocate@?$allocator@U_tagENTER_BKG_MB@@@std@@QAEPAU_tagENTER_BKG_MB@@IPBX@Z 00511b50 f i xygament2d:xygsvr.obj
 0001:00110b90       ??Eiterator@?$list@U_tagBROAD_CAST@@V?$allocator@U_tagBROAD_CAST@@@std@@@std@@QAEAAV012@XZ 00511b90 f i xygament2d:xygsvr.obj
 0001:00110be0       ??8iterator@?$list@U_tagBROAD_CAST@@V?$allocator@U_tagBROAD_CAST@@@std@@@std@@QBE_NABV012@@Z 00511be0 f i xygament2d:xygsvr.obj
 0001:00110c20       ?_Ucopy@?$vector@U_tagENTER_BKG_MB@@V?$allocator@U_tagENTER_BKG_MB@@@std@@@std@@IAEPAU_tagENTER_BKG_MB@@PBU3@0PAU3@@Z 00511c20 f i xygament2d:xygsvr.obj
 0001:00110c90       ?_Ufill@?$vector@U_tagENTER_BKG_MB@@V?$allocator@U_tagENTER_BKG_MB@@@std@@@std@@IAEXPAU_tagENTER_BKG_MB@@IABU3@@Z 00511c90 f i xygament2d:xygsvr.obj
 0001:00110cf0       ?Lookup@?$CMap@HHU_tagMATCHPLAYERINFO@@AAU1@@@QBEHHAAU_tagMATCHPLAYERINFO@@@Z 00511cf0 f i xygament2d:xygsvr.obj
 0001:00110d70       ?RemoveKey@?$CMap@HHU_tagMATCHPLAYERINFO@@AAU1@@@QAEHH@Z 00511d70 f i xygament2d:xygsvr.obj
 0001:00110e30       ??0?$CMap@HHU_tagPLAYERLEVEL_EX@@U1@@@QAE@H@Z 00511e30 f i xygament2d:xygsvr.obj
 0001:00110f00       ?Lookup@?$CMap@JJHH@@QBEHJAAH@Z 00511f00 f i xygament2d:xygsvr.obj
 0001:00110f70       ??0?$CMap@HHU_tagFILTER_WORD_EX@@AAU1@@@QAE@H@Z 00511f70 f i xygament2d:xygsvr.obj
 0001:00111040       ?GetCount@?$CMap@HHPAVCTable@@PAV1@@@QBEHXZ 00512040 f i xygament2d:xygsvr.obj
 0001:00111070       ??0?$CMap@VCString@@PBDU_tagCHAT_FORBID_EX@@AAU2@@@QAE@H@Z 00512070 f i xygament2d:xygsvr.obj
 0001:00111140       ?Lookup@?$CMap@VCString@@PBDU_tagCHAT_FORBID_EX@@AAU2@@@QBEHPBDAAU_tagCHAT_FORBID_EX@@@Z 00512140 f i xygament2d:xygsvr.obj
 0001:001111c0       ?RemoveKey@?$CMap@VCString@@PBDU_tagCHAT_FORBID_EX@@AAU2@@@QAEHPBD@Z 005121c0 f i xygament2d:xygsvr.obj
 0001:00111280       ??0?$CMap@HHU_tagCHAT_FORBID_EX@@AAU1@@@QAE@H@Z 00512280 f i xygament2d:xygsvr.obj
 0001:00111350       ?Lookup@?$CMap@HHU_tagCHAT_FORBID_EX@@AAU1@@@QBEHHAAU_tagCHAT_FORBID_EX@@@Z 00512350 f i xygament2d:xygsvr.obj
 0001:001113d0       ?RemoveKey@?$CMap@HHU_tagCHAT_FORBID_EX@@AAU1@@@QAEHH@Z 005123d0 f i xygament2d:xygsvr.obj
 0001:00111490       ?Lookup@?$CMap@JJU_tagID_SOCKET@@U1@@@QBEHJAAU_tagID_SOCKET@@@Z 00512490 f i xygament2d:xygsvr.obj
 0001:00111510       ?RemoveKey@?$CMap@JJU_tagID_SOCKET@@U1@@@QAEHJ@Z 00512510 f i xygament2d:xygsvr.obj
 0001:001115d0       ??0?$CMap@HHU_tagUSER_DATA@@AAU1@@@QAE@H@Z 005125d0 f i xygament2d:xygsvr.obj
 0001:001116a0       ?RemoveKey@?$CMap@HHU_tagUSER_DATA@@AAU1@@@QAEHH@Z 005126a0 f i xygament2d:xygsvr.obj
 0001:00111760       ??0?$CMap@HHU_tagROOM_DATA@@AAU1@@@QAE@H@Z 00512760 f i xygament2d:xygsvr.obj
 0001:00111830       ?Lookup@?$CMap@HHU_tagROOM_DATA@@AAU1@@@QBEHHAAU_tagROOM_DATA@@@Z 00512830 f i xygament2d:xygsvr.obj
 0001:001118b0       ??0?$CMap@JJU_tagTOKEN_INFO@@AAU1@@@QAE@H@Z 005128b0 f i xygament2d:xygsvr.obj
 0001:00111980       ?Lookup@?$CMap@JJU_tagTOKEN_INFO@@AAU1@@@QBEHJAAU_tagTOKEN_INFO@@@Z 00512980 f i xygament2d:xygsvr.obj
 0001:00111a00       ?RemoveKey@?$CMap@JJU_tagTOKEN_INFO@@AAU1@@@QAEHJ@Z 00512a00 f i xygament2d:xygsvr.obj
 0001:00111ac0       ??0?$CMap@KKU_tagCHAIR_DATA@@AAU1@@@QAE@H@Z 00512ac0 f i xygament2d:xygsvr.obj
 0001:00111b90       ?Lookup@?$CMap@KKU_tagCHAIR_DATA@@AAU1@@@QBEHKAAU_tagCHAIR_DATA@@@Z 00512b90 f i xygament2d:xygsvr.obj
 0001:00111c10       ?RemoveKey@?$CMap@KKU_tagCHAIR_DATA@@AAU1@@@QAEHK@Z 00512c10 f i xygament2d:xygsvr.obj
 0001:00111cd0       ??0?$CMap@KKU_tagSOLO_PLAYER@@AAU1@@@QAE@H@Z 00512cd0 f i xygament2d:xygsvr.obj
 0001:00111da0       ?Lookup@?$CMap@KKU_tagSOLO_PLAYER@@AAU1@@@QBEHKAAU_tagSOLO_PLAYER@@@Z 00512da0 f i xygament2d:xygsvr.obj
 0001:00111e20       ?RemoveKey@?$CMap@KKU_tagSOLO_PLAYER@@AAU1@@@QAEHK@Z 00512e20 f i xygament2d:xygsvr.obj
 0001:00111ee0       ??0?$CMap@HHHH@@QAE@H@Z    00512ee0 f i xygament2d:xygsvr.obj
 0001:00111fb0       ?SetAt@?$CMap@HHHH@@QAEXHH@Z 00512fb0 f i xygament2d:xygsvr.obj
 0001:00112000       ?GetStartPosition@?$CMap@HHHH@@QBEPAU__POSITION@@XZ 00513000 f i xygament2d:xygsvr.obj
 0001:00112030       ?GetNextAssoc@?$CMap@HHHH@@QBEXAAPAU__POSITION@@AAH1@Z 00513030 f i xygament2d:xygsvr.obj
 0001:001121b0       ??1?$CMap@HHHH@@UAE@XZ     005131b0 f i xygament2d:xygsvr.obj
 0001:00112250       ?Serialize@?$CMap@HHHH@@UAEXAAVCArchive@@@Z 00513250 f i xygament2d:xygsvr.obj
 0001:001123a0       ?Dump@?$CMap@HHHH@@UBEXAAVCDumpContext@@@Z 005133a0 f i xygament2d:xygsvr.obj
 0001:00112480       ?AssertValid@?$CMap@HHHH@@UBEXXZ 00513480 f i xygament2d:xygsvr.obj
 0001:00112510       ?_Destroy@std@@YAXPAU_tagENTER_BKG_MB@@@Z 00513510 f i xygament2d:xygsvr.obj
 0001:00112530       ?_Destroy@std@@YAXPAU_tagGAME_WIN_DELAY@@@Z 00513530 f i xygament2d:xygsvr.obj
 0001:00112550       ?copy@std@@YAPAU_tagENTER_BKG_MB@@PAU2@00@Z 00513550 f i xygament2d:xygsvr.obj
 0001:001125a0       ?_Construct@std@@YAXPAU_tagENTER_BKG_MB@@ABU2@@Z 005135a0 f i xygament2d:xygsvr.obj
 0001:00112600       ?_Destroy@std@@YAXPAU_tagBROAD_CAST@@@Z 00513600 f i xygament2d:xygsvr.obj
 0001:00112620       ?fill@std@@YAXPAU_tagENTER_BKG_MB@@0ABU2@@Z 00513620 f i xygament2d:xygsvr.obj
 0001:00112670       ?copy_backward@std@@YAPAU_tagENTER_BKG_MB@@PAU2@00@Z 00513670 f i xygament2d:xygsvr.obj
 0001:001126c0       ?_Allocate@std@@YAPAU_tagENTER_BKG_MB@@HPAU2@@Z 005136c0 f i xygament2d:xygsvr.obj
 0001:00112710       ??_G?$CMap@HHHH@@UAEPAXI@Z 00513710 f i xygament2d:xygsvr.obj
 0001:00112710       ??_E?$CMap@HHHH@@UAEPAXI@Z 00513710 f i xygament2d:xygsvr.obj
 0001:00112760       ?FreeAssoc@?$CMap@HHU_tagMATCHPLAYERINFO@@AAU1@@@IAEXPAUCAssoc@1@@Z 00513760 f i xygament2d:xygsvr.obj
 0001:00112810       ?FreeAssoc@?$CMap@VCString@@PBDU_tagCHAT_FORBID_EX@@AAU2@@@IAEXPAUCAssoc@1@@Z 00513810 f i xygament2d:xygsvr.obj
 0001:001128c0       ?FreeAssoc@?$CMap@HHU_tagCHAT_FORBID_EX@@AAU1@@@IAEXPAUCAssoc@1@@Z 005138c0 f i xygament2d:xygsvr.obj
 0001:00112970       ?FreeAssoc@?$CMap@JJU_tagID_SOCKET@@U1@@@IAEXPAUCAssoc@1@@Z 00513970 f i xygament2d:xygsvr.obj
 0001:00112a20       ?FreeAssoc@?$CMap@HHU_tagUSER_DATA@@AAU1@@@IAEXPAUCAssoc@1@@Z 00513a20 f i xygament2d:xygsvr.obj
 0001:00112ad0       ?FreeAssoc@?$CMap@JJU_tagTOKEN_INFO@@AAU1@@@IAEXPAUCAssoc@1@@Z 00513ad0 f i xygament2d:xygsvr.obj
 0001:00112b80       ?FreeAssoc@?$CMap@KKU_tagCHAIR_DATA@@AAU1@@@IAEXPAUCAssoc@1@@Z 00513b80 f i xygament2d:xygsvr.obj
 0001:00112c30       ?FreeAssoc@?$CMap@KKU_tagSOLO_PLAYER@@AAU1@@@IAEXPAUCAssoc@1@@Z 00513c30 f i xygament2d:xygsvr.obj
 0001:00112ce0       ??A?$CMap@HHHH@@QAEAAHH@Z  00513ce0 f i xygament2d:xygsvr.obj
 0001:00112da0       ?RemoveAll@?$CMap@HHHH@@QAEXXZ 00513da0 f i xygament2d:xygsvr.obj
 0001:00112e90       ?InitHashTable@?$CMap@HHHH@@QAEXIH@Z 00513e90 f i xygament2d:xygsvr.obj
 0001:00112f90       ?NewAssoc@?$CMap@HHHH@@IAEPAUCAssoc@1@XZ 00513f90 f i xygament2d:xygsvr.obj
 0001:001130d0       ?GetAssocAt@?$CMap@HHHH@@IBEPAUCAssoc@1@HAAI@Z 005140d0 f i xygament2d:xygsvr.obj
 0001:00113170       ??0?$CMap@JJHH@@QAE@H@Z    00514170 f i xygament2d:xygsvr.obj
 0001:00113240       ??1?$CMap@JJHH@@UAE@XZ     00514240 f i xygament2d:xygsvr.obj
 0001:001132e0       ?Serialize@?$CMap@JJHH@@UAEXAAVCArchive@@@Z 005142e0 f i xygament2d:xygsvr.obj
 0001:00113430       ?Dump@?$CMap@JJHH@@UBEXAAVCDumpContext@@@Z 00514430 f i xygament2d:xygsvr.obj
 0001:00113510       ?AssertValid@?$CMap@JJHH@@UBEXXZ 00514510 f i xygament2d:xygsvr.obj
 0001:001135a0       ??0?$CMap@JJU_tagID_SOCKET@@U1@@@QAE@H@Z 005145a0 f i xygament2d:xygsvr.obj
 0001:00113670       ??1?$CMap@JJU_tagID_SOCKET@@U1@@@UAE@XZ 00514670 f i xygament2d:xygsvr.obj
 0001:00113710       ?Serialize@?$CMap@JJU_tagID_SOCKET@@U1@@@UAEXAAVCArchive@@@Z 00514710 f i xygament2d:xygsvr.obj
 0001:00113870       ?Dump@?$CMap@JJU_tagID_SOCKET@@U1@@@UBEXAAVCDumpContext@@@Z 00514870 f i xygament2d:xygsvr.obj
 0001:00113950       ?AssertValid@?$CMap@JJU_tagID_SOCKET@@U1@@@UBEXXZ 00514950 f i xygament2d:xygsvr.obj
 0001:001139e0       ??0?$CMap@HHPAVCRoom@@PAV1@@@QAE@H@Z 005149e0 f i xygament2d:xygsvr.obj
 0001:00113ab0       ??1?$CMap@HHPAVCRoom@@PAV1@@@UAE@XZ 00514ab0 f i xygament2d:xygsvr.obj
 0001:00113b50       ?Serialize@?$CMap@HHPAVCRoom@@PAV1@@@UAEXAAVCArchive@@@Z 00514b50 f i xygament2d:xygsvr.obj
 0001:00113ca0       ?Dump@?$CMap@HHPAVCRoom@@PAV1@@@UBEXAAVCDumpContext@@@Z 00514ca0 f i xygament2d:xygsvr.obj
 0001:00113d80       ?AssertValid@?$CMap@HHPAVCRoom@@PAV1@@@UBEXXZ 00514d80 f i xygament2d:xygsvr.obj
 0001:00113e10       ??1?$CMap@HHU_tagPLAYERLEVEL_EX@@U1@@@UAE@XZ 00514e10 f i xygament2d:xygsvr.obj
 0001:00113eb0       ?Serialize@?$CMap@HHU_tagPLAYERLEVEL_EX@@U1@@@UAEXAAVCArchive@@@Z 00514eb0 f i xygament2d:xygsvr.obj
 0001:00114010       ?Dump@?$CMap@HHU_tagPLAYERLEVEL_EX@@U1@@@UBEXAAVCDumpContext@@@Z 00515010 f i xygament2d:xygsvr.obj
 0001:001140f0       ?AssertValid@?$CMap@HHU_tagPLAYERLEVEL_EX@@U1@@@UBEXXZ 005150f0 f i xygament2d:xygsvr.obj
 0001:00114180       ??1?$CMap@HHU_tagFILTER_WORD_EX@@AAU1@@@UAE@XZ 00515180 f i xygament2d:xygsvr.obj
 0001:00114220       ?Serialize@?$CMap@HHU_tagFILTER_WORD_EX@@AAU1@@@UAEXAAVCArchive@@@Z 00515220 f i xygament2d:xygsvr.obj
 0001:00114380       ?Dump@?$CMap@HHU_tagFILTER_WORD_EX@@AAU1@@@UBEXAAVCDumpContext@@@Z 00515380 f i xygament2d:xygsvr.obj
 0001:00114460       ?AssertValid@?$CMap@HHU_tagFILTER_WORD_EX@@AAU1@@@UBEXXZ 00515460 f i xygament2d:xygsvr.obj
 0001:001144f0       ??1?$CMap@VCString@@PBDU_tagCHAT_FORBID_EX@@AAU2@@@UAE@XZ 005154f0 f i xygament2d:xygsvr.obj
 0001:00114590       ?Serialize@?$CMap@VCString@@PBDU_tagCHAT_FORBID_EX@@AAU2@@@UAEXAAVCArchive@@@Z 00515590 f i xygament2d:xygsvr.obj
 0001:00114730       ?Dump@?$CMap@VCString@@PBDU_tagCHAT_FORBID_EX@@AAU2@@@UBEXAAVCDumpContext@@@Z 00515730 f i xygament2d:xygsvr.obj
 0001:00114860       ?AssertValid@?$CMap@VCString@@PBDU_tagCHAT_FORBID_EX@@AAU2@@@UBEXXZ 00515860 f i xygament2d:xygsvr.obj
 0001:001148f0       ??1?$CMap@HHU_tagCHAT_FORBID_EX@@AAU1@@@UAE@XZ 005158f0 f i xygament2d:xygsvr.obj
 0001:00114990       ?Serialize@?$CMap@HHU_tagCHAT_FORBID_EX@@AAU1@@@UAEXAAVCArchive@@@Z 00515990 f i xygament2d:xygsvr.obj
 0001:00114af0       ?Dump@?$CMap@HHU_tagCHAT_FORBID_EX@@AAU1@@@UBEXAAVCDumpContext@@@Z 00515af0 f i xygament2d:xygsvr.obj
 0001:00114be0       ?AssertValid@?$CMap@HHU_tagCHAT_FORBID_EX@@AAU1@@@UBEXXZ 00515be0 f i xygament2d:xygsvr.obj
 0001:00114c70       ??1?$CMap@HHU_tagUSER_DATA@@AAU1@@@UAE@XZ 00515c70 f i xygament2d:xygsvr.obj
 0001:00114d10       ?Serialize@?$CMap@HHU_tagUSER_DATA@@AAU1@@@UAEXAAVCArchive@@@Z 00515d10 f i xygament2d:xygsvr.obj
 0001:00114e70       ?Dump@?$CMap@HHU_tagUSER_DATA@@AAU1@@@UBEXAAVCDumpContext@@@Z 00515e70 f i xygament2d:xygsvr.obj
 0001:00114f70       ?AssertValid@?$CMap@HHU_tagUSER_DATA@@AAU1@@@UBEXXZ 00515f70 f i xygament2d:xygsvr.obj
 0001:00115000       ??1?$CMap@JJU_tagTOKEN_INFO@@AAU1@@@UAE@XZ 00516000 f i xygament2d:xygsvr.obj
 0001:001150a0       ?Serialize@?$CMap@JJU_tagTOKEN_INFO@@AAU1@@@UAEXAAVCArchive@@@Z 005160a0 f i xygament2d:xygsvr.obj
 0001:001151f0       ?Dump@?$CMap@JJU_tagTOKEN_INFO@@AAU1@@@UBEXAAVCDumpContext@@@Z 005161f0 f i xygament2d:xygsvr.obj
 0001:001152d0       ?AssertValid@?$CMap@JJU_tagTOKEN_INFO@@AAU1@@@UBEXXZ 005162d0 f i xygament2d:xygsvr.obj
 0001:00115360       ??1?$CMap@KKU_tagCHAIR_DATA@@AAU1@@@UAE@XZ 00516360 f i xygament2d:xygsvr.obj
 0001:00115400       ?Serialize@?$CMap@KKU_tagCHAIR_DATA@@AAU1@@@UAEXAAVCArchive@@@Z 00516400 f i xygament2d:xygsvr.obj
 0001:00115550       ?Dump@?$CMap@KKU_tagCHAIR_DATA@@AAU1@@@UBEXAAVCDumpContext@@@Z 00516550 f i xygament2d:xygsvr.obj
 0001:00115630       ?AssertValid@?$CMap@KKU_tagCHAIR_DATA@@AAU1@@@UBEXXZ 00516630 f i xygament2d:xygsvr.obj
 0001:001156c0       ??1?$CMap@HHU_tagROOM_DATA@@AAU1@@@UAE@XZ 005166c0 f i xygament2d:xygsvr.obj
 0001:00115760       ?Serialize@?$CMap@HHU_tagROOM_DATA@@AAU1@@@UAEXAAVCArchive@@@Z 00516760 f i xygament2d:xygsvr.obj
 0001:001158c0       ?Dump@?$CMap@HHU_tagROOM_DATA@@AAU1@@@UBEXAAVCDumpContext@@@Z 005168c0 f i xygament2d:xygsvr.obj
 0001:001159b0       ?AssertValid@?$CMap@HHU_tagROOM_DATA@@AAU1@@@UBEXXZ 005169b0 f i xygament2d:xygsvr.obj
 0001:00115a40       ??1?$CMap@KKU_tagSOLO_PLAYER@@AAU1@@@UAE@XZ 00516a40 f i xygament2d:xygsvr.obj
 0001:00115ae0       ?Serialize@?$CMap@KKU_tagSOLO_PLAYER@@AAU1@@@UAEXAAVCArchive@@@Z 00516ae0 f i xygament2d:xygsvr.obj
 0001:00115c40       ?Dump@?$CMap@KKU_tagSOLO_PLAYER@@AAU1@@@UBEXAAVCDumpContext@@@Z 00516c40 f i xygament2d:xygsvr.obj
 0001:00115d40       ?AssertValid@?$CMap@KKU_tagSOLO_PLAYER@@AAU1@@@UBEXXZ 00516d40 f i xygament2d:xygsvr.obj
 0001:00115dd0       ??_G?$CMap@JJHH@@UAEPAXI@Z 00516dd0 f i xygament2d:xygsvr.obj
 0001:00115dd0       ??_E?$CMap@JJHH@@UAEPAXI@Z 00516dd0 f i xygament2d:xygsvr.obj
 0001:00115e20       ??_G?$CMap@JJU_tagID_SOCKET@@U1@@@UAEPAXI@Z 00516e20 f i xygament2d:xygsvr.obj
 0001:00115e20       ??_E?$CMap@JJU_tagID_SOCKET@@U1@@@UAEPAXI@Z 00516e20 f i xygament2d:xygsvr.obj
 0001:00115e70       ??_E?$CMap@HHPAVCRoom@@PAV1@@@UAEPAXI@Z 00516e70 f i xygament2d:xygsvr.obj
 0001:00115e70       ??_G?$CMap@HHPAVCRoom@@PAV1@@@UAEPAXI@Z 00516e70 f i xygament2d:xygsvr.obj
 0001:00115ec0       ??_E?$CMap@HHU_tagPLAYERLEVEL_EX@@U1@@@UAEPAXI@Z 00516ec0 f i xygament2d:xygsvr.obj
 0001:00115ec0       ??_G?$CMap@HHU_tagPLAYERLEVEL_EX@@U1@@@UAEPAXI@Z 00516ec0 f i xygament2d:xygsvr.obj
 0001:00115f10       ??_E?$CMap@HHU_tagFILTER_WORD_EX@@AAU1@@@UAEPAXI@Z 00516f10 f i xygament2d:xygsvr.obj
 0001:00115f10       ??_G?$CMap@HHU_tagFILTER_WORD_EX@@AAU1@@@UAEPAXI@Z 00516f10 f i xygament2d:xygsvr.obj
 0001:00115f60       ??_G?$CMap@VCString@@PBDU_tagCHAT_FORBID_EX@@AAU2@@@UAEPAXI@Z 00516f60 f i xygament2d:xygsvr.obj
 0001:00115f60       ??_E?$CMap@VCString@@PBDU_tagCHAT_FORBID_EX@@AAU2@@@UAEPAXI@Z 00516f60 f i xygament2d:xygsvr.obj
 0001:00115fb0       ??_G?$CMap@HHU_tagCHAT_FORBID_EX@@AAU1@@@UAEPAXI@Z 00516fb0 f i xygament2d:xygsvr.obj
 0001:00115fb0       ??_E?$CMap@HHU_tagCHAT_FORBID_EX@@AAU1@@@UAEPAXI@Z 00516fb0 f i xygament2d:xygsvr.obj
 0001:00116000       ??_G?$CMap@HHU_tagUSER_DATA@@AAU1@@@UAEPAXI@Z 00517000 f i xygament2d:xygsvr.obj
 0001:00116000       ??_E?$CMap@HHU_tagUSER_DATA@@AAU1@@@UAEPAXI@Z 00517000 f i xygament2d:xygsvr.obj
 0001:00116050       ??_E?$CMap@JJU_tagTOKEN_INFO@@AAU1@@@UAEPAXI@Z 00517050 f i xygament2d:xygsvr.obj
 0001:00116050       ??_G?$CMap@JJU_tagTOKEN_INFO@@AAU1@@@UAEPAXI@Z 00517050 f i xygament2d:xygsvr.obj
 0001:001160a0       ??_E?$CMap@KKU_tagCHAIR_DATA@@AAU1@@@UAEPAXI@Z 005170a0 f i xygament2d:xygsvr.obj
 0001:001160a0       ??_G?$CMap@KKU_tagCHAIR_DATA@@AAU1@@@UAEPAXI@Z 005170a0 f i xygament2d:xygsvr.obj
 0001:001160f0       ??_E?$CMap@HHU_tagROOM_DATA@@AAU1@@@UAEPAXI@Z 005170f0 f i xygament2d:xygsvr.obj
 0001:001160f0       ??_G?$CMap@HHU_tagROOM_DATA@@AAU1@@@UAEPAXI@Z 005170f0 f i xygament2d:xygsvr.obj
 0001:00116140       ??_G?$CMap@KKU_tagSOLO_PLAYER@@AAU1@@@UAEPAXI@Z 00517140 f i xygament2d:xygsvr.obj
 0001:00116140       ??_E?$CMap@KKU_tagSOLO_PLAYER@@AAU1@@@UAEPAXI@Z 00517140 f i xygament2d:xygsvr.obj
 0001:00116190       ?RemoveAll@?$CMap@JJHH@@QAEXXZ 00517190 f i xygament2d:xygsvr.obj
 0001:00116280       ?GetStartPosition@?$CMap@JJHH@@QBEPAU__POSITION@@XZ 00517280 f i xygament2d:xygsvr.obj
 0001:001162b0       ?GetNextAssoc@?$CMap@JJHH@@QBEXAAPAU__POSITION@@AAJAAH@Z 005172b0 f i xygament2d:xygsvr.obj
 0001:00116430       ?SerializeElements@@YGXAAVCArchive@@PAJH@Z 00517430 f i xygament2d:xygsvr.obj
 0001:001164d0       ?DumpElements@@YGXAAVCDumpContext@@PBJH@Z 005174d0 f i xygament2d:xygsvr.obj
 0001:00116530       ?RemoveAll@?$CMap@JJU_tagID_SOCKET@@U1@@@QAEXXZ 00517530 f i xygament2d:xygsvr.obj
 0001:00116620       ?SerializeElements@@YGXAAVCArchive@@PAU_tagID_SOCKET@@H@Z 00517620 f i xygament2d:xygsvr.obj
 0001:001166c0       ?DumpElements@@YGXAAVCDumpContext@@PBU_tagID_SOCKET@@H@Z 005176c0 f i xygament2d:xygsvr.obj
 0001:00116720       ?RemoveAll@?$CMap@HHPAVCRoom@@PAV1@@@QAEXXZ 00517720 f i xygament2d:xygsvr.obj
 0001:00116810       ?GetStartPosition@?$CMap@HHPAVCRoom@@PAV1@@@QBEPAU__POSITION@@XZ 00517810 f i xygament2d:xygsvr.obj
 0001:00116840       ?GetNextAssoc@?$CMap@HHPAVCRoom@@PAV1@@@QBEXAAPAU__POSITION@@AAHAAPAVCRoom@@@Z 00517840 f i xygament2d:xygsvr.obj
 0001:001169c0       ?SerializeElements@@YGXAAVCArchive@@PAPAVCRoom@@H@Z 005179c0 f i xygament2d:xygsvr.obj
 0001:00116a60       ?DumpElements@@YGXAAVCDumpContext@@PBQAVCRoom@@H@Z 00517a60 f i xygament2d:xygsvr.obj
 0001:00116ac0       ?RemoveAll@?$CMap@HHU_tagPLAYERLEVEL_EX@@U1@@@QAEXXZ 00517ac0 f i xygament2d:xygsvr.obj
 0001:00116bb0       ?GetStartPosition@?$CMap@HHU_tagPLAYERLEVEL_EX@@U1@@@QBEPAU__POSITION@@XZ 00517bb0 f i xygament2d:xygsvr.obj
 0001:00116be0       ?GetNextAssoc@?$CMap@HHU_tagPLAYERLEVEL_EX@@U1@@@QBEXAAPAU__POSITION@@AAHAAU_tagPLAYERLEVEL_EX@@@Z 00517be0 f i xygament2d:xygsvr.obj
 0001:00116d70       ?SerializeElements@@YGXAAVCArchive@@PAU_tagPLAYERLEVEL_EX@@H@Z 00517d70 f i xygament2d:xygsvr.obj
 0001:00116e10       ?DumpElements@@YGXAAVCDumpContext@@PBU_tagPLAYERLEVEL_EX@@H@Z 00517e10 f i xygament2d:xygsvr.obj
 0001:00116e70       ?GetStartPosition@?$CMap@HHU_tagFILTER_WORD_EX@@AAU1@@@QBEPAU__POSITION@@XZ 00517e70 f i xygament2d:xygsvr.obj
 0001:00116ea0       ?GetNextAssoc@?$CMap@HHU_tagFILTER_WORD_EX@@AAU1@@@QBEXAAPAU__POSITION@@AAHAAU_tagFILTER_WORD_EX@@@Z 00517ea0 f i xygament2d:xygsvr.obj
 0001:00117030       ?SerializeElements@@YGXAAVCArchive@@PAU_tagFILTER_WORD_EX@@H@Z 00518030 f i xygament2d:xygsvr.obj
 0001:001170d0       ?DumpElements@@YGXAAVCDumpContext@@PBU_tagFILTER_WORD_EX@@H@Z 005180d0 f i xygament2d:xygsvr.obj
 0001:00117130       ?SetAt@?$CMap@VCString@@PBDU_tagCHAT_FORBID_EX@@AAU2@@@QAEXPBDAAU_tagCHAT_FORBID_EX@@@Z 00518130 f i xygament2d:xygsvr.obj
 0001:00117180       ?RemoveAll@?$CMap@VCString@@PBDU_tagCHAT_FORBID_EX@@AAU2@@@QAEXXZ 00518180 f i xygament2d:xygsvr.obj
 0001:00117270       ?GetStartPosition@?$CMap@VCString@@PBDU_tagCHAT_FORBID_EX@@AAU2@@@QBEPAU__POSITION@@XZ 00518270 f i xygament2d:xygsvr.obj
 0001:001172a0       ?GetNextAssoc@?$CMap@VCString@@PBDU_tagCHAT_FORBID_EX@@AAU2@@@QBEXAAPAU__POSITION@@AAVCString@@AAU_tagCHAT_FORBID_EX@@@Z 005182a0 f i xygament2d:xygsvr.obj
 0001:00117430       ?SerializeElements@@YGXAAVCArchive@@PAU_tagCHAT_FORBID_EX@@H@Z 00518430 f i xygament2d:xygsvr.obj
 0001:001174d0       ?DumpElements@@YGXAAVCDumpContext@@PBVCString@@H@Z 005184d0 f i xygament2d:xygsvr.obj
 0001:00117530       ?DumpElements@@YGXAAVCDumpContext@@PBU_tagCHAT_FORBID_EX@@H@Z 00518530 f i xygament2d:xygsvr.obj
 0001:00117590       ?SetAt@?$CMap@HHU_tagCHAT_FORBID_EX@@AAU1@@@QAEXHAAU_tagCHAT_FORBID_EX@@@Z 00518590 f i xygament2d:xygsvr.obj
 0001:001175e0       ?RemoveAll@?$CMap@HHU_tagCHAT_FORBID_EX@@AAU1@@@QAEXXZ 005185e0 f i xygament2d:xygsvr.obj
 0001:001176d0       ?GetStartPosition@?$CMap@HHU_tagCHAT_FORBID_EX@@AAU1@@@QBEPAU__POSITION@@XZ 005186d0 f i xygament2d:xygsvr.obj
 0001:00117700       ?GetNextAssoc@?$CMap@HHU_tagCHAT_FORBID_EX@@AAU1@@@QBEXAAPAU__POSITION@@AAHAAU_tagCHAT_FORBID_EX@@@Z 00518700 f i xygament2d:xygsvr.obj
 0001:00117890       ?RemoveAll@?$CMap@HHU_tagUSER_DATA@@AAU1@@@QAEXXZ 00518890 f i xygament2d:xygsvr.obj
 0001:00117980       ?GetStartPosition@?$CMap@HHU_tagUSER_DATA@@AAU1@@@QBEPAU__POSITION@@XZ 00518980 f i xygament2d:xygsvr.obj
 0001:001179b0       ?GetNextAssoc@?$CMap@HHU_tagUSER_DATA@@AAU1@@@QBEXAAPAU__POSITION@@AAHAAU_tagUSER_DATA@@@Z 005189b0 f i xygament2d:xygsvr.obj
 0001:00117b40       ?SerializeElements@@YGXAAVCArchive@@PAU_tagUSER_DATA@@H@Z 00518b40 f i xygament2d:xygsvr.obj
 0001:00117be0       ?DumpElements@@YGXAAVCDumpContext@@PBU_tagUSER_DATA@@H@Z 00518be0 f i xygament2d:xygsvr.obj
 0001:00117c50       ?SetAt@?$CMap@JJU_tagTOKEN_INFO@@AAU1@@@QAEXJAAU_tagTOKEN_INFO@@@Z 00518c50 f i xygament2d:xygsvr.obj
 0001:00117ca0       ?RemoveAll@?$CMap@JJU_tagTOKEN_INFO@@AAU1@@@QAEXXZ 00518ca0 f i xygament2d:xygsvr.obj
 0001:00117d90       ?GetStartPosition@?$CMap@JJU_tagTOKEN_INFO@@AAU1@@@QBEPAU__POSITION@@XZ 00518d90 f i xygament2d:xygsvr.obj
 0001:00117dc0       ?GetNextAssoc@?$CMap@JJU_tagTOKEN_INFO@@AAU1@@@QBEXAAPAU__POSITION@@AAJAAU_tagTOKEN_INFO@@@Z 00518dc0 f i xygament2d:xygsvr.obj
 0001:00117f50       ?SerializeElements@@YGXAAVCArchive@@PAU_tagTOKEN_INFO@@H@Z 00518f50 f i xygament2d:xygsvr.obj
 0001:00117ff0       ?DumpElements@@YGXAAVCDumpContext@@PBU_tagTOKEN_INFO@@H@Z 00518ff0 f i xygament2d:xygsvr.obj
 0001:00118050       ?SetAt@?$CMap@KKU_tagCHAIR_DATA@@AAU1@@@QAEXKAAU_tagCHAIR_DATA@@@Z 00519050 f i xygament2d:xygsvr.obj
 0001:001180a0       ?RemoveAll@?$CMap@KKU_tagCHAIR_DATA@@AAU1@@@QAEXXZ 005190a0 f i xygament2d:xygsvr.obj
 0001:00118190       ?GetStartPosition@?$CMap@KKU_tagCHAIR_DATA@@AAU1@@@QBEPAU__POSITION@@XZ 00519190 f i xygament2d:xygsvr.obj
 0001:001181c0       ?GetNextAssoc@?$CMap@KKU_tagCHAIR_DATA@@AAU1@@@QBEXAAPAU__POSITION@@AAKAAU_tagCHAIR_DATA@@@Z 005191c0 f i xygament2d:xygsvr.obj
 0001:00118350       ?SerializeElements@@YGXAAVCArchive@@PAU_tagCHAIR_DATA@@H@Z 00519350 f i xygament2d:xygsvr.obj
 0001:001183f0       ?DumpElements@@YGXAAVCDumpContext@@PBU_tagCHAIR_DATA@@H@Z 005193f0 f i xygament2d:xygsvr.obj
 0001:00118450       ?SetAt@?$CMap@HHU_tagROOM_DATA@@AAU1@@@QAEXHAAU_tagROOM_DATA@@@Z 00519450 f i xygament2d:xygsvr.obj
 0001:001184a0       ?RemoveAll@?$CMap@HHU_tagROOM_DATA@@AAU1@@@QAEXXZ 005194a0 f i xygament2d:xygsvr.obj
 0001:00118590       ?GetStartPosition@?$CMap@HHU_tagROOM_DATA@@AAU1@@@QBEPAU__POSITION@@XZ 00519590 f i xygament2d:xygsvr.obj
 0001:001185c0       ?GetNextAssoc@?$CMap@HHU_tagROOM_DATA@@AAU1@@@QBEXAAPAU__POSITION@@AAHAAU_tagROOM_DATA@@@Z 005195c0 f i xygament2d:xygsvr.obj
 0001:00118750       ?SerializeElements@@YGXAAVCArchive@@PAU_tagROOM_DATA@@H@Z 00519750 f i xygament2d:xygsvr.obj
 0001:001187f0       ?DumpElements@@YGXAAVCDumpContext@@PBU_tagROOM_DATA@@H@Z 005197f0 f i xygament2d:xygsvr.obj
 0001:00118850       ?SetAt@?$CMap@KKU_tagSOLO_PLAYER@@AAU1@@@QAEXKAAU_tagSOLO_PLAYER@@@Z 00519850 f i xygament2d:xygsvr.obj
 0001:001188a0       ?RemoveAll@?$CMap@KKU_tagSOLO_PLAYER@@AAU1@@@QAEXXZ 005198a0 f i xygament2d:xygsvr.obj
 0001:00118990       ?GetStartPosition@?$CMap@KKU_tagSOLO_PLAYER@@AAU1@@@QBEPAU__POSITION@@XZ 00519990 f i xygament2d:xygsvr.obj
 0001:001189c0       ?GetNextAssoc@?$CMap@KKU_tagSOLO_PLAYER@@AAU1@@@QBEXAAPAU__POSITION@@AAKAAU_tagSOLO_PLAYER@@@Z 005199c0 f i xygament2d:xygsvr.obj
 0001:00118b50       ?SerializeElements@@YGXAAVCArchive@@PAU_tagSOLO_PLAYER@@H@Z 00519b50 f i xygament2d:xygsvr.obj
 0001:00118bf0       ?DumpElements@@YGXAAVCDumpContext@@PBU_tagSOLO_PLAYER@@H@Z 00519bf0 f i xygament2d:xygsvr.obj
 0001:00118c60       ?DestructElements@@YGXPAJH@Z 00519c60 f i xygament2d:xygsvr.obj
 0001:00118ce0       ?DestructElements@@YGXPAU_tagID_SOCKET@@H@Z 00519ce0 f i xygament2d:xygsvr.obj
 0001:00118d60       ?DestructElements@@YGXPAPAVCRoom@@H@Z 00519d60 f i xygament2d:xygsvr.obj
 0001:00118de0       ?DestructElements@@YGXPAU_tagPLAYERLEVEL_EX@@H@Z 00519de0 f i xygament2d:xygsvr.obj
 0001:00118e60       ??A?$CMap@VCString@@PBDU_tagCHAT_FORBID_EX@@AAU2@@@QAEAAU_tagCHAT_FORBID_EX@@PBD@Z 00519e60 f i xygament2d:xygsvr.obj
 0001:00118f20       ?DestructElements@@YGXPAU_tagCHAT_FORBID_EX@@H@Z 00519f20 f i xygament2d:xygsvr.obj
 0001:00118fa0       ??A?$CMap@HHU_tagCHAT_FORBID_EX@@AAU1@@@QAEAAU_tagCHAT_FORBID_EX@@H@Z 00519fa0 f i xygament2d:xygsvr.obj
 0001:00119060       ?DestructElements@@YGXPAU_tagUSER_DATA@@H@Z 0051a060 f i xygament2d:xygsvr.obj
 0001:001190e0       ??A?$CMap@JJU_tagTOKEN_INFO@@AAU1@@@QAEAAU_tagTOKEN_INFO@@J@Z 0051a0e0 f i xygament2d:xygsvr.obj
 0001:001191a0       ?DestructElements@@YGXPAU_tagTOKEN_INFO@@H@Z 0051a1a0 f i xygament2d:xygsvr.obj
 0001:00119220       ??A?$CMap@KKU_tagCHAIR_DATA@@AAU1@@@QAEAAU_tagCHAIR_DATA@@K@Z 0051a220 f i xygament2d:xygsvr.obj
 0001:001192e0       ?DestructElements@@YGXPAU_tagCHAIR_DATA@@H@Z 0051a2e0 f i xygament2d:xygsvr.obj
 0001:00119360       ??A?$CMap@HHU_tagROOM_DATA@@AAU1@@@QAEAAU_tagROOM_DATA@@H@Z 0051a360 f i xygament2d:xygsvr.obj
 0001:00119420       ?DestructElements@@YGXPAU_tagROOM_DATA@@H@Z 0051a420 f i xygament2d:xygsvr.obj
 0001:001194a0       ??A?$CMap@KKU_tagSOLO_PLAYER@@AAU1@@@QAEAAU_tagSOLO_PLAYER@@K@Z 0051a4a0 f i xygament2d:xygsvr.obj
 0001:00119560       ?DestructElements@@YGXPAU_tagSOLO_PLAYER@@H@Z 0051a560 f i xygament2d:xygsvr.obj
 0001:001195e0       ?InitHashTable@?$CMap@VCString@@PBDU_tagCHAT_FORBID_EX@@AAU2@@@QAEXIH@Z 0051a5e0 f i xygament2d:xygsvr.obj
 0001:001196e0       ?NewAssoc@?$CMap@VCString@@PBDU_tagCHAT_FORBID_EX@@AAU2@@@IAEPAUCAssoc@1@XZ 0051a6e0 f i xygament2d:xygsvr.obj
 0001:00119820       ?GetAssocAt@?$CMap@VCString@@PBDU_tagCHAT_FORBID_EX@@AAU2@@@IBEPAUCAssoc@1@PBDAAI@Z 0051a820 f i xygament2d:xygsvr.obj
 0001:001198c0       ?InitHashTable@?$CMap@HHU_tagCHAT_FORBID_EX@@AAU1@@@QAEXIH@Z 0051a8c0 f i xygament2d:xygsvr.obj
 0001:001199c0       ?NewAssoc@?$CMap@HHU_tagCHAT_FORBID_EX@@AAU1@@@IAEPAUCAssoc@1@XZ 0051a9c0 f i xygament2d:xygsvr.obj
 0001:00119b00       ?GetAssocAt@?$CMap@HHU_tagCHAT_FORBID_EX@@AAU1@@@IBEPAUCAssoc@1@HAAI@Z 0051ab00 f i xygament2d:xygsvr.obj
 0001:00119ba0       ?InitHashTable@?$CMap@JJU_tagTOKEN_INFO@@AAU1@@@QAEXIH@Z 0051aba0 f i xygament2d:xygsvr.obj
 0001:00119ca0       ?NewAssoc@?$CMap@JJU_tagTOKEN_INFO@@AAU1@@@IAEPAUCAssoc@1@XZ 0051aca0 f i xygament2d:xygsvr.obj
 0001:00119de0       ?GetAssocAt@?$CMap@JJU_tagTOKEN_INFO@@AAU1@@@IBEPAUCAssoc@1@JAAI@Z 0051ade0 f i xygament2d:xygsvr.obj
 0001:00119e80       ?InitHashTable@?$CMap@KKU_tagCHAIR_DATA@@AAU1@@@QAEXIH@Z 0051ae80 f i xygament2d:xygsvr.obj
 0001:00119f80       ?NewAssoc@?$CMap@KKU_tagCHAIR_DATA@@AAU1@@@IAEPAUCAssoc@1@XZ 0051af80 f i xygament2d:xygsvr.obj
 0001:0011a0c0       ?GetAssocAt@?$CMap@KKU_tagCHAIR_DATA@@AAU1@@@IBEPAUCAssoc@1@KAAI@Z 0051b0c0 f i xygament2d:xygsvr.obj
 0001:0011a160       ?InitHashTable@?$CMap@HHU_tagROOM_DATA@@AAU1@@@QAEXIH@Z 0051b160 f i xygament2d:xygsvr.obj
 0001:0011a260       ?NewAssoc@?$CMap@HHU_tagROOM_DATA@@AAU1@@@IAEPAUCAssoc@1@XZ 0051b260 f i xygament2d:xygsvr.obj
 0001:0011a3a0       ?GetAssocAt@?$CMap@HHU_tagROOM_DATA@@AAU1@@@IBEPAUCAssoc@1@HAAI@Z 0051b3a0 f i xygament2d:xygsvr.obj
 0001:0011a440       ?InitHashTable@?$CMap@KKU_tagSOLO_PLAYER@@AAU1@@@QAEXIH@Z 0051b440 f i xygament2d:xygsvr.obj
 0001:0011a540       ?NewAssoc@?$CMap@KKU_tagSOLO_PLAYER@@AAU1@@@IAEPAUCAssoc@1@XZ 0051b540 f i xygament2d:xygsvr.obj
 0001:0011a680       ?GetAssocAt@?$CMap@KKU_tagSOLO_PLAYER@@AAU1@@@IBEPAUCAssoc@1@KAAI@Z 0051b680 f i xygament2d:xygsvr.obj
 0001:0011a720       ?ConstructElements@@YGXPAU_tagCHAT_FORBID_EX@@H@Z 0051b720 f i xygament2d:xygsvr.obj
 0001:0011a7d0       ?CompareElements@@YGHPBVCString@@PBQBD@Z 0051b7d0 f i xygament2d:xygsvr.obj
 0001:0011a860       ?ConstructElements@@YGXPAU_tagTOKEN_INFO@@H@Z 0051b860 f i xygament2d:xygsvr.obj
 0001:0011a910       ?ConstructElements@@YGXPAU_tagCHAIR_DATA@@H@Z 0051b910 f i xygament2d:xygsvr.obj
 0001:0011a9c0       ?ConstructElements@@YGXPAU_tagROOM_DATA@@H@Z 0051b9c0 f i xygament2d:xygsvr.obj
 0001:0011aa70       ?ConstructElements@@YGXPAU_tagSOLO_PLAYER@@H@Z 0051ba70 f i xygament2d:xygsvr.obj
 0001:0011ab20       ?InitRoomData@@YAXAAU_tagROOM_DATA@@@Z 0051bb20 f   xygament2d:xygsocks.obj
 0001:0011ab90       ?MakeRoomTableChair@@YAKHHH@Z 0051bb90 f   xygament2d:xygsocks.obj
 0001:0011ac70       ?ParseRoomTableChair@@YAXKAAH00@Z 0051bc70 f   xygament2d:xygsocks.obj
 0001:0011ad50       ?MakeTableChairStatus@@YAKHQAHH@Z 0051bd50 f   xygament2d:xygsocks.obj
 0001:0011ade0       ?ParseTableChairStatus@@YAXKAAHQAHH@Z 0051bde0 f   xygament2d:xygsocks.obj
 0001:0011ae90       ?Shutdown@CSockServer@@UAEXXZ 0051be90 f   xygament2d:xygsocks.obj
 0001:0011aee0       ?OnWorkerStart@CSockServer@@MAEPAXXZ 0051bee0 f   xygament2d:xygsocks.obj
 0001:0011aff0       ??0CWorkerContext@@QAE@XZ  0051bff0 f i xygament2d:xygsocks.obj
 0001:0011b030       ?OnWorkerExit@CSockServer@@MAEXPAX@Z 0051c030 f   xygament2d:xygsocks.obj
 0001:0011b0b0       ??_GCWorkerContext@@QAEPAXI@Z 0051c0b0 f i xygament2d:xygsocks.obj
 0001:0011b110       ??1CWorkerContext@@QAE@XZ  0051c110 f i xygament2d:xygsocks.obj
 0001:0011b150       ?OnRequest@CSockServer@@MAEHPAX0@Z 0051c150 f   xygament2d:xygsocks.obj
 0001:0011b330       ?OnUnsupported@CSockServer@@MAEHPAU_tagCONTEXT_HEAD@@PAVREQUEST@@PAVCWorkerContext@@@Z 0051c330 f   xygament2d:xygsocks.obj
 0001:0011b390       ?SendUserResponse@CSockServer@@UAEHPAU_tagCONTEXT_HEAD@@PAVREQUEST@@HH@Z 0051c390 f   xygament2d:xygsocks.obj
 0001:0011b460       ?SendResponseData@CSockServer@@UAEHPAU_tagCONTEXT_HEAD@@AAVREQUEST@@PAXH@Z 0051c460 f   xygament2d:xygsocks.obj
 0001:0011b4e0       ?SendErrorInfoResponse@CSockServer@@UAEHPAU_tagCONTEXT_HEAD@@PBD@Z 0051c4e0 f   xygament2d:xygsocks.obj
 0001:0011b660       ?SendFailedResponse@CSockServer@@UAEHPAU_tagCONTEXT_HEAD@@HH@Z 0051c660 f   xygament2d:xygsocks.obj
 0001:0011b720       ?NotifyOneUser@CSockServer@@UAEHIJIPAXHH@Z 0051c720 f   xygament2d:xygsocks.obj
 0001:0011b830       ?NotifyTablePlayers@CSockServer@@UAEHPAVCTable@@IPAXHJH@Z 0051c830 f   xygament2d:xygsocks.obj
 0001:0011b8f0       ?NotifyTableVisitors@CSockServer@@UAEHPAVCTable@@IPAXHJH@Z 0051c8f0 f   xygament2d:xygsocks.obj
 0001:0011b990       ?NotifyChairVisitors@CSockServer@@UAEHPAVCTable@@HIPAXHJH@Z 0051c990 f   xygament2d:xygsocks.obj
 0001:0011ba70       ?ClearRoomMap@CSockServer@@MAEXXZ 0051ca70 f   xygament2d:xygsocks.obj
 0001:0011bb80       ?RemoveTokenData@CSockServer@@MAEHJAAH00@Z 0051cb80 f   xygament2d:xygsocks.obj
 0001:0011bc90       ??0?$_com_ptr_t@V?$_com_IIID@U_Connection@@$1?_GUID_00000550_0000_0010_8000_00aa006d2ea4@@3U__s_GUID@@A@@@@QAE@XZ 0051cc90 f i xygament2d:xygsocks.obj
 0001:0011bcc0       ??0?$_com_ptr_t@V?$_com_IIID@U_Connection@@$1?_GUID_00000550_0000_0010_8000_00aa006d2ea4@@3U__s_GUID@@A@@@@QAE@H@Z 0051ccc0 f i xygament2d:xygsocks.obj
 0001:0011bd10       ??4?$_com_ptr_t@V?$_com_IIID@U_Connection@@$1?_GUID_00000550_0000_0010_8000_00aa006d2ea4@@3U__s_GUID@@A@@@@QAEAAV0@ABV0@@Z 0051cd10 f i xygament2d:xygsocks.obj
 0001:0011bd50       ??4?$_com_ptr_t@V?$_com_IIID@U_Connection@@$1?_GUID_00000550_0000_0010_8000_00aa006d2ea4@@3U__s_GUID@@A@@@@QAEAAV0@PAU_Connection@@@Z 0051cd50 f i xygament2d:xygsocks.obj
 0001:0011bdc0       ?RemoveKey@?$CMap@JJHH@@QAEHJ@Z 0051cdc0 f i xygament2d:xygsocks.obj
 0001:0011be80       ?RemoveKey@?$CMap@HHPAVCRoom@@PAV1@@@QAEHH@Z 0051ce80 f i xygament2d:xygsocks.obj
 0001:0011bf40       ?FreeAssoc@?$CMap@JJHH@@IAEXPAUCAssoc@1@@Z 0051cf40 f i xygament2d:xygsocks.obj
 0001:0011bff0       ?FreeAssoc@?$CMap@HHPAVCRoom@@PAV1@@@IAEXPAUCAssoc@1@@Z 0051cff0 f i xygament2d:xygsocks.obj
 0001:0011c2a0       ??1?$_com_ptr_t@V?$_com_IIID@U_Connection@@$1?_GUID_00000550_0000_0010_8000_00aa006d2ea4@@3U__s_GUID@@A@@@@QAE@XZ 0051d2a0 f i xygament2d:xygsocks.obj
 0001:0011c2e0       ?_Release@?$_com_ptr_t@V?$_com_IIID@U_Connection@@$1?_GUID_00000550_0000_0010_8000_00aa006d2ea4@@3U__s_GUID@@A@@@@AAEXXZ 0051d2e0 f i xygament2d:xygsocks.obj
 0001:0011c330       ?_AddRef@?$_com_ptr_t@V?$_com_IIID@U_Connection@@$1?_GUID_00000550_0000_0010_8000_00aa006d2ea4@@3U__s_GUID@@A@@@@AAEXXZ 0051d330 f i xygament2d:xygsocks.obj
 0001:0011c380       ??0CSkTable@@QAE@HHHHKKHHHHHHHHQAHHHHHHHP6AHHK@Z111P6AHHHK@Z2@Z 0051d380 f   tcgskd2:tcgsk.obj
 0001:0011c520       ??_GCSkTable@@UAEPAXI@Z    0051d520 f i tcgskd2:tcgsk.obj
 0001:0011c520       ??_ECSkTable@@UAEPAXI@Z    0051d520 f i tcgskd2:tcgsk.obj
 0001:0011c580       ??1CSkTable@@UAE@XZ        0051d580 f   tcgskd2:tcgsk.obj
 0001:0011c620       ?ResetMembers@CSkTable@@UAEXH@Z 0051d620 f   tcgskd2:tcgsk.obj
 0001:0011c6e0       ?SK_GetCardIndex@@YAHHK@Z  0051d6e0 f   tcgskd2:tcgsk.obj
 0001:0011c740       ?SK_GetCardScore@@YAHHK@Z  0051d740 f   tcgskd2:tcgsk.obj
 0001:0011c7b0       ?SK_GetCardShape@@YAHHK@Z  0051d7b0 f   tcgskd2:tcgsk.obj
 0001:0011c800       ?SK_GetCardValue@@YAHHK@Z  0051d800 f   tcgskd2:tcgsk.obj
 0001:0011c840       ?SK_GetCardPRI@@YAHHHK@Z   0051d840 f   tcgskd2:tcgsk.obj
 0001:0011c890       ?SK_GetIndexPRI@@YAHHHK@Z  0051d890 f   tcgskd2:tcgsk.obj
 0001:0011c8e0       ?SK_GetCardIndexEx@@YAHHK@Z 0051d8e0 f   tcgskd2:tcgsk.obj
 0001:0011c930       ?SK_GetCardScoreEx@@YAHHK@Z 0051d930 f   tcgskd2:tcgsk.obj
 0001:0011c980       ?SK_GetCardShapeEx@@YAHHK@Z 0051d980 f   tcgskd2:tcgsk.obj
 0001:0011c9d0       ?SK_GetCardValueEx@@YAHHK@Z 0051d9d0 f   tcgskd2:tcgsk.obj
 0001:0011ca20       ?SK_GetCardPRIEx@@YAHHHK@Z 0051da20 f   tcgskd2:tcgsk.obj
 0001:0011ca70       ?SK_GetIndexPRIEx@@YAHHHK@Z 0051da70 f   tcgskd2:tcgsk.obj
 0001:0011cac0       ?GetGameTableInfoSize@CSkTable@@UAEHXZ 0051dac0 f   tcgskd2:tcgsk.obj
 0001:0011caf0       ?GetGameStartSize@CSkTable@@UAEHXZ 0051daf0 f   tcgskd2:tcgsk.obj
 0001:0011cb20       ?GetGameWinSize@CSkTable@@UAEHXZ 0051db20 f   tcgskd2:tcgsk.obj
 0001:0011cb50       ?GetEnterGameInfoSize@CSkTable@@UAEHXZ 0051db50 f   tcgskd2:tcgsk.obj
 0001:0011cb80       ?FillupEnterGameInfo@CSkTable@@UAEXPAXHHH@Z 0051db80 f   tcgskd2:tcgsk.obj
 0001:0011cbd0       ?FillupGameStart@CSkTable@@UAEXPAXHHH@Z 0051dbd0 f   tcgskd2:tcgsk.obj
 0001:0011cc40       ?FillupStartData@CSkTable@@UAEXPAXH@Z 0051dc40 f   tcgskd2:tcgsk.obj
 0001:0011cc70       ?FillupGameTableInfo@CSkTable@@UAEXPAXHHH@Z 0051dc70 f   tcgskd2:tcgsk.obj
 0001:0011cce0       ?CalcBankerChairBefore@CSkTable@@UAEHXZ 0051dce0 f   tcgskd2:tcgsk.obj
 0001:0011cd50       ?CalcBankerChairAfter@CSkTable@@UAEHPAXH@Z 0051dd50 f   tcgskd2:tcgsk.obj
 0001:0011cd80       ?CatchOneCard@CSkTable@@UAEHH@Z 0051dd80 f   tcgskd2:tcgsk.obj
 0001:0011cdb0       ?GiveCard@CSkTable@@UAEHHHH@Z 0051ddb0 f   tcgskd2:tcgsk.obj
 0001:0011cde0       ?SetStatusOnStart@CSkTable@@UAEKXZ 0051dde0 f   tcgskd2:tcgsk.obj
 0001:0011ce30       ?SetStatusOnEnd@CSkTable@@UAEKXZ 0051de30 f   tcgskd2:tcgsk.obj
 0001:0011ce80       ?ValidatePass@CSkTable@@UAEHPAU_tagCARDS_PASS@@@Z 0051de80 f   tcgskd2:tcgsk.obj
 0001:0011cf00       ?IsCardIdUnique@@YAHQAHH@Z 0051df00 f   tcgskd2:tcgsk.obj
 0001:0011cf80       ?ValidateThrow@CSkTable@@UAEHPAU_tagCARDS_THROW@@@Z 0051df80 f   tcgskd2:tcgsk.obj
 0001:0011d110       ?ThrowCards@CSkTable@@UAEHPAU_tagCARDS_THROW@@@Z 0051e110 f   tcgskd2:tcgsk.obj
 0001:0011d160       ?CalcChairThrowTime@CSkTable@@UAEHH@Z 0051e160 f   tcgskd2:tcgsk.obj
 0001:0011d190       ?CalcBombInThrow@CSkTable@@UAEXPAU_tagCARDS_THROW@@@Z 0051e190 f   tcgskd2:tcgsk.obj
 0001:0011d1c0       ?CalcBombInHand@CSkTable@@UAEXH@Z 0051e1c0 f   tcgskd2:tcgsk.obj
 0001:0011d1f0       ?SetCurrentRank@CSkTable@@UAEXH@Z 0051e1f0 f   tcgskd2:tcgsk.obj
 0001:0011d220       ?GetCurrentRank@CSkTable@@UAEHXZ 0051e220 f   tcgskd2:tcgsk.obj
 0001:0011d250       ?GetCardCount@CSkTable@@UAEHQAHH@Z 0051e250 f   tcgskd2:tcgsk.obj
 0001:0011d2d0       ?IsCardInHand@CSkTable@@UAEHHQAHH@Z 0051e2d0 f   tcgskd2:tcgsk.obj
 0001:0011d370       ?GetCard@CSkTable@@UAEPAU_tagCARDINFO@@H@Z 0051e370 f   tcgskd2:tcgsk.obj
 0001:0011d3a0       ?SetCardStatus@CSkTable@@UAEHHHH@Z 0051e3a0 f   tcgskd2:tcgsk.obj
 0001:0011d3d0       ?HaveCards@CSkTable@@UAEHH@Z 0051e3d0 f   tcgskd2:tcgsk.obj
 0001:0011d420       ?CalcWinOnThrow@CSkTable@@UAEHPAU_tagCARDS_THROW@@@Z 0051e420 f   tcgskd2:tcgsk.obj
 0001:0011d450       ?CalcWinOnPass@CSkTable@@UAEHPAU_tagCARDS_PASS@@@Z 0051e450 f   tcgskd2:tcgsk.obj
 0001:0011d480       ?PutThrowCardsToCost@CSkTable@@UAEXH@Z 0051e480 f   tcgskd2:tcgsk.obj
 0001:0011d4b0       ?OnPass@CSkTable@@UAEXPAU_tagCARDS_PASS@@@Z 0051e4b0 f   tcgskd2:tcgsk.obj
 0001:0011d500       ?GetInHandCard@CSkTable@@UAEHHQAH@Z 0051e500 f   tcgskd2:tcgsk.obj
 0001:0011d530       ?GetFriend@CSkTable@@UAEHH@Z 0051e530 f   tcgskd2:tcgsk.obj
 0001:0011d5a0       ?GetTributeCard@CSkTable@@UAEHH@Z 0051e5a0 f   tcgskd2:tcgsk.obj
 0001:0011d5d0       ?AddScoreCard@CSkTable@@UAEXH@Z 0051e5d0 f   tcgskd2:tcgsk.obj
 0001:0011d600       ?WinScoreCard@CSkTable@@UAEHH@Z 0051e600 f   tcgskd2:tcgsk.obj
 0001:0011d630       ?IsGameMsg@CSkTable@@UAEHI@Z 0051e630 f   tcgskd2:tcgsk.obj
 0001:0011d690       ?PreDealCards@CSkTable@@UAEHQAHH0HAAH@Z 0051e690 f   tcgskd2:tcgsk.obj
 0001:0011d810       ?IsJoker@CSkTable@@UAEHH@Z 0051e810 f   tcgskd2:tcgsk.obj
 0001:0011d840       ?IsJokerEx@CSkTable@@UAEHH@Z 0051e840 f   tcgskd2:tcgsk.obj
 0001:0011d870       ?GetJokerCount@CSkTable@@UAEHQAHHH@Z 0051e870 f   tcgskd2:tcgsk.obj
 0001:0011d910       ?GetSameCountEx@CSkTable@@UAEHQAHHHHH@Z 0051e910 f   tcgskd2:tcgsk.obj
 0001:0011da50       ?GetSameCount@CSkTable@@UAEHQAHHHH@Z 0051ea50 f   tcgskd2:tcgsk.obj
 0001:0011db30       ?GetDoubleCount@CSkTable@@UAEHQAHHHHHHAAH1@Z 0051eb30 f   tcgskd2:tcgsk.obj
 0001:0011dd10       ?ReMoveBigestPair@CSkTable@@UAEHQAHHHAAH@Z 0051ed10 f   tcgskd2:tcgsk.obj
 0001:0011de50       ?GetUniteDetails@CSkTable@@UAEHHQAHHAAU_tagCARD_UNITE@@K@Z 0051ee50 f   tcgskd2:tcgsk.obj
 0001:0011e170       ?CompareCards@CSkTable@@UAEHAAU_tagUNITE_TYPE@@0@Z 0051f170 f   tcgskd2:tcgsk.obj
 0001:0011e1e0       ?GetBestUnitType@CSkTable@@UAEHAAU_tagCARD_UNITE@@@Z 0051f1e0 f   tcgskd2:tcgsk.obj
 0001:0011e430       ?GetBestUnitType@CSkTable@@UAEHAAU_tagUNITE_TYPE@@AAU_tagCARD_UNITE@@@Z 0051f430 f   tcgskd2:tcgsk.obj
 0001:0011e670       ?PutCardToArray@CSkTable@@UAEXQAHH0HHHH@Z 0051f670 f   tcgskd2:tcgsk.obj
 0001:0011e8c0       ?GetMinFitValue@CSkTable@@UAEHQAHHH@Z 0051f8c0 f   tcgskd2:tcgsk.obj
 0001:0011e9c0       ?CalcCardType_Single@CSkTable@@UAEHQAHHHPAU_tagCARD_UNITE@@@Z 0051f9c0 f   tcgskd2:tcgsk.obj
 0001:0011eab0       ?GetCardType_Single@CSkTable@@UAEHQAHHAAU_tagUNITE_TYPE@@@Z 0051fab0 f   tcgskd2:tcgsk.obj
 0001:0011ec50       ?CalcCardType_Couple@CSkTable@@UAEHQAHHHPAU_tagCARD_UNITE@@@Z 0051fc50 f   tcgskd2:tcgsk.obj
 0001:0011ed90       ?GetCardType_Couple@CSkTable@@UAEHQAHH0HHAAU_tagUNITE_TYPE@@@Z 0051fd90 f   tcgskd2:tcgsk.obj
 0001:0011eee0       ?CalcCardType_Three@CSkTable@@UAEHQAHHHPAU_tagCARD_UNITE@@@Z 0051fee0 f   tcgskd2:tcgsk.obj
 0001:0011f010       ?GetCardType_Three@CSkTable@@UAEHQAHH0HHAAU_tagUNITE_TYPE@@@Z 00520010 f   tcgskd2:tcgsk.obj
 0001:0011f160       ?CalcCardType_Bomb@CSkTable@@UAEHQAHHHPAU_tagCARD_UNITE@@@Z 00520160 f   tcgskd2:tcgsk.obj
 0001:0011f2c0       ?GetCardType_Bomb@CSkTable@@UAEHQAHH0HHAAU_tagUNITE_TYPE@@H@Z 005202c0 f   tcgskd2:tcgsk.obj
 0001:0011f4f0       ?CaclCardType_SuperBomb@CSkTable@@UAEHQAHHHPAU_tagCARD_UNITE@@@Z 005204f0 f   tcgskd2:tcgsk.obj
 0001:0011f630       ?GetCardType_SuperBomb@CSkTable@@UAEHQAHH0HHAAU_tagUNITE_TYPE@@H@Z 00520630 f   tcgskd2:tcgsk.obj
 0001:0011f840       ?CaclCardType_Three_Couple@CSkTable@@UAEHQAHHHPAU_tagCARD_UNITE@@@Z 00520840 f   tcgskd2:tcgsk.obj
 0001:0011f960       ?GetCardType_Three_Couple@CSkTable@@UAEHQAHH0HHAAU_tagUNITE_TYPE@@@Z 00520960 f   tcgskd2:tcgsk.obj
 0001:0011fb30       ?CaclCardType_ABT_Single@CSkTable@@UAEHQAHHHPAU_tagCARD_UNITE@@@Z 00520b30 f   tcgskd2:tcgsk.obj
 0001:0011fc70       ?GetCardType_ABT_Single@CSkTable@@UAEHQAHH0HHAAU_tagUNITE_TYPE@@H@Z 00520c70 f   tcgskd2:tcgsk.obj
 0001:0011fe90       ?CaclCardType_ABT_Couple@CSkTable@@UAEHQAHHHPAU_tagCARD_UNITE@@@Z 00520e90 f   tcgskd2:tcgsk.obj
 0001:0011ffe0       ?GetCardType_ABT_Couple@CSkTable@@UAEHQAHH0HHAAU_tagUNITE_TYPE@@H@Z 00520fe0 f   tcgskd2:tcgsk.obj
 0001:00120220       ?CaclCardType_ABT_Three@CSkTable@@UAEHQAHHHPAU_tagCARD_UNITE@@@Z 00521220 f   tcgskd2:tcgsk.obj
 0001:00120370       ?GetCardType_ABT_Three@CSkTable@@UAEHQAHH0HHAAU_tagUNITE_TYPE@@H@Z 00521370 f   tcgskd2:tcgsk.obj
 0001:001205b0       ?CaclCardType_ABT_Three_Couple@CSkTable@@UAEHQAHHHPAU_tagCARD_UNITE@@@Z 005215b0 f   tcgskd2:tcgsk.obj
 0001:00120700       ?GetCardType_ABT_Three_Couple@CSkTable@@UAEHQAHH0HHAAU_tagUNITE_TYPE@@H@Z 00521700 f   tcgskd2:tcgsk.obj
 0001:00120aa0       ?CaclCardType_TongHuaShun@CSkTable@@UAEHQAHHHPAU_tagCARD_UNITE@@@Z 00521aa0 f   tcgskd2:tcgsk.obj
 0001:00120be0       ?GetCardType_TongHuaShun@CSkTable@@UAEHQAHH0HHAAU_tagUNITE_TYPE@@H@Z 00521be0 f   tcgskd2:tcgsk.obj
 0001:00121190       ?CaclCardType_4King@CSkTable@@UAEHQAHHHPAU_tagCARD_UNITE@@@Z 00522190 f   tcgskd2:tcgsk.obj
 0001:001212c0       ?GetCardType_4King@CSkTable@@UAEHQAHH0HHAAU_tagUNITE_TYPE@@@Z 005222c0 f   tcgskd2:tcgsk.obj
 0001:00121420       ?CalcCardType_Bug@CSkTable@@UAEHQAHHHPAU_tagCARD_UNITE@@@Z 00522420 f   tcgskd2:tcgsk.obj
 0001:00121520       ?PutAllCardsToCost@CSkTable@@UAEXXZ 00522520 f   tcgskd2:tcgsk.obj
 0001:00121550       ?OnAuctionBanker@CSkTable@@UAEHPAU_tagAUCTION_BANKER@@AAH@Z 00522550 f   tcgskd2:tcgsk.obj
 0001:001218f0       ?OnAuctionFinished@CSkTable@@UAEHXZ 005228f0 f   tcgskd2:tcgsk.obj
 0001:00121990       ?SetGroupsOnAuctionFinished@CSkTable@@UAEHXZ 00522990 f   tcgskd2:tcgsk.obj
 0001:001219c0       ?SK_LayCards@@YAHQAHH0K@Z  005229c0 f   tcgskd2:tcgsk.obj
 0001:00121c60       ?ReversalLessEx@@YAXQAHH@Z 00522c60 f i tcgskd2:tcgsk.obj
 0001:00121d00       ?OnRequest@CSkServer@@MAEHPAX0@Z 00522d00 f   tcgsknt2d:tcgsvrsk.obj
 0001:00122070       ?OnNewTable@CSkServer@@MAEPAVCTable@@HHH@Z 00523070 f   tcgsknt2d:tcgsvrsk.obj
 0001:00122170       ?OnAllowCardView@CSkServer@@MAEHPAU_tagCONTEXT_HEAD@@PAVREQUEST@@PAVCWorkerContext@@@Z 00523170 f   tcgsknt2d:tcgsvrsk.obj
 0001:001226e0       ?OnAuctionBanker@CSkServer@@UAEHPAU_tagCONTEXT_HEAD@@PAVREQUEST@@PAVCWorkerContext@@@Z 005236e0 f   tcgsknt2d:tcgsvrsk.obj
 0001:00122e90       ?NotifyAuctionBanker@CSkServer@@UAEXPAVCSkTable@@PAU_tagAUCTION_BANKER@@J@Z 00523e90 f   tcgsknt2d:tcgsvrsk.obj
 0001:00122f50       ?NotifyAuctionFinished@CSkServer@@UAEXPAVCSkTable@@PAU_tagAUCTION_BANKER@@J@Z 00523f50 f   tcgsknt2d:tcgsvrsk.obj
 0001:00123040       ?NotifyPlayerMsgAndResponse@CSkServer@@UAEHPAU_tagCONTEXT_HEAD@@PAVCTable@@HKKPAX@Z 00524040 f   tcgsknt2d:tcgsvrsk.obj
 0001:001234b0       ?NotifyTableMsg@CSkServer@@UAEHPAVCTable@@HHHPAXJ@Z 005244b0 f   tcgsknt2d:tcgsvrsk.obj
 0001:00123720       ?NotifyResponseFaild@CSkServer@@UAEHPAU_tagCONTEXT_HEAD@@@Z 00524720 f   tcgsknt2d:tcgsvrsk.obj
 0001:001237f0       ?NotifyResponseSucceesd@CSkServer@@UAEHPAU_tagCONTEXT_HEAD@@@Z 005247f0 f   tcgsknt2d:tcgsvrsk.obj
 0001:001238c0       ?OnSendSysMsgToServer@CSkServer@@UAEHPAU_tagCONTEXT_HEAD@@PAVREQUEST@@PAVCWorkerContext@@@Z 005248c0 f   tcgsknt2d:tcgsvrsk.obj
 0001:00124510       ?OnEnterMatchDXXW@CSkServer@@UAEHPAU_tagCONTEXT_HEAD@@PAVCTable@@PAVCPlayer@@@Z 00525510 f   tcgsknt2d:tcgsvrsk.obj
 0001:00124580       ?SimulateGameMsgFromUser@CSkServer@@UAEHHPAVCPlayer@@HHPAXK@Z 00525580 f   tcgsknt2d:tcgsvrsk.obj
 0001:001246f0       ?OnPlayerLeave@CSkServer@@MAEXPAU_tagCONTEXT_HEAD@@PAVCTable@@H@Z 005256f0 f   tcgsknt2d:tcgsvrsk.obj
 0001:00124750       ?OnSeverAutoPlay@CSkServer@@UAEXPAVCRoom@@PAVCTable@@H@Z 00525750 f   tcgsknt2d:tcgsvrsk.obj
 0001:00124780       ?NotifyCardsThrow@CSkServer@@UAEXPAVCSkTable@@PAU_tagCARDS_THROW@@J@Z 00525780 f   tcgsknt2d:tcgsvrsk.obj
 0001:00124870       ?NotifyCardsPass@CSkServer@@UAEXPAVCSkTable@@PAU_tagCARDS_PASS@@J@Z 00525870 f   tcgsknt2d:tcgsvrsk.obj
 0001:00124920       ?OnThrowCards@CSkServer@@UAEHPAU_tagCONTEXT_HEAD@@PAVREQUEST@@PAVCWorkerContext@@@Z 00525920 f   tcgsknt2d:tcgsvrsk.obj
 0001:001252d0       ?OnPassCards@CSkServer@@UAEHPAU_tagCONTEXT_HEAD@@PAVREQUEST@@PAVCWorkerContext@@@Z 005262d0 f   tcgsknt2d:tcgsvrsk.obj
 0001:00125cf0       ?UwlClearRequest@@YAXPAVREQUEST@@@Z 00526cf0 f   uwld:uwlreq.obj
 0001:00125d50       ?UwlCopyRequest@@YAXPAVREQUEST@@0@Z 00526d50 f   uwld:uwlreq.obj
 0001:00125df0       ?UwlConstructRequest@@YAHPAXHAAPAU_tagCONTEXT_HEAD@@AAPAVREQUEST@@QBEKKKH@Z 00526df0 f   uwld:uwlreq.obj
 0001:00126390       ?UwlBeginLog@@YAXPADK@Z    00527390 f   uwld:uwllog.obj
 0001:00126400       ?UwlEndLog@@YAXXZ          00527400 f   uwld:uwllog.obj
 0001:00126440       ?UwlLogFile@@YAXPADZZ      00527440 f   uwld:uwllog.obj
 0001:001264e0       ?_UwlLogPrintf@@YAXPAD@Z   005274e0 f   uwld:uwllog.obj
 0001:00126940       ?UwlGetErrMsg@@YAHHAAVCString@@@Z 00527940 f   uwld:uwlerr.obj
 0001:00126bb0       ?UWL_TESTHR@@YAXJ@Z        00527bb0 f   uwld:uwlutil.obj
 0001:00126bf0       ?new_byte_array@@YAPAXHH@Z 00527bf0 f   uwld:uwlutil.obj
 0001:00126c60       ?UwlLog2@@YAHH@Z           00527c60 f   uwld:uwlutil.obj
 0001:00126ce0       ?UwlPow2@@YAHH@Z           00527ce0 f   uwld:uwlutil.obj
 0001:00126d70       ?UwlAnsiStrToWide@@YAXPAGPBDH@Z 00527d70 f   uwld:uwlutil.obj
 0001:00126df0       ?UwlWideStrToAnsi@@YAXPADPBGH@Z 00527df0 f   uwld:uwlutil.obj
 0001:00126e80       ?UwlGeneStrToAnsi@@YAXPADPBDH@Z 00527e80 f   uwld:uwlutil.obj
 0001:00126ef0       ?UwlGeneStrToWide@@YAXPAGPBDH@Z 00527ef0 f   uwld:uwlutil.obj
 0001:00126f40       ?UwlAnsiStrToGene@@YAXPADPBDH@Z 00527f40 f   uwld:uwlutil.obj
 0001:00126fb0       ?UwlWideStrToGene@@YAXPADPBGH@Z 00527fb0 f   uwld:uwlutil.obj
 0001:00127000       ?UwlSplitPath@@YAXPADH0@Z  00528000 f   uwld:uwlutil.obj
 0001:00127100       ?UwlPathExists@@YAHPBDH@Z  00528100 f   uwld:uwlutil.obj
 0001:001271b0       ?UwlReadStrRegKey@@YAJPAUHKEY__@@PAD1K1@Z 005281b0 f   uwld:uwlutil.obj
 0001:00127220       ?UwlWriteStrRegKey@@YAJPAUHKEY__@@PAD1@Z 00528220 f   uwld:uwlutil.obj
 0001:00127290       ?UwlReadIntRegKey@@YAJPAUHKEY__@@PADPAKK@Z 00528290 f   uwld:uwlutil.obj
 0001:00127300       ?UwlWriteIntRegKey@@YAJPAUHKEY__@@PADK@Z 00528300 f   uwld:uwlutil.obj
 0001:00127360       ?UwlReadBoolRegKey@@YAJPAUHKEY__@@PADPAHH@Z 00528360 f   uwld:uwlutil.obj
 0001:001273d0       ?UwlWriteBoolRegKey@@YAJPAUHKEY__@@PADH@Z 005283d0 f   uwld:uwlutil.obj
 0001:00127430       ?UwlReadGuidRegKey@@YAJPAUHKEY__@@PADPAU_GUID@@AAU2@@Z 00528430 f   uwld:uwlutil.obj
 0001:001274b0       ?UwlWriteGuidRegKey@@YAJPAUHKEY__@@PADU_GUID@@@Z 005284b0 f   uwld:uwlutil.obj
 0001:00127510       ?UwlGetExePath@@YAHPAD@Z   00528510 f   uwld:uwlutil.obj
 0001:00127590       ?UwlGetAPIErrStr@@YA?AVCString@@K@Z 00528590 f   uwld:uwlutil.obj
 0001:00127670       ?UwlConvertHexToStr@@YAXPAEHAAVCString@@@Z 00528670 f   uwld:uwlutil.obj
 0001:00127770       ?UwlConvertHexStrToBin@@YAXPBDHPAD@Z 00528770 f   uwld:uwlutil.obj
 0001:001279d0       ?UwlConvertBinStrToHex@@YAXPBDHPAD@Z 005289d0 f   uwld:uwlutil.obj
 0001:00128130       ?UwlMakeOnewayCodeDWord@@YAHPBDHAAKPAK@Z 00529130 f   uwld:uwlutil.obj
 0001:00128240       ??0CBuffer@@QAE@XZ         00529240 f   uwld:uwlutil.obj
 0001:00128290       ??_ECBuffer@@UAEPAXI@Z     00529290 f i uwld:uwlutil.obj
 0001:00128290       ??_GCBuffer@@UAEPAXI@Z     00529290 f i uwld:uwlutil.obj
 0001:001282f0       ??1CBuffer@@UAE@XZ         005292f0 f   uwld:uwlutil.obj
 0001:00128350       ?ClearBuffer@CBuffer@@QAEXXZ 00529350 f   uwld:uwlutil.obj
 0001:001283a0       ?GetBufferLen@CBuffer@@QAEIXZ 005293a0 f   uwld:uwlutil.obj
 0001:001283f0       ?Delete@CBuffer@@QAEII@Z   005293f0 f   uwld:uwlutil.obj
 0001:001284b0       ?Read@CBuffer@@QAEIPAEI@Z  005294b0 f   uwld:uwlutil.obj
 0001:00128580       ?Write@CBuffer@@QAEIPAEI@Z 00529580 f   uwld:uwlutil.obj
 0001:001285f0       ?Scan@CBuffer@@QAEHPAEI@Z  005295f0 f   uwld:uwlutil.obj
 0001:00128680       ?Insert@CBuffer@@QAEIPAEI@Z 00529680 f   uwld:uwlutil.obj
 0001:00128720       ?Copy@CBuffer@@QAEXAAV1@@Z 00529720 f   uwld:uwlutil.obj
 0001:001287b0       ?GetBuffer@CBuffer@@QAEPAEI@Z 005297b0 f   uwld:uwlutil.obj
 0001:001287e0       ?ReAllocateBuffer@CBuffer@@IAEII@Z 005297e0 f   uwld:uwlutil.obj
 0001:001288f0       ?DeAllocateBuffer@CBuffer@@IAEII@Z 005298f0 f   uwld:uwlutil.obj
 0001:00128a10       ?GetMemSize@CBuffer@@IAEIXZ 00529a10 f   uwld:uwlutil.obj
 0001:00128a40       ?UwlGetCurrentDateTime@@YAHAAH0@Z 00529a40 f   uwld:uwlutil.obj
 0001:00128ae0       ?UwlGetCurrentSeconds@@YAHXZ 00529ae0 f   uwld:uwlutil.obj
 0001:00128b30       ?UwlCreateRandomBytes@@YAHPAEK@Z 00529b30 f   uwld:uwlutil.obj
 0001:00128c30       ?UwlCreateUniqueID@@YAHPAD@Z 00529c30 f   uwld:uwlutil.obj
 0001:00128d00       ?UwlCreateRandomNumbers@@YAHAAHK@Z 00529d00 f   uwld:uwlutil.obj
 0001:00128e00       ?_UwlTraceComError@@YAXAAV_com_error@@@Z 00529e00 f   uwld:uwlutil.obj
 0001:00128f70       ?UwlStrToken@@YAHPADAAVCStringArray@@PBD@Z 00529f70 f   uwld:uwlutil.obj
 0001:00129000       __tcstok                   0052a000 f i uwld:uwlutil.obj
 0001:00129050       ?UwlGetRandomBetween@@YAHHH@Z 0052a050 f   uwld:uwlutil.obj
 0001:001290d0       ?UwlGetRandomBetweenEx@@YAHHHH@Z 0052a0d0 f   uwld:uwlutil.obj
 0001:00129160       ?UwlCreateRandomArray@@YAHAAV?$CArray@HH@@H@Z 0052a160 f   uwld:uwlutil.obj
 0001:00129350       ?UwlGetAvailableVM@@YAKXZ  0052a350 f   uwld:uwlutil.obj
 0001:001293a0       ?UwlGetMemoryLoad@@YAKXZ   0052a3a0 f   uwld:uwlutil.obj
 0001:001293f0       ?UwlAllTrim@@YAPADPAD@Z    0052a3f0 f   uwld:uwlutil.obj
 0001:001294b0       ?UwlRetrieveField@@YAPADPADH@Z 0052a4b0 f   uwld:uwlutil.obj
 0001:00129560       ?UwlRetrieveFields@@YAHPADPAPADH1@Z 0052a560 f   uwld:uwlutil.obj
 0001:00129680       ?UwlGetVolumeSerialNumber@@YA?AVCString@@XZ 0052a680 f   uwld:uwlutil.obj
 0001:001297f0       ?UwlGetHardDiskNumberList@@YA?AVCString@@XZ 0052a7f0 f   uwld:uwlutil.obj
 0001:001299a0       ?UwlRtlGetVersion@@YAHPAU_OSVERSIONINFOW@@@Z 0052a9a0 f   uwld:uwlutil.obj
 0001:00129a80       ?UwlRegQueryOSProductType@@YAKXZ 0052aa80 f   uwld:uwlutil.obj
 0001:00129b80       ?UwlGetSystemVersion@@YAHAAK@Z 0052ab80 f   uwld:uwlutil.obj
 0001:0012a260       ?Error@_com_error@@QBEJXZ  0052b260 f i uwld:uwlutil.obj
 0001:0012a290       ?Description@_com_error@@QBE?AV_bstr_t@@XZ 0052b290 f i uwld:uwlutil.obj
 0001:0012a310       ?Source@_com_error@@QBE?AV_bstr_t@@XZ 0052b310 f i uwld:uwlutil.obj
 0001:0012a390       ?ErrorMessage@_com_error@@QBEPBDXZ 0052b390 f i uwld:uwlutil.obj
 0001:0012a500       ?WCode@_com_error@@QBEGXZ  0052b500 f i uwld:uwlutil.obj
 0001:0012a540       ?HRESULTToWCode@_com_error@@SAGJ@Z 0052b540 f i uwld:uwlutil.obj
 0001:0012a590       ??0CBaseWorker@@QAE@XZ     0052b590 f   uwld:uwlwork.obj
 0001:0012a670       ??_ECBaseWorker@@UAEPAXI@Z 0052b670 f i uwld:uwlwork.obj
 0001:0012a670       ??_GCBaseWorker@@UAEPAXI@Z 0052b670 f i uwld:uwlwork.obj
 0001:0012a6d0       ??1CBaseWorker@@UAE@XZ     0052b6d0 f   uwld:uwlwork.obj
 0001:0012a780       ?Begin@CBaseWorker@@UAEHHJ@Z 0052b780 f   uwld:uwlwork.obj
 0001:0012a8d0       ?End@CBaseWorker@@UAEXXZ   0052b8d0 f   uwld:uwlwork.obj
 0001:0012a9c0       ?WorkerThreadFunc@CBaseWorker@@KGIPAX@Z 0052b9c0 f   uwld:uwlwork.obj
 0001:0012aa10       ?WorkerThreadProc@CBaseWorker@@MAEIXZ 0052ba10 f   uwld:uwlwork.obj
 0001:0012aba0       ?BeginWorkerPool@CBaseWorker@@MAEHH@Z 0052bba0 f   uwld:uwlwork.obj
 0001:0012ac40       ?OnWorkerThreadStart@CBaseWorker@@MAEHXZ 0052bc40 f   uwld:uwlwork.obj
 0001:0012ad00       ?OnWorkerThreadExit@CBaseWorker@@MAEHXZ 0052bd00 f   uwld:uwlwork.obj
 0001:0012add0       ?GetWorkerContext@CBaseWorker@@MAEPAXK@Z 0052bdd0 f   uwld:uwlwork.obj
 0001:0012ae80       ?OnWorkerStart@CBaseWorker@@MAEPAXXZ 0052be80 f   uwld:uwlwork.obj
 0001:0012aeb0       ?OnWorkerExit@CBaseWorker@@MAEXPAX@Z 0052beb0 f   uwld:uwlwork.obj
 0001:0012af00       ?AllocateReqOv@CBaseWorker@@MAEPAVREQ_OV@@PAX0@Z 0052bf00 f   uwld:uwlwork.obj
 0001:0012b020       ?MoveReqOvToFree@CBaseWorker@@MAEPAVREQ_OV@@PAV2@@Z 0052c020 f   uwld:uwlwork.obj
 0001:0012b160       ?PutRequestToQueue@CBaseWorker@@MAEHKKPAX00@Z 0052c160 f   uwld:uwlwork.obj
 0001:0012b2b0       ?CheckRequest@CBaseWorker@@MAEHPAX0@Z 0052c2b0 f   uwld:uwlwork.obj
 0001:0012b2e0       ?OnRequest@CBaseWorker@@MAEHPAX0@Z 0052c2e0 f   uwld:uwlwork.obj
 0001:0012b310       ??0CQueueWorker@@QAE@XZ    0052c310 f   uwld:uwlwork.obj
 0001:0012b390       ??_ECQueueWorker@@UAEPAXI@Z 0052c390 f i uwld:uwlwork.obj
 0001:0012b390       ??_GCQueueWorker@@UAEPAXI@Z 0052c390 f i uwld:uwlwork.obj
 0001:0012b3f0       ??1CQueueWorker@@UAE@XZ    0052c3f0 f   uwld:uwlwork.obj
 0001:0012b470       ?Begin@CQueueWorker@@UAEHHJ@Z 0052c470 f   uwld:uwlwork.obj
 0001:0012b4b0       ?End@CQueueWorker@@UAEXXZ  0052c4b0 f   uwld:uwlwork.obj
 0001:0012b4f0       ?InitializeQueue@CQueueWorker@@MAEHXZ 0052c4f0 f   uwld:uwlwork.obj
 0001:0012b540       ?CloseQueueHandle@CQueueWorker@@MAEXXZ 0052c540 f   uwld:uwlwork.obj
 0001:0012b580       ?TerminateWorker@CQueueWorker@@MAEXXZ 0052c580 f   uwld:uwlwork.obj
 0001:0012b650       ?ClearQueueData@CQueueWorker@@MAEXXZ 0052c650 f   uwld:uwlwork.obj
 0001:0012b6d0       ?PutDataToQueue@CQueueWorker@@MAEHKKPAVREQ_OV@@@Z 0052c6d0 f   uwld:uwlwork.obj
 0001:0012b720       ?DoWorkLoop@CQueueWorker@@MAEXXZ 0052c720 f   uwld:uwlwork.obj
 0001:0012b8d0       ??0?$CMap@KKPAXPAX@@QAE@H@Z 0052c8d0 f i uwld:uwlwork.obj
 0001:0012b9a0       ?Lookup@?$CMap@KKPAXPAX@@QBEHKAAPAX@Z 0052c9a0 f i uwld:uwlwork.obj
 0001:0012ba10       ?RemoveKey@?$CMap@KKPAXPAX@@QAEHK@Z 0052ca10 f i uwld:uwlwork.obj
 0001:0012bad0       ?FreeAssoc@?$CMap@KKPAXPAX@@IAEXPAUCAssoc@1@@Z 0052cad0 f i uwld:uwlwork.obj
 0001:0012bd80       ??0CPtrQueue@@QAE@XZ       0052cd80 f i uwld:uwlwork.obj
 0001:0012bdf0       ??1CPtrQueue@@UAE@XZ       0052cdf0 f i uwld:uwlwork.obj
 0001:0012be20       ?Initialize@CPtrQueue@@QAEXH@Z 0052ce20 f i uwld:uwlwork.obj
 0001:0012bee0       ?Release@CPtrQueue@@QAEXXZ 0052cee0 f i uwld:uwlwork.obj
 0001:0012bf70       ?GetQueueObject@CPtrQueue@@QAEHPAPAXK@Z 0052cf70 f i uwld:uwlwork.obj
 0001:0012c040       ?PutQueueObject@CPtrQueue@@QAEHPAXK@Z 0052d040 f i uwld:uwlwork.obj
 0001:0012c110       ??_ECPtrQueue@@UAEPAXI@Z   0052d110 f i uwld:uwlwork.obj
 0001:0012c110       ??_GCPtrQueue@@UAEPAXI@Z   0052d110 f i uwld:uwlwork.obj
 0001:0012c170       ??0REQ_OV@@QAE@PAX0@Z      0052d170 f i uwld:uwlwork.obj
 0001:0012c1d0       ??1?$CMap@KKPAXPAX@@UAE@XZ 0052d1d0 f i uwld:uwlwork.obj
 0001:0012c270       ?Serialize@?$CMap@KKPAXPAX@@UAEXAAVCArchive@@@Z 0052d270 f i uwld:uwlwork.obj
 0001:0012c3c0       ?Dump@?$CMap@KKPAXPAX@@UBEXAAVCDumpContext@@@Z 0052d3c0 f i uwld:uwlwork.obj
 0001:0012c4a0       ?AssertValid@?$CMap@KKPAXPAX@@UBEXXZ 0052d4a0 f i uwld:uwlwork.obj
 0001:0012c530       ??_G?$CMap@KKPAXPAX@@UAEPAXI@Z 0052d530 f i uwld:uwlwork.obj
 0001:0012c530       ??_E?$CMap@KKPAXPAX@@UAEPAXI@Z 0052d530 f i uwld:uwlwork.obj
 0001:0012c580       ?SetAt@?$CMap@KKPAXPAX@@QAEXKPAX@Z 0052d580 f i uwld:uwlwork.obj
 0001:0012c5d0       ?RemoveAll@?$CMap@KKPAXPAX@@QAEXXZ 0052d5d0 f i uwld:uwlwork.obj
 0001:0012c6c0       ?GetStartPosition@?$CMap@KKPAXPAX@@QBEPAU__POSITION@@XZ 0052d6c0 f i uwld:uwlwork.obj
 0001:0012c6f0       ?GetNextAssoc@?$CMap@KKPAXPAX@@QBEXAAPAU__POSITION@@AAKAAPAX@Z 0052d6f0 f i uwld:uwlwork.obj
 0001:0012c870       ?SerializeElements@@YGXAAVCArchive@@PAPAXH@Z 0052d870 f i uwld:uwlwork.obj
 0001:0012c910       ?DumpElements@@YGXAAVCDumpContext@@PBQAXH@Z 0052d910 f i uwld:uwlwork.obj
 0001:0012c970       ??A?$CMap@KKPAXPAX@@QAEAAPAXK@Z 0052d970 f i uwld:uwlwork.obj
 0001:0012ca30       ?DestructElements@@YGXPAPAXH@Z 0052da30 f i uwld:uwlwork.obj
 0001:0012cab0       ?InitHashTable@?$CMap@KKPAXPAX@@QAEXIH@Z 0052dab0 f i uwld:uwlwork.obj
 0001:0012cbb0       ?NewAssoc@?$CMap@KKPAXPAX@@IAEPAUCAssoc@1@XZ 0052dbb0 f i uwld:uwlwork.obj
 0001:0012ccf0       ?GetAssocAt@?$CMap@KKPAXPAX@@IBEPAUCAssoc@1@KAAI@Z 0052dcf0 f i uwld:uwlwork.obj
 0001:0012cd90       ?ConstructElements@@YGXPAPAXH@Z 0052dd90 f i uwld:uwlwork.obj
 0001:0012ce40       ?UwlInit@@YAHXZ            0052de40 f   uwld:uwlmain.obj
 0001:0012ced0       ?UwlTerm@@YAXXZ            0052ded0 f   uwld:uwlmain.obj
 0001:0012cf10       ?UwlLoadStr@@YAHIPADH@Z    0052df10 f   uwld:uwlmain.obj
 0001:0012d200       ?UwlInitSeeds@@YAHPAK@Z    0052e200 f   uwld:uwllic.obj
 0001:0012d250       ?UwlMakeLicense@@YAHPAU_tagLICSETTINGS@@VCString@@AAV2@2H@Z 0052e250 f   uwld:uwllic.obj
 0001:0012e630       ?UwlWriteLicFile@@YAHPBDAAVCString@@@Z 0052f630 f   uwld:uwllic.obj
 0001:0012e6d0       ?UwlValidateLicFile@@YAHPBDPAU_tagLICSETTINGS@@AAVCString@@H@Z 0052f6d0 f   uwld:uwllic.obj
 0001:0012eb40       ?UwlCheckLicense@@YAHPBDVCString@@1AAHPAU_tagLICSETTINGS@@H@Z 0052fb40 f   uwld:uwllic.obj
 0001:0012ee30       ?UwlGetLicFeature@@YAHPBDVCString@@AAV1@AAHH@Z 0052fe30 f   uwld:uwllic.obj
 0001:0012efa0       ?UwlGetLicWarning@@YAHPAU_tagLICSETTINGS@@AAHAAVCString@@@Z 0052ffa0 f   uwld:uwllic.obj
 0001:0012f4b0       ?UwlAddConnection@@YAHPBDHAAHPAU_tagLICSETTINGS@@@Z 005304b0 f   uwld:uwllic.obj
 0001:0012f650       ?UwlCheckProductInfo@@YAHPBD@Z 00530650 f   uwld:uwllic.obj
 0001:0012f700       ?UwlGetProductInfo@@YAHPBDVCString@@AAV1@@Z 00530700 f   uwld:uwllic.obj
 0001:0012f830       ?UwlCleanSectionContent@@YA?AVCString@@V1@@Z 00530830 f   uwld:uwllic.obj
 0001:0012f980       ?ReplaceSectionNullStr@@YA?AVCString@@PADH@Z 00530980 f   uwld:uwllic.obj
 0001:0012faa0       ?FormatDate@@YA?AVCString@@PBD@Z 00530aa0 f   uwld:uwllic.obj
 0001:0012fc90       ?CheckProduct@@YAHPAU_tagLICSETTINGS@@VCString@@AAH@Z 00530c90 f   uwld:uwllic.obj
 0001:0012fd90       ?CheckVersion@@YAHPAU_tagLICSETTINGS@@VCString@@AAH@Z 00530d90 f   uwld:uwllic.obj
 0001:0012fe90       ?CheckExpiration@@YAHPAU_tagLICSETTINGS@@AAH@Z 00530e90 f   uwld:uwllic.obj
 0001:001300c0       ?CheckStartDate@@YAHPAU_tagLICSETTINGS@@AAH@Z 005310c0 f   uwld:uwllic.obj
 0001:00130280       ?CheckDays@@YAHPAU_tagLICSETTINGS@@AAH@Z 00531280 f   uwld:uwllic.obj
 0001:001304f0       ?CheckMacAddress@@YAHPAU_tagLICSETTINGS@@AAH@Z 005314f0 f   uwld:uwllic.obj
 0001:001306d0       ?CheckHardDiskNumber@@YAHPAU_tagLICSETTINGS@@AAH@Z 005316d0 f   uwld:uwllic.obj
 0001:00130800       ?UwlGetLicErrMsg@@YAHHAAVCString@@@Z 00531800 f   uwld:uwllic.obj
 0001:00130840       ?UwlCheckLicense2@@YAHPBDVCString@@1AAHPAU_tagLICSETTINGS@@H@Z 00531840 f   uwld:uwllic.obj
 0001:00130b30       ?UwlCheckLicense3@@YAHPBDVCString@@1AAHPAU_tagLICSETTINGS@@H@Z 00531b30 f   uwld:uwllic.obj
 0001:00130e20       ?CheckMachineID@@YAHPAU_tagLICSETTINGS@@AAH@Z 00531e20 f   uwld:uwllic.obj
 0001:00131060       ?GetDiskIDInNT@@YA?AVCString@@XZ 00532060 f   uwld:uwllic.obj
 0001:001313c0       ?ChangeByteOrder@@YAXPADG@Z 005323c0 f   uwld:uwllic.obj
 0001:00131650       ?UwlInitSocket@@YAHXZ      00532650 f   uwld:uwlsock.obj
 0001:001316e0       ?UwlTermSocket@@YAXXZ      005326e0 f   uwld:uwlsock.obj
 0001:00131720       ?UwlRegSocketWnd@@YAHXZ    00532720 f   uwld:uwlsock.obj
 0001:001318f0       ?UwlUnregSocketWnd@@YAXXZ  005328f0 f   uwld:uwlsock.obj
 0001:00131940       ?UwlSockAddr@@YAHPBDHAAUsockaddr_in@@@Z 00532940 f   uwld:uwlsock.obj
 0001:00131a90       ?UwlGetPeerName@@YAHIPAD@Z 00532a90 f   uwld:uwlsock.obj
 0001:00131bd0       ?UwlGetSockName@@YAHIPAD@Z 00532bd0 f   uwld:uwlsock.obj
 0001:00131d10       ?UwlGetPeerAddr@@YAHIAAK@Z 00532d10 f   uwld:uwlsock.obj
 0001:00131db0       ?UwlGetSockAddr@@YAHIAAK@Z 00532db0 f   uwld:uwlsock.obj
 0001:00131e50       ?UwlGetPeerPort@@YAHIAAH@Z 00532e50 f   uwld:uwlsock.obj
 0001:00131f80       ?UwlGetSockPort@@YAHIAAH@Z 00532f80 f   uwld:uwlsock.obj
 0001:001320b0       ?UwlAddrToName@@YAHKPAD@Z  005330b0 f   uwld:uwlsock.obj
 0001:00132120       ?UwlAddrToNameEx@@YAHPAUsockaddr_in@@PAD@Z 00533120 f   uwld:uwlsock.obj
 0001:00132160       ?UwlNameToAddr@@YAHPADAAK@Z 00533160 f   uwld:uwlsock.obj
 0001:001321d0       ?UwlGetIPAddrDW@@YAKPAUsockaddr@@@Z 005331d0 f   uwld:uwlsock.obj
 0001:00132200       ?UwlAddrToIPStr@@YA?AVCString@@PAUsockaddr@@@Z 00533200 f   uwld:uwlsock.obj
 0001:001322a0       ?UwlIsSameIPAddr@@YAHKKH@Z 005332a0 f   uwld:uwlsock.obj
 0001:00132460       ?UwlGetConnectedSeconds@@YAHI@Z 00533460 f   uwld:uwlsock.obj
 0001:001325d0       ?UwlIsConnected@@YAHI@Z    005335d0 f   uwld:uwlsock.obj
 0001:00132610       ?UwlPrintAddress@@YAHPAUsockaddr@@H@Z 00533610 f   uwld:uwlsock.obj
 0001:00132810       ?UwlFormatAddress@@YAHPAUsockaddr@@HPADH@Z 00533810 f   uwld:uwlsock.obj
 0001:00132a10       ?UwlResolveAddress@@YAPAUaddrinfo@@PAD0HHH@Z 00533a10 f   uwld:uwlsock.obj
 0001:00132d30       _WspiapiGetAddrInfo@16     00533d30 f i uwld:uwlsock.obj
 0001:00132db0       _WspiapiLoad@4             00533db0 f i uwld:uwlsock.obj
 0001:00133030       _WspiapiLegacyFreeAddrInfo@4 00534030 f i uwld:uwlsock.obj
 0001:001330e0       _WspiapiLegacyGetAddrInfo@16 005340e0 f i uwld:uwlsock.obj
 0001:001334d0       _WspiapiStrdup@4           005344d0 f i uwld:uwlsock.obj
 0001:00133550       _WspiapiParseV4Address@8   00534550 f i uwld:uwlsock.obj
 0001:00133600       _WspiapiNewAddrInfo@16     00534600 f i uwld:uwlsock.obj
 0001:001336e0       _WspiapiLookupNode@24      005346e0 f i uwld:uwlsock.obj
 0001:00133890       _WspiapiQueryDNS@24        00534890 f i uwld:uwlsock.obj
 0001:00133a00       _WspiapiClone@8            00534a00 f i uwld:uwlsock.obj
 0001:00133aa0       _WspiapiLegacyGetNameInfo@28 00534aa0 f i uwld:uwlsock.obj
 0001:00133dc0       _WspiapiGetNameInfo@28     00534dc0 f i uwld:uwlsock.obj
 0001:00133e50       ?UwlMD5Init@@YAXPAUMD5_CTX@@PAK@Z 00534e50 f   uwld:uwlmd5.obj
 0001:00133ef0       ?UwlMD5Update@@YAXPAUMD5_CTX@@PAEI@Z 00534ef0 f   uwld:uwlmd5.obj
 0001:00134040       ?UwlMD5Final@@YAXPAUMD5_CTX@@@Z 00535040 f   uwld:uwlmd5.obj
 0001:00135350       ?UwlComposePacket@@YAHAAVCBuffer@@0H@Z 00536350 f   uwld:uwlpack.obj
 0001:00135490       ?UwlDecomposePacket@@YAHAAVCBuffer@@0H@Z 00536490 f   uwld:uwlpack.obj
 0001:00135660       ??0CPackager@@QAE@QBEKKK@Z 00536660 f   uwld:uwlpack.obj
 0001:00135760       ??_ECPackager@@UAEPAXI@Z   00536760 f i uwld:uwlpack.obj
 0001:00135760       ??_GCPackager@@UAEPAXI@Z   00536760 f i uwld:uwlpack.obj
 0001:001357c0       ??1CPackager@@UAE@XZ       005367c0 f   uwld:uwlpack.obj
 0001:00135840       ?SetParam@CPackager@@UAEHQBEKKK@Z 00536840 f   uwld:uwlpack.obj
 0001:00135890       ?Package@CPackager@@UAEHAAVCBuffer@@K@Z 00536890 f   uwld:uwlpack.obj
 0001:00135980       ?Compress@CPackager@@UAEHAAVCBuffer@@K@Z 00536980 f   uwld:uwlpack.obj
 0001:00135c00       ?Encrypt@CPackager@@UAEHAAVCBuffer@@K@Z 00536c00 f   uwld:uwlpack.obj
 0001:00135f30       ?EncryptFileA@CPackager@@UAEHPBD0KK@Z 00536f30 f   uwld:uwlpack.obj
 0001:00136160       ??0CCompresser@@QAE@XZ     00537160 f   uwld:uwlpack.obj
 0001:00136190       ??_ECCompresser@@UAEPAXI@Z 00537190 f i uwld:uwlpack.obj
 0001:00136190       ??_GCCompresser@@UAEPAXI@Z 00537190 f i uwld:uwlpack.obj
 0001:001361f0       ??1CCompresser@@UAE@XZ     005371f0 f   uwld:uwlpack.obj
 0001:00136220       ?Compress@CCompresser@@QAEHPADHPAPADAAHK@Z 00537220 f   uwld:uwlpack.obj
 0001:001362b0       ??0CEncrypter@@QAE@XZ      005372b0 f   uwld:uwlpack.obj
 0001:001362e0       ??_ECEncrypter@@UAEPAXI@Z  005372e0 f i uwld:uwlpack.obj
 0001:001362e0       ??_GCEncrypter@@UAEPAXI@Z  005372e0 f i uwld:uwlpack.obj
 0001:00136340       ??1CEncrypter@@UAE@XZ      00537340 f   uwld:uwlpack.obj
 0001:00136370       ?Encrypt@CEncrypter@@QAEHQBEKPBEHPAEAAHK@Z 00537370 f   uwld:uwlpack.obj
 0001:00136440       ??0CRijndael@@QAE@XZ       00537440 f i uwld:uwlpack.obj
 0001:00136490       ??0CAes@@QAE@XZ            00537490 f i uwld:uwlpack.obj
 0001:001364c0       ?EncodePassword@CEncrypter@@QAEHPAKPBDHPADAAH@Z 005374c0 f   uwld:uwlpack.obj
 0001:00136820       ?UwlGetMacAddr@@YAHPAE@Z   00537820 f   uwld:uwlmac.obj
 0001:00136a30       ?UwlFindMacAddr@@YAHPBD@Z  00537a30 f   uwld:uwlmac.obj
 0001:00136e00       ?Deflate@CFlate@@QAEXPAUISequentialStream@@0@Z 00537e00 f   uwld:uwlflate.obj
 0001:00136f90       ?Inflate@CFlate@@QAEXPAUISequentialStream@@0@Z 00537f90 f   uwld:uwlflate.obj
 0001:00137120       ?Deflate@CFlate@@QAEXPAVCFile@@0@Z 00538120 f   uwld:uwlflate.obj
 0001:00137280       ?Inflate@CFlate@@QAEXPAVCFile@@0@Z 00538280 f   uwld:uwlflate.obj
 0001:001373e0       ?Compress@CFlate@@QAEHAAVCByteArray@@PBEI@Z 005383e0 f   uwld:uwlflate.obj
 0001:001374a0       ?Uncompress@CFlate@@QAEHAAVCByteArray@@PBEI@Z 005384a0 f   uwld:uwlflate.obj
 0001:00137560       ?UwlCompressZip@@YAHPADHPAPADAAH@Z 00538560 f   uwld:uwlflate.obj
 0001:00137690       ?UwlDecompressZip@@YAHPADHPAPADAAH@Z 00538690 f   uwld:uwlflate.obj
 0001:001379c0       ??0CBAStreamReader@@QAE@PBEI@Z 005389c0 f i uwld:uwlflate.obj
 0001:00137a20       ??1CBAStreamReader@@QAE@XZ 00538a20 f i uwld:uwlflate.obj
 0001:00137a50       ?QueryInterface@CBAStreamReader@@UAGJABU_GUID@@PAPAX@Z 00538a50 f i uwld:uwlflate.obj
 0001:00137ac0       _IsEqualGUID               00538ac0 f i uwld:uwlflate.obj
 0001:00137b00       ?AddRef@CBAStreamReader@@UAGKXZ 00538b00 f i uwld:uwlflate.obj
 0001:00137b30       ?Release@CBAStreamReader@@UAGKXZ 00538b30 f i uwld:uwlflate.obj
 0001:00137b60       ?Read@CBAStreamReader@@UAGJPAXKPAK@Z 00538b60 f i uwld:uwlflate.obj
 0001:00137c00       ?Write@CBAStreamReader@@UAGJPBXKPAK@Z 00538c00 f i uwld:uwlflate.obj
 0001:00137c30       ??0ISequentialStream@@QAE@XZ 00538c30 f i uwld:uwlflate.obj
 0001:00137c70       ??0IUnknown@@QAE@XZ        00538c70 f i uwld:uwlflate.obj
 0001:00137ca0       ??0CBAStreamWriter@@QAE@AAVCByteArray@@@Z 00538ca0 f i uwld:uwlflate.obj
 0001:00137d00       ??1CBAStreamWriter@@QAE@XZ 00538d00 f i uwld:uwlflate.obj
 0001:00137d30       ?QueryInterface@CBAStreamWriter@@UAGJABU_GUID@@PAPAX@Z 00538d30 f i uwld:uwlflate.obj
 0001:00137da0       ?AddRef@CBAStreamWriter@@UAGKXZ 00538da0 f i uwld:uwlflate.obj
 0001:00137dd0       ?Release@CBAStreamWriter@@UAGKXZ 00538dd0 f i uwld:uwlflate.obj
 0001:00137e00       ?Read@CBAStreamWriter@@UAGJPAXKPAK@Z 00538e00 f i uwld:uwlflate.obj
 0001:00137e30       ?Write@CBAStreamWriter@@UAGJPBXKPAK@Z 00538e30 f i uwld:uwlflate.obj
 0001:00137ee0       ??0CFlate@@QAE@XZ          00538ee0 f i uwld:uwlflate.obj
 0001:00137f10       ?gen_tabs@?%D:\library\UWL9.1\uwl\uwlaes.cpp148881660@@YAXXZ 00538f10 f   uwld:uwlaes.obj
 0001:00138470       ?name@CRijndael@@QAEPADXZ  00539470 f   uwld:uwlaes.obj
 0001:001384a0       ?set_key@CRijndael@@UAEXQBEK@Z 005394a0 f   uwld:uwlaes.obj
 0001:00138b30       ?encrypt@CRijndael@@UAEXQBEQAE@Z 00539b30 f   uwld:uwlaes.obj
 0001:00139df0       ?decrypt@CRijndael@@UAEXQBEQAE@Z 0053adf0 f   uwld:uwlaes.obj
 0001:0013b0e0       ?AesEncrypt@CRijndael@@QAEXPBEHPAEAAH@Z 0053c0e0 f   uwld:uwlaes.obj
 0001:0013b1c0       ?AesDecrypt@CRijndael@@QAEXPBEHPAEAAH@Z 0053c1c0 f   uwld:uwlaes.obj
 0001:0013b4a0       ?UwlShowServiceDlg@@YAHAAVCDialog@@@Z 0053c4a0 f   uwlntd:uwlsvcwd.obj
 0001:0013b640       ?UwlShowServiceMsg@@YAHPBD0I@Z 0053c640 f   uwlntd:uwlsvcwd.obj
 0001:0013b870       ?_UwlBeginTrace@@YAXPADK@Z 0053c870 f   uwltrace:uwltrace.obj
 0001:0013b9e0       ?_UwlEndTrace@@YAXXZ       0053c9e0 f   uwltrace:uwltrace.obj
 0001:0013ba10       ?_UwlFileLine@@YAXPADK@Z   0053ca10 f   uwltrace:uwltrace.obj
 0001:0013bb40       ?_UwlTrace@@YAXPADZZ       0053cb40 f   uwltrace:uwltrace.obj
 0001:0013bb70       ?_UwlTracePrintf@@YAXPAD@Z 0053cb70 f   uwltrace:uwltrace.obj
 0001:0013be50       ??0CIocpWorker@@QAE@XZ     0053ce50 f   tcnsd:tciocp.obj
 0001:0013bea0       ??_ECIocpWorker@@UAEPAXI@Z 0053cea0 f i tcnsd:tciocp.obj
 0001:0013bea0       ??_GCIocpWorker@@UAEPAXI@Z 0053cea0 f i tcnsd:tciocp.obj
 0001:0013bf00       ??1CIocpWorker@@UAE@XZ     0053cf00 f   tcnsd:tciocp.obj
 0001:0013bf40       ?Begin@CIocpWorker@@UAEHHJ@Z 0053cf40 f   tcnsd:tciocp.obj
 0001:0013bf80       ?End@CIocpWorker@@UAEXXZ   0053cf80 f   tcnsd:tciocp.obj
 0001:0013bfc0       ?InitializeQueue@CIocpWorker@@MAEHXZ 0053cfc0 f   tcnsd:tciocp.obj
 0001:0013c070       ?CloseQueueHandle@CIocpWorker@@MAEXXZ 0053d070 f   tcnsd:tciocp.obj
 0001:0013c0c0       ?TerminateWorker@CIocpWorker@@MAEXXZ 0053d0c0 f   tcnsd:tciocp.obj
 0001:0013c1b0       ?ClearQueueData@CIocpWorker@@MAEXXZ 0053d1b0 f   tcnsd:tciocp.obj
 0001:0013c370       ?PutDataToQueue@CIocpWorker@@MAEHKKPAVREQ_OV@@@Z 0053d370 f   tcnsd:tciocp.obj
 0001:0013c3d0       ?DoWorkLoop@CIocpWorker@@MAEXXZ 0053d3d0 f   tcnsd:tciocp.obj
 0001:0013c670       ?ClearIoSendContext@@YAXPAU_tagIO_SEND_CXT@@@Z 0053d670 f   tcnsd:tciocp.obj
 0001:0013c6f0       ??0CIocpServer@@QAE@QBEKKKHH@Z 0053d6f0 f   tcnsd:tciocp.obj
 0001:0013c9f0       ??_GCIocpServer@@UAEPAXI@Z 0053d9f0 f i tcnsd:tciocp.obj
 0001:0013c9f0       ??_ECIocpServer@@UAEPAXI@Z 0053d9f0 f i tcnsd:tciocp.obj
 0001:0013ca50       ??1CIocpServer@@UAE@XZ     0053da50 f   tcnsd:tciocp.obj
 0001:0013cb30       ?Initialize@CIocpServer@@UAEHPBDHPAXHHHHHKHHJHHHHHHHHHHH@Z 0053db30 f   tcnsd:tciocp.obj
 0001:0013ce00       ?Shutdown@CIocpServer@@UAEXXZ 0053de00 f   tcnsd:tciocp.obj
 0001:0013cef0       ?BuildDataBuffer@CIocpServer@@UAEPAVCBuffer@@PAVREQUEST@@KK@Z 0053def0 f   tcnsd:tciocp.obj
 0001:0013d100       ?SendDataBuffer@CIocpServer@@UAEHIPAU_tagCONTEXT_HEAD@@PAVCBuffer@@HH@Z 0053e100 f   tcnsd:tciocp.obj
 0001:0013d200       ?SendResponse@CIocpServer@@UAEHIPAU_tagCONTEXT_HEAD@@PAVREQUEST@@HKKH@Z 0053e200 f   tcnsd:tciocp.obj
 0001:0013d2d0       ?SendRequest@CIocpServer@@UAEHIPAU_tagCONTEXT_HEAD@@PAVREQUEST@@HKKH@Z 0053e2d0 f   tcnsd:tciocp.obj
 0001:0013d330       ?CleanStales@CIocpServer@@UAEHKAAVCDWordArray@@@Z 0053e330 f   tcnsd:tciocp.obj
 0001:0013d450       ?CloseStiffs@CIocpServer@@UAEHK@Z 0053e450 f   tcnsd:tciocp.obj
 0001:0013d560       ?FindClient@CIocpServer@@UAEPAVCClientContext@@IJHH@Z 0053e560 f   tcnsd:tciocp.obj
 0001:0013d6c0       ?FindNextClient@CIocpServer@@MAEPAVCClientContext@@AAIAAJHH@Z 0053e6c0 f   tcnsd:tciocp.obj
 0001:0013d870       ?CloseClient@CIocpServer@@UAEHIJ@Z 0053e870 f   tcnsd:tciocp.obj
 0001:0013da40       ?GetClientCount@CIocpServer@@UAEHXZ 0053ea40 f   tcnsd:tciocp.obj
 0001:0013da70       ?GetMaxClients@CIocpServer@@UAEHXZ 0053ea70 f   tcnsd:tciocp.obj
 0001:0013daa0       ?SetMaxClients@CIocpServer@@UAEJH@Z 0053eaa0 f   tcnsd:tciocp.obj
 0001:0013daf0       ?ClearForbiddenIPs@CIocpServer@@UAEXXZ 0053eaf0 f   tcnsd:tciocp.obj
 0001:0013db80       ?AddForbiddenIP@CIocpServer@@UAEXPBD@Z 0053eb80 f   tcnsd:tciocp.obj
 0001:0013dc30       ?GetClientAddress@CIocpServer@@UAEKIJ@Z 0053ec30 f   tcnsd:tciocp.obj
 0001:0013dcd0       ?PutRequestToWorker@CIocpServer@@UAEHKKPAX00@Z 0053ecd0 f   tcnsd:tciocp.obj
 0001:0013dd30       ?SetNotifyWindow@CIocpServer@@UAEHPAUHWND__@@@Z 0053ed30 f   tcnsd:tciocp.obj
 0001:0013dd70       ?InitializeIo@CIocpServer@@MAEHXZ 0053ed70 f   tcnsd:tciocp.obj
 0001:0013de70       ?BeginThreadPool@CIocpServer@@MAEHH@Z 0053ee70 f   tcnsd:tciocp.obj
 0001:0013df30       ?BeginListen@CIocpServer@@MAEHPBDHHHHH@Z 0053ef30 f   tcnsd:tciocp.obj
 0001:0013e5e0       ?BindSocketToIo@CIocpServer@@MAEPAXIK@Z 0053f5e0 f   tcnsd:tciocp.obj
 0001:0013e6e0       ?DestroyHandles@CIocpServer@@MAEXXZ 0053f6e0 f   tcnsd:tciocp.obj
 0001:0013e800       ?CloseSockets@CIocpServer@@UAEXXZ 0053f800 f   tcnsd:tciocp.obj
 0001:0013e9a0       ?TerminateAcceptThd@CIocpServer@@MAEXXZ 0053f9a0 f   tcnsd:tciocp.obj
 0001:0013ea00       ?TerminateIoThreads@CIocpServer@@MAEXXZ 0053fa00 f   tcnsd:tciocp.obj
 0001:0013eaf0       ?ClearPendingBuffers@CIocpServer@@MAEXXZ 0053faf0 f   tcnsd:tciocp.obj
 0001:0013ec30       ?FreePengingBuf@CIocpServer@@MAEXPAVCSocketBuffer@@K@Z 0053fc30 f   tcnsd:tciocp.obj
 0001:0013ecd0       ?ClearAllList@CIocpServer@@MAEXXZ 0053fcd0 f   tcnsd:tciocp.obj
 0001:0013ef20       ??_GCClientContext@@QAEPAXI@Z 0053ff20 f i tcnsd:tciocp.obj
 0001:0013ef80       ??_GCListenContext@@QAEPAXI@Z 0053ff80 f i tcnsd:tciocp.obj
 0001:0013efe0       ??_GCSocketBuffer@@QAEPAXI@Z 0053ffe0 f i tcnsd:tciocp.obj
 0001:0013f040       ?GetSocketBuffer@CIocpServer@@MAEPAVCSocketBuffer@@W4IoType@@IJ@Z 00540040 f   tcnsd:tciocp.obj
 0001:0013f1c0       ?FreeSocketBuffer@CIocpServer@@MAEXPAVCSocketBuffer@@@Z 005401c0 f   tcnsd:tciocp.obj
 0001:0013f270       ?ReleaseSockBufPool@CIocpServer@@UAEHXZ 00540270 f   tcnsd:tciocp.obj
 0001:0013f370       ?InsertPendingAccept@CIocpServer@@MAEXPAVCListenContext@@PAVCSocketBuffer@@@Z 00540370 f   tcnsd:tciocp.obj
 0001:0013f410       ?RemovePendingAccept@CIocpServer@@MAEXPAVCListenContext@@PAVCSocketBuffer@@@Z 00540410 f   tcnsd:tciocp.obj
 0001:0013f4d0       ?PostRecv@CIocpServer@@MAEHPAVCClientContext@@PAVCSocketBuffer@@AAK@Z 005404d0 f   tcnsd:tciocp.obj
 0001:0013f6e0       ?PostSend@CIocpServer@@MAEHPAVCClientContext@@PAVCSocketBuffer@@AAK@Z 005406e0 f   tcnsd:tciocp.obj
 0001:0013f970       ?SetSocBufSize@CIocpServer@@MAEHIHH@Z 00540970 f   tcnsd:tciocp.obj
 0001:0013fb40       ?PostAccept@CIocpServer@@MAEHPAVCListenContext@@PAVCSocketBuffer@@AAK@Z 00540b40 f   tcnsd:tciocp.obj
 0001:0013fec0       ?SocketThreadFunc@CIocpServer@@KGIPAX@Z 00540ec0 f   tcnsd:tciocp.obj
 0001:0013ff10       ?SocketThreadProc@CIocpServer@@MAEIXZ 00540f10 f   tcnsd:tciocp.obj
 0001:00140080       ?AcceptThreadFunc@CIocpServer@@KGIPAX@Z 00541080 f   tcnsd:tciocp.obj
 0001:001400d0       ?AcceptThreadProc@CIocpServer@@MAEIXZ 005410d0 f   tcnsd:tciocp.obj
 0001:00140630       ?DoIoLoop@CIocpServer@@MAEXXZ 00541630 f   tcnsd:tciocp.obj
 0001:00140910       ?GetClientContext@CIocpServer@@MAEPAVCClientContext@@IH@Z 00541910 f   tcnsd:tciocp.obj
 0001:00140b10       ?FreeClientContext@CIocpServer@@MAEHPAVCClientContext@@@Z 00541b10 f   tcnsd:tciocp.obj
 0001:00140c90       ?ClearClientContext@CIocpServer@@MAEXPAVCClientContext@@@Z 00541c90 f   tcnsd:tciocp.obj
 0001:00140dc0       ?SetSocketClosing@CIocpServer@@MAEXPAVCClientContext@@@Z 00541dc0 f   tcnsd:tciocp.obj
 0001:00140e30       ?GetSockBufCount@CIocpServer@@MAEHPAVCSocketBuffer@@@Z 00541e30 f   tcnsd:tciocp.obj
 0001:00140e80       ?CloseSocketBuffer@CIocpServer@@MAEXPAVCSocketBuffer@@@Z 00541e80 f   tcnsd:tciocp.obj
 0001:00140ef0       ?HandleIo@CIocpServer@@MAEXKPAVCSocketBuffer@@KK@Z 00541ef0 f   tcnsd:tciocp.obj
 0001:001410c0       ?HandleIoUnknown@CIocpServer@@MAEXKPAVCSocketBuffer@@KK@Z 005420c0 f   tcnsd:tciocp.obj
 0001:00141110       ?HandleIoInit@CIocpServer@@MAEXKPAVCSocketBuffer@@KK@Z 00542110 f   tcnsd:tciocp.obj
 0001:001417e0       ?HandleIoRead@CIocpServer@@MAEXKPAVCSocketBuffer@@KK@Z 005427e0 f   tcnsd:tciocp.obj
 0001:001419b0       ?HandleIoWrite@CIocpServer@@MAEXKPAVCSocketBuffer@@KK@Z 005429b0 f   tcnsd:tciocp.obj
 0001:00141aa0       ?HandleIoSend@CIocpServer@@MAEXKPAVCSocketBuffer@@KK@Z 00542aa0 f   tcnsd:tciocp.obj
 0001:00141ba0       ?HandleIoClose@CIocpServer@@MAEXKPAVCSocketBuffer@@KK@Z 00542ba0 f   tcnsd:tciocp.obj
 0001:00141c90       ?HandleIoEcho@CIocpServer@@MAEXKPAVCSocketBuffer@@KK@Z 00542c90 f   tcnsd:tciocp.obj
 0001:00141d30       ?CheckRequest@CIocpServer@@MAEHPAX0@Z 00542d30 f   tcnsd:tciocp.obj
 0001:00141d70       ?SkipFirstRead@CIocpServer@@MAEHXZ 00542d70 f   tcnsd:tciocp.obj
 0001:00141da0       ?OnDataComing@CIocpServer@@MAEPAVCSocketBuffer@@PAVCClientContext@@PAV2@K@Z 00542da0 f   tcnsd:tciocp.obj
 0001:001421e0       ?GetWaitingRecvsSize@CIocpServer@@MAEHPAVCClientContext@@@Z 005431e0 f   tcnsd:tciocp.obj
 0001:00142250       ?SetExpectedToHead@CIocpServer@@MAEHPAVCClientContext@@@Z 00543250 f   tcnsd:tciocp.obj
 0001:001422d0       ?AbsorbWaitingRecvs@CIocpServer@@MAEXPAVCClientContext@@@Z 005432d0 f   tcnsd:tciocp.obj
 0001:00142380       ?GetPacketNO@CIocpServer@@MAEJPAVCSocketBuffer@@@Z 00543380 f   tcnsd:tciocp.obj
 0001:001423c0       ?CheckInitialData@CIocpServer@@MAEHPAVCSocketBuffer@@K@Z 005433c0 f   tcnsd:tciocp.obj
 0001:00142460       ?OnVerifyData@CIocpServer@@MAEHPAVCClientContext@@PAXH@Z 00543460 f   tcnsd:tciocp.obj
 0001:001425e0       ?OnReceiveData@CIocpServer@@MAEHPAVCClientContext@@PAXH@Z 005435e0 f   tcnsd:tciocp.obj
 0001:00142910       ?OnProcessData@CIocpServer@@MAEHPAVCClientContext@@PAXH@Z 00543910 f   tcnsd:tciocp.obj
 0001:00142a60       ?CleanupClient@CIocpServer@@MAEHPAVCClientContext@@HJJJJJJ@Z 00543a60 f   tcnsd:tciocp.obj
 0001:00142c60       ?PostDataToSend@CIocpServer@@MAEHIJPAVCBuffer@@HJHH@Z 00543c60 f   tcnsd:tciocp.obj
 0001:00142ea0       ?SendSync@CIocpServer@@MAEHPAVCClientContext@@JAAVCBuffer@@HJHH@Z 00543ea0 f   tcnsd:tciocp.obj
 0001:00143120       ?SendPacket@CIocpServer@@MAEHPAVCClientContext@@PAXHAAU_tagSESSION_HEAD@@H@Z 00544120 f   tcnsd:tciocp.obj
 0001:00143370       ?SendData@CIocpServer@@MAEHPAVCClientContext@@PAXH@Z 00544370 f   tcnsd:tciocp.obj
 0001:001434f0       ?SendEcho@CIocpServer@@MAEHPAVCClientContext@@PAXH@Z 005444f0 f   tcnsd:tciocp.obj
 0001:00143770       ?EnqueueWaitingToSend@CIocpServer@@MAEHPAVCClientContext@@PAVCSocketBuffer@@@Z 00544770 f   tcnsd:tciocp.obj
 0001:00143800       ?DequeueWaitingToSend@CIocpServer@@MAEPAVCSocketBuffer@@PAVCClientContext@@@Z 00544800 f   tcnsd:tciocp.obj
 0001:00143850       ?GetHeadWaitingToSend@CIocpServer@@MAEPAVCSocketBuffer@@PAVCClientContext@@@Z 00544850 f   tcnsd:tciocp.obj
 0001:00143890       ?PutHeadWaitingToSend@CIocpServer@@MAEXPAVCClientContext@@PAVCSocketBuffer@@@Z 00544890 f   tcnsd:tciocp.obj
 0001:001438e0       ?ProcessWaitingToSend@CIocpServer@@MAEHPAVCClientContext@@@Z 005448e0 f   tcnsd:tciocp.obj
 0001:001439e0       ?PrintStatistics@CIocpServer@@MAEXXZ 005449e0 f   tcnsd:tciocp.obj
 0001:00143c50       ?GetAllowedSends@CIocpServer@@MAEHXZ 00544c50 f   tcnsd:tciocp.obj
 0001:00143c80       ?GetAllowedRecvs@CIocpServer@@MAEHXZ 00544c80 f   tcnsd:tciocp.obj
 0001:00143cb0       ?PutInitRequest@CIocpServer@@MAEHPAVCClientContext@@@Z 00544cb0 f   tcnsd:tciocp.obj
 0001:00143f80       ?PutCloseRequest@CIocpServer@@MAEHPAVCClientContext@@@Z 00544f80 f   tcnsd:tciocp.obj
 0001:00144250       ?ResetResponseSession@CIocpServer@@MAEXPAVCClientContext@@J@Z 00545250 f   tcnsd:tciocp.obj
 0001:001442b0       ?GetResponseSession@CIocpServer@@MAEXPAVCClientContext@@AAJ1@Z 005452b0 f   tcnsd:tciocp.obj
 0001:00144300       ?WriteSessionBuffer@CIocpServer@@MAEXPAVCClientContext@@AAVCBuffer@@PAXAAU_tagSESSION_HEAD@@@Z 00545300 f   tcnsd:tciocp.obj
 0001:001443c0       ?ComposePacket@CIocpServer@@MAEHAAVCBuffer@@0H@Z 005453c0 f   tcnsd:tciocp.obj
 0001:00144410       ?DecomposePacket@CIocpServer@@MAEHAAVCBuffer@@0H@Z 00545410 f   tcnsd:tciocp.obj
 0001:00144460       ??0CIocpClient@@QAE@QBEKKKHH@Z 00545460 f   tcnsd:tciocp.obj
 0001:00144540       ??_ECIocpClient@@UAEPAXI@Z 00545540 f i tcnsd:tciocp.obj
 0001:00144540       ??_GCIocpClient@@UAEPAXI@Z 00545540 f i tcnsd:tciocp.obj
 0001:001445a0       ??1CIocpClient@@UAE@XZ     005455a0 f   tcnsd:tciocp.obj
 0001:00144630       ?Create@CIocpClient@@UAEHPBDHKHPAXHHHHHKHHJHHHHHHHHH@Z 00545630 f   tcnsd:tciocp.obj
 0001:001448c0       ?Destroy@CIocpClient@@UAEXXZ 005458c0 f   tcnsd:tciocp.obj
 0001:00144940       ?BeginConnect@CIocpClient@@UAEHPBDHHHHHK@Z 00545940 f   tcnsd:tciocp.obj
 0001:00144e30       ?SendRequest@CIocpClient@@UAEHPAU_tagCONTEXT_HEAD@@PAVREQUEST@@1AAHKKKH@Z 00545e30 f   tcnsd:tciocp.obj
 0001:001451f0       ?SendCast@CIocpClient@@UAEHPAU_tagCONTEXT_HEAD@@PAVREQUEST@@1KKH@Z 005461f0 f   tcnsd:tciocp.obj
 0001:00145470       ?WaitForFirstData@CIocpClient@@MAEHK@Z 00546470 f   tcnsd:tciocp.obj
 0001:001454f0       ?SkipFirstRead@CIocpClient@@MAEHXZ 005464f0 f   tcnsd:tciocp.obj
 0001:00145550       ?OnReceiveData@CIocpClient@@MAEHPAVCClientContext@@PAXH@Z 00546550 f   tcnsd:tciocp.obj
 0001:001458b0       ?OnResponseData@CIocpClient@@MAEHPAVCClientContext@@PAXH@Z 005468b0 f   tcnsd:tciocp.obj
 0001:00145a80       ?GetSocket@CIocpClient@@UAEIXZ 00546a80 f   tcnsd:tciocp.obj
 0001:00145ab0       ??0CSocketBuffer@@QAE@H@Z  00546ab0 f i tcnsd:tciocp.obj
 0001:00145ba0       ??1CSocketBuffer@@QAE@XZ   00546ba0 f i tcnsd:tciocp.obj
 0001:00145c00       ?Reset@CSocketBuffer@@QAEXW4IoType@@IJ@Z 00546c00 f i tcnsd:tciocp.obj
 0001:00145cd0       ??0CClientContext@@QAE@XZ  00546cd0 f i tcnsd:tciocp.obj
 0001:00145e80       ??1CClientContext@@QAE@XZ  00546e80 f i tcnsd:tciocp.obj
 0001:00145f20       ?Renew@CClientContext@@QAEXIJH@Z 00546f20 f i tcnsd:tciocp.obj
 0001:00146060       ??0CListenContext@@QAE@XZ  00547060 f i tcnsd:tciocp.obj
 0001:00146130       ??1CListenContext@@QAE@XZ  00547130 f i tcnsd:tciocp.obj
 0001:001462b0       ??1ValueAllocator@Json@@UAE@XZ 005472b0 f   jsoncppd:json_value.obj
 0001:001462e0       ??_EValueAllocator@Json@@UAEPAXI@Z 005472e0 f i jsoncppd:json_value.obj
 0001:001462e0       ??_GValueAllocator@Json@@UAEPAXI@Z 005472e0 f i jsoncppd:json_value.obj
 0001:001463b0       ??0DummyValueAllocatorInitializer@Json@@QAE@XZ 005473b0 f i jsoncppd:json_value.obj
 0001:001464a0       ??1DefaultValueAllocator@Json@@UAE@XZ 005474a0 f i jsoncppd:json_value.obj
 0001:001464e0       ?makeMemberName@DefaultValueAllocator@Json@@UAEPADPBD@Z 005474e0 f i jsoncppd:json_value.obj
 0001:00146530       ?releaseMemberName@DefaultValueAllocator@Json@@UAEXPAD@Z 00547530 f i jsoncppd:json_value.obj
 0001:00146580       ?duplicateStringValue@DefaultValueAllocator@Json@@UAEPADPBDI@Z 00547580 f i jsoncppd:json_value.obj
 0001:00146610       ?releaseStringValue@DefaultValueAllocator@Json@@UAEXPAD@Z 00547610 f i jsoncppd:json_value.obj
 0001:00146660       ??_EDefaultValueAllocator@Json@@UAEPAXI@Z 00547660 f i jsoncppd:json_value.obj
 0001:00146660       ??_GDefaultValueAllocator@Json@@UAEPAXI@Z 00547660 f i jsoncppd:json_value.obj
 0001:001466c0       ??0DefaultValueAllocator@Json@@QAE@XZ 005476c0 f i jsoncppd:json_value.obj
 0001:00146710       ??0ValueAllocator@Json@@QAE@XZ 00547710 f i jsoncppd:json_value.obj
 0001:00146740       ??0ValueIteratorBase@Json@@QAE@XZ 00547740 f   jsoncppd:json_value.obj
 0001:00146780       ??0ValueIteratorBase@Json@@QAE@ABViterator@?$_Tree@VCZString@Value@Json@@U?$pair@$$CBVCZString@Value@Json@@V23@@std@@U_Kfn@?$map@VCZString@Value@Json@@V23@U?$less@VCZString@Value@Json@@@std@@V?$allocator@VValue@Json@@@5@@5@U?$less@VCZString@Value@Json@@@5@V?$allocator@VValue@Json@@@5@@std@@@Z 00547780 f   jsoncppd:json_value.obj
 0001:001467c0       ?deref@ValueIteratorBase@Json@@IBEAAVValue@2@XZ 005477c0 f   jsoncppd:json_value.obj
 0001:00146800       ?increment@ValueIteratorBase@Json@@IAEXXZ 00547800 f   jsoncppd:json_value.obj
 0001:00146840       ?decrement@ValueIteratorBase@Json@@IAEXXZ 00547840 f   jsoncppd:json_value.obj
 0001:00146880       ?computeDistance@ValueIteratorBase@Json@@IBEHABV12@@Z 00547880 f   jsoncppd:json_value.obj
 0001:00146910       ?isEqual@ValueIteratorBase@Json@@IBE_NABV12@@Z 00547910 f   jsoncppd:json_value.obj
 0001:00146960       ?copy@ValueIteratorBase@Json@@IAEXABV12@@Z 00547960 f   jsoncppd:json_value.obj
 0001:00146990       ?key@ValueIteratorBase@Json@@QBE?AVValue@2@XZ 00547990 f   jsoncppd:json_value.obj
 0001:00146ab0       ?index@ValueIteratorBase@Json@@QBEIXZ 00547ab0 f   jsoncppd:json_value.obj
 0001:00146b60       ?memberName@ValueIteratorBase@Json@@QBEPBDXZ 00547b60 f   jsoncppd:json_value.obj
 0001:00146bc0       ??0ValueConstIterator@Json@@QAE@XZ 00547bc0 f   jsoncppd:json_value.obj
 0001:00146c00       ??0ValueConstIterator@Json@@AAE@ABViterator@?$_Tree@VCZString@Value@Json@@U?$pair@$$CBVCZString@Value@Json@@V23@@std@@U_Kfn@?$map@VCZString@Value@Json@@V23@U?$less@VCZString@Value@Json@@@std@@V?$allocator@VValue@Json@@@5@@5@U?$less@VCZString@Value@Json@@@5@V?$allocator@VValue@Json@@@5@@std@@@Z 00547c00 f   jsoncppd:json_value.obj
 0001:00146c40       ??4ValueConstIterator@Json@@QAEAAV01@ABVValueIteratorBase@1@@Z 00547c40 f   jsoncppd:json_value.obj
 0001:00146c80       ??0ValueIterator@Json@@QAE@XZ 00547c80 f   jsoncppd:json_value.obj
 0001:00146cc0       ??0ValueIterator@Json@@AAE@ABViterator@?$_Tree@VCZString@Value@Json@@U?$pair@$$CBVCZString@Value@Json@@V23@@std@@U_Kfn@?$map@VCZString@Value@Json@@V23@U?$less@VCZString@Value@Json@@@std@@V?$allocator@VValue@Json@@@5@@5@U?$less@VCZString@Value@Json@@@5@V?$allocator@VValue@Json@@@5@@std@@@Z 00547cc0 f   jsoncppd:json_value.obj
 0001:00146d00       ??0ValueIterator@Json@@QAE@ABVValueConstIterator@1@@Z 00547d00 f   jsoncppd:json_value.obj
 0001:00146d40       ??0ValueIterator@Json@@QAE@ABV01@@Z 00547d40 f   jsoncppd:json_value.obj
 0001:00146d80       ??4ValueIterator@Json@@QAEAAV01@ABV01@@Z 00547d80 f   jsoncppd:json_value.obj
 0001:00146dc0       ??0CommentInfo@Value@Json@@QAE@XZ 00547dc0 f   jsoncppd:json_value.obj
 0001:00146df0       ??1CommentInfo@Value@Json@@QAE@XZ 00547df0 f   jsoncppd:json_value.obj
 0001:00146e50       ?setComment@CommentInfo@Value@Json@@QAEXPBD@Z 00547e50 f   jsoncppd:json_value.obj
 0001:00146f90       ??0CZString@Value@Json@@QAE@H@Z 00547f90 f   jsoncppd:json_value.obj
 0001:00146fd0       ??0CZString@Value@Json@@QAE@PBDW4DuplicationPolicy@012@@Z 00547fd0 f   jsoncppd:json_value.obj
 0001:00147050       ??0CZString@Value@Json@@QAE@ABV012@@Z 00548050 f   jsoncppd:json_value.obj
 0001:00147100       ??1CZString@Value@Json@@QAE@XZ 00548100 f   jsoncppd:json_value.obj
 0001:00147170       ?swap@CZString@Value@Json@@AAEXAAV123@@Z 00548170 f   jsoncppd:json_value.obj
 0001:001471d0       ??4CZString@Value@Json@@QAEAAV012@ABV012@@Z 005481d0 f   jsoncppd:json_value.obj
 0001:00147260       ??MCZString@Value@Json@@QBE_NABV012@@Z 00548260 f   jsoncppd:json_value.obj
 0001:001472d0       ??8CZString@Value@Json@@QBE_NABV012@@Z 005482d0 f   jsoncppd:json_value.obj
 0001:00147340       ?index@CZString@Value@Json@@QBEHXZ 00548340 f   jsoncppd:json_value.obj
 0001:00147370       ?c_str@CZString@Value@Json@@QBEPBDXZ 00548370 f   jsoncppd:json_value.obj
 0001:001473a0       ?isStaticString@CZString@Value@Json@@QBE_NXZ 005483a0 f   jsoncppd:json_value.obj
 0001:001473e0       ??0Value@Json@@QAE@W4ValueType@1@@Z 005483e0 f   jsoncppd:json_value.obj
 0001:00147560       ??0Value@Json@@QAE@H@Z     00548560 f   jsoncppd:json_value.obj
 0001:001475b0       ??0Value@Json@@QAE@I@Z     005485b0 f   jsoncppd:json_value.obj
 0001:00147600       ??0Value@Json@@QAE@N@Z     00548600 f   jsoncppd:json_value.obj
 0001:00147660       ??0Value@Json@@QAE@PBD@Z   00548660 f   jsoncppd:json_value.obj
 0001:001476f0       ??0Value@Json@@QAE@PBD0@Z  005486f0 f   jsoncppd:json_value.obj
 0001:00147780       ??0Value@Json@@QAE@ABV?$basic_string@DU?$char_traits@D@std@@V?$allocator@D@2@@std@@@Z 00548780 f   jsoncppd:json_value.obj
 0001:00147830       ??0Value@Json@@QAE@ABVStaticString@1@@Z 00548830 f   jsoncppd:json_value.obj
 0001:001478a0       ??0Value@Json@@QAE@_N@Z    005488a0 f   jsoncppd:json_value.obj
 0001:001478f0       ??0Value@Json@@QAE@ABV01@@Z 005488f0 f   jsoncppd:json_value.obj
 0001:00147b50       ??0?$map@VCZString@Value@Json@@V23@U?$less@VCZString@Value@Json@@@std@@V?$allocator@VValue@Json@@@5@@std@@QAE@ABV01@@Z 00548b50 f i jsoncppd:json_value.obj
 0001:00147b90       ??_ECommentInfo@Value@Json@@QAEPAXI@Z 00548b90 f i jsoncppd:json_value.obj
 0001:00147c30       ??1Value@Json@@QAE@XZ      00548c30 f   jsoncppd:json_value.obj
 0001:00147d70       ??_G?$map@VCZString@Value@Json@@V23@U?$less@VCZString@Value@Json@@@std@@V?$allocator@VValue@Json@@@5@@std@@QAEPAXI@Z 00548d70 f i jsoncppd:json_value.obj
 0001:00147dd0       ??1?$map@VCZString@Value@Json@@V23@U?$less@VCZString@Value@Json@@@std@@V?$allocator@VValue@Json@@@5@@std@@QAE@XZ 00548dd0 f i jsoncppd:json_value.obj
 0001:00147e10       ??4Value@Json@@QAEAAV01@ABV01@@Z 00548e10 f   jsoncppd:json_value.obj
 0001:00147ea0       ?swap@Value@Json@@QAEXAAV12@@Z 00548ea0 f   jsoncppd:json_value.obj
 0001:00147f80       ?type@Value@Json@@QBE?AW4ValueType@2@XZ 00548f80 f   jsoncppd:json_value.obj
 0001:00147fb0       ?compare@Value@Json@@QAEHABV12@@Z 00548fb0 f   jsoncppd:json_value.obj
 0001:00147fe0       ??MValue@Json@@QBE_NABV01@@Z 00548fe0 f   jsoncppd:json_value.obj
 0001:001481c0       ??NValue@Json@@QBE_NABV01@@Z 005491c0 f   jsoncppd:json_value.obj
 0001:00148210       ??PValue@Json@@QBE_NABV01@@Z 00549210 f   jsoncppd:json_value.obj
 0001:00148260       ??OValue@Json@@QBE_NABV01@@Z 00549260 f   jsoncppd:json_value.obj
 0001:001482a0       ??8Value@Json@@QBE_NABV01@@Z 005492a0 f   jsoncppd:json_value.obj
 0001:00148480       ??9Value@Json@@QBE_NABV01@@Z 00549480 f   jsoncppd:json_value.obj
 0001:001484d0       ?asCString@Value@Json@@QBEPBDXZ 005494d0 f   jsoncppd:json_value.obj
 0001:00148540       ?asString@Value@Json@@QBE?AV?$basic_string@DU?$char_traits@D@std@@V?$allocator@D@2@@std@@XZ 00549540 f   jsoncppd:json_value.obj
 0001:00148740       ?asInt@Value@Json@@QBEHXZ  00549740 f   jsoncppd:json_value.obj
 0001:00148970       ?asUInt@Value@Json@@QBEIXZ 00549970 f   jsoncppd:json_value.obj
 0001:00148ba0       ?asDouble@Value@Json@@QBENXZ 00549ba0 f   jsoncppd:json_value.obj
 0001:00148d30       ?asBool@Value@Json@@QBE_NXZ 00549d30 f   jsoncppd:json_value.obj
 0001:00148e60       ?isConvertibleTo@Value@Json@@QBE_NW4ValueType@2@@Z 00549e60 f   jsoncppd:json_value.obj
 0001:00149120       ?size@Value@Json@@QBEIXZ   0054a120 f   jsoncppd:json_value.obj
 0001:00149220       ?empty@Value@Json@@QBE_NXZ 0054a220 f   jsoncppd:json_value.obj
 0001:001492a0       ??7Value@Json@@QBE_NXZ     0054a2a0 f   jsoncppd:json_value.obj
 0001:001492e0       ?clear@Value@Json@@QAEXXZ  0054a2e0 f   jsoncppd:json_value.obj
 0001:00149390       ?resize@Value@Json@@QAEXI@Z 0054a390 f   jsoncppd:json_value.obj
 0001:00149530       ??AValue@Json@@QAEAAV01@I@Z 0054a530 f   jsoncppd:json_value.obj
 0001:00149700       ??1?$pair@$$CBVCZString@Value@Json@@V23@@std@@QAE@XZ 0054a700 f i jsoncppd:json_value.obj
 0001:00149770       ??AValue@Json@@QBEABV01@I@Z 0054a770 f   jsoncppd:json_value.obj
 0001:001498b0       ??AValue@Json@@QAEAAV01@PBD@Z 0054a8b0 f   jsoncppd:json_value.obj
 0001:001498f0       ?resolveReference@Value@Json@@AAEAAV12@PBD_N@Z 0054a8f0 f   jsoncppd:json_value.obj
 0001:00149ad0       ?get@Value@Json@@QBE?AV12@IABV12@@Z 0054aad0 f   jsoncppd:json_value.obj
 0001:00149b50       ?isValidIndex@Value@Json@@QBE_NI@Z 0054ab50 f   jsoncppd:json_value.obj
 0001:00149b90       ??AValue@Json@@QBEABV01@PBD@Z 0054ab90 f   jsoncppd:json_value.obj
 0001:00149cd0       ??AValue@Json@@QAEAAV01@ABV?$basic_string@DU?$char_traits@D@std@@V?$allocator@D@2@@std@@@Z 0054acd0 f   jsoncppd:json_value.obj
 0001:00149d20       ??AValue@Json@@QBEABV01@ABV?$basic_string@DU?$char_traits@D@std@@V?$allocator@D@2@@std@@@Z 0054ad20 f   jsoncppd:json_value.obj
 0001:00149d70       ??AValue@Json@@QAEAAV01@ABVStaticString@1@@Z 0054ad70 f   jsoncppd:json_value.obj
 0001:00149dc0       ?append@Value@Json@@QAEAAV12@ABV12@@Z 0054adc0 f   jsoncppd:json_value.obj
 0001:00149e10       ?get@Value@Json@@QBE?AV12@PBDABV12@@Z 0054ae10 f   jsoncppd:json_value.obj
 0001:00149e90       ?get@Value@Json@@QBE?AV12@ABV?$basic_string@DU?$char_traits@D@std@@V?$allocator@D@2@@std@@ABV12@@Z 0054ae90 f   jsoncppd:json_value.obj
 0001:00149f00       ?removeMember@Value@Json@@QAE?AV12@PBD@Z 0054af00 f   jsoncppd:json_value.obj
 0001:0014a0a0       ?removeMember@Value@Json@@QAE?AV12@ABV?$basic_string@DU?$char_traits@D@std@@V?$allocator@D@2@@std@@@Z 0054b0a0 f   jsoncppd:json_value.obj
 0001:0014a110       ?isMember@Value@Json@@QBE_NPBD@Z 0054b110 f   jsoncppd:json_value.obj
 0001:0014a160       ?isMember@Value@Json@@QBE_NABV?$basic_string@DU?$char_traits@D@std@@V?$allocator@D@2@@std@@@Z 0054b160 f   jsoncppd:json_value.obj
 0001:0014a1b0       ?getMemberNames@Value@Json@@QBE?AV?$vector@V?$basic_string@DU?$char_traits@D@std@@V?$allocator@D@2@@std@@V?$allocator@V?$basic_string@DU?$char_traits@D@std@@V?$allocator@D@2@@std@@@2@@std@@XZ 0054b1b0 f   jsoncppd:json_value.obj
 0001:0014a370       ?isNull@Value@Json@@QBE_NXZ 0054b370 f   jsoncppd:json_value.obj
 0001:0014a3b0       ?isBool@Value@Json@@QBE_NXZ 0054b3b0 f   jsoncppd:json_value.obj
 0001:0014a3f0       ?isInt@Value@Json@@QBE_NXZ 0054b3f0 f   jsoncppd:json_value.obj
 0001:0014a430       ?isUInt@Value@Json@@QBE_NXZ 0054b430 f   jsoncppd:json_value.obj
 0001:0014a470       ?isIntegral@Value@Json@@QBE_NXZ 0054b470 f   jsoncppd:json_value.obj
 0001:0014a4e0       ?isDouble@Value@Json@@QBE_NXZ 0054b4e0 f   jsoncppd:json_value.obj
 0001:0014a520       ?isNumeric@Value@Json@@QBE_NXZ 0054b520 f   jsoncppd:json_value.obj
 0001:0014a590       ?isString@Value@Json@@QBE_NXZ 0054b590 f   jsoncppd:json_value.obj
 0001:0014a5d0       ?isArray@Value@Json@@QBE_NXZ 0054b5d0 f   jsoncppd:json_value.obj
 0001:0014a630       ?isObject@Value@Json@@QBE_NXZ 0054b630 f   jsoncppd:json_value.obj
 0001:0014a690       ?setComment@Value@Json@@QAEXPBDW4CommentPlacement@2@@Z 0054b690 f   jsoncppd:json_value.obj
 0001:0014a770       ?setComment@Value@Json@@QAEXABV?$basic_string@DU?$char_traits@D@std@@V?$allocator@D@2@@std@@W4CommentPlacement@2@@Z 0054b770 f   jsoncppd:json_value.obj
 0001:0014a7c0       ?hasComment@Value@Json@@QBE_NW4CommentPlacement@2@@Z 0054b7c0 f   jsoncppd:json_value.obj
 0001:0014a820       ?getComment@Value@Json@@QBE?AV?$basic_string@DU?$char_traits@D@std@@V?$allocator@D@2@@std@@W4CommentPlacement@2@@Z 0054b820 f   jsoncppd:json_value.obj
 0001:0014a8d0       ?toStyledString@Value@Json@@QBE?AV?$basic_string@DU?$char_traits@D@std@@V?$allocator@D@2@@std@@XZ 0054b8d0 f   jsoncppd:json_value.obj
 0001:0014a970       ?begin@Value@Json@@QBE?AVValueConstIterator@2@XZ 0054b970 f   jsoncppd:json_value.obj
 0001:0014a9f0       ?end@Value@Json@@QBE?AVValueConstIterator@2@XZ 0054b9f0 f   jsoncppd:json_value.obj
 0001:0014aa70       ?begin@Value@Json@@QAE?AVValueIterator@2@XZ 0054ba70 f   jsoncppd:json_value.obj
 0001:0014aaf0       ?end@Value@Json@@QAE?AVValueIterator@2@XZ 0054baf0 f   jsoncppd:json_value.obj
 0001:0014ab70       ??0PathArgument@Json@@QAE@XZ 0054bb70 f   jsoncppd:json_value.obj
 0001:0014abd0       ??0PathArgument@Json@@QAE@I@Z 0054bbd0 f   jsoncppd:json_value.obj
 0001:0014ac30       ??0PathArgument@Json@@QAE@PBD@Z 0054bc30 f   jsoncppd:json_value.obj
 0001:0014ac90       ??0PathArgument@Json@@QAE@ABV?$basic_string@DU?$char_traits@D@std@@V?$allocator@D@2@@std@@@Z 0054bc90 f   jsoncppd:json_value.obj
 0001:0014ad00       ??0Path@Json@@QAE@ABV?$basic_string@DU?$char_traits@D@std@@V?$allocator@D@2@@std@@ABVPathArgument@1@1111@Z 0054bd00 f   jsoncppd:json_value.obj
 0001:0014ae00       ?makePath@Path@Json@@AAEXABV?$basic_string@DU?$char_traits@D@std@@V?$allocator@D@2@@std@@ABV?$vector@PBVPathArgument@Json@@V?$allocator@PBVPathArgument@Json@@@std@@@4@@Z 0054be00 f   jsoncppd:json_value.obj
 0001:0014b090       ?addPathInArg@Path@Json@@AAEXABV?$basic_string@DU?$char_traits@D@std@@V?$allocator@D@2@@std@@ABV?$vector@PBVPathArgument@Json@@V?$allocator@PBVPathArgument@Json@@@std@@@4@AAPBQBVPathArgument@2@W4Kind@62@@Z 0054c090 f   jsoncppd:json_value.obj
 0001:0014b100       ?invalidPath@Path@Json@@AAEXABV?$basic_string@DU?$char_traits@D@std@@V?$allocator@D@2@@std@@H@Z 0054c100 f   jsoncppd:json_value.obj
 0001:0014b130       ?resolve@Path@Json@@QBEABVValue@2@ABV32@@Z 0054c130 f   jsoncppd:json_value.obj
 0001:0014b200       ?resolve@Path@Json@@QBE?AVValue@2@ABV32@0@Z 0054c200 f   jsoncppd:json_value.obj
 0001:0014b350       ?make@Path@Json@@QBEAAVValue@2@AAV32@@Z 0054c350 f   jsoncppd:json_value.obj
 0001:0014b600       ??0StaticString@Json@@QAE@PBD@Z 0054c600 f i jsoncppd:json_value.obj
 0001:0014b640       ??BStaticString@Json@@QBEPBDXZ 0054c640 f i jsoncppd:json_value.obj
 0001:0014b670       ?c_str@StaticString@Json@@QBEPBDXZ 0054c670 f i jsoncppd:json_value.obj
 0001:0014b6a0       ??1PathArgument@Json@@QAE@XZ 0054c6a0 f i jsoncppd:json_value.obj
 0001:0014b6e0       ??1StyledWriter@Json@@UAE@XZ 0054c6e0 f i jsoncppd:json_value.obj
 0001:0014b790       ??_GStyledWriter@Json@@UAEPAXI@Z 0054c790 f i jsoncppd:json_value.obj
 0001:0014b790       ??_EStyledWriter@Json@@UAEPAXI@Z 0054c790 f i jsoncppd:json_value.obj
 0001:0014b7f0       ??0?$vector@PBVPathArgument@Json@@V?$allocator@PBVPathArgument@Json@@@std@@@std@@QAE@ABV?$allocator@PBVPathArgument@Json@@@1@@Z 0054c7f0 f i jsoncppd:json_value.obj
 0001:0014b850       ??1?$vector@PBVPathArgument@Json@@V?$allocator@PBVPathArgument@Json@@@std@@@std@@QAE@XZ 0054c850 f i jsoncppd:json_value.obj
 0001:0014b8e0       ?begin@?$vector@PBVPathArgument@Json@@V?$allocator@PBVPathArgument@Json@@@std@@@std@@QBEPBQBVPathArgument@Json@@XZ 0054c8e0 f i jsoncppd:json_value.obj
 0001:0014b910       ?end@?$vector@PBVPathArgument@Json@@V?$allocator@PBVPathArgument@Json@@@std@@@std@@QBEPBQBVPathArgument@Json@@XZ 0054c910 f i jsoncppd:json_value.obj
 0001:0014b940       ?push_back@?$vector@PBVPathArgument@Json@@V?$allocator@PBVPathArgument@Json@@@std@@@std@@QAEXABQBVPathArgument@Json@@@Z 0054c940 f i jsoncppd:json_value.obj
 0001:0014b990       ??0?$vector@VPathArgument@Json@@V?$allocator@VPathArgument@Json@@@std@@@std@@QAE@ABV?$allocator@VPathArgument@Json@@@1@@Z 0054c990 f i jsoncppd:json_value.obj
 0001:0014b9f0       ??1?$vector@VPathArgument@Json@@V?$allocator@VPathArgument@Json@@@std@@@std@@QAE@XZ 0054c9f0 f i jsoncppd:json_value.obj
 0001:0014ba80       ?begin@?$vector@VPathArgument@Json@@V?$allocator@VPathArgument@Json@@@std@@@std@@QBEPBVPathArgument@Json@@XZ 0054ca80 f i jsoncppd:json_value.obj
 0001:0014bab0       ?end@?$vector@VPathArgument@Json@@V?$allocator@VPathArgument@Json@@@std@@@std@@QBEPBVPathArgument@Json@@XZ 0054cab0 f i jsoncppd:json_value.obj
 0001:0014bae0       ?push_back@?$vector@VPathArgument@Json@@V?$allocator@VPathArgument@Json@@@std@@@std@@QAEXABVPathArgument@Json@@@Z 0054cae0 f i jsoncppd:json_value.obj
 0001:0014bb30       ??0?$map@VCZString@Value@Json@@V23@U?$less@VCZString@Value@Json@@@std@@V?$allocator@VValue@Json@@@5@@std@@QAE@ABU?$less@VCZString@Value@Json@@@1@ABV?$allocator@VValue@Json@@@1@@Z 0054cb30 f i jsoncppd:json_value.obj
 0001:0014bb80       ?begin@?$map@VCZString@Value@Json@@V23@U?$less@VCZString@Value@Json@@@std@@V?$allocator@VValue@Json@@@5@@std@@QAE?AViterator@?$_Tree@VCZString@Value@Json@@U?$pair@$$CBVCZString@Value@Json@@V23@@std@@U_Kfn@?$map@VCZString@Value@Json@@V23@U?$less@VCZString@Value@Json@@@std@@V?$allocator@VValue@Json@@@5@@5@U?$less@VCZString@Value@Json@@@5@V?$allocator@VValue@Json@@@5@@2@XZ 0054cb80 f i jsoncppd:json_value.obj
 0001:0014bbc0       ?end@?$map@VCZString@Value@Json@@V23@U?$less@VCZString@Value@Json@@@std@@V?$allocator@VValue@Json@@@5@@std@@QAE?AViterator@?$_Tree@VCZString@Value@Json@@U?$pair@$$CBVCZString@Value@Json@@V23@@std@@U_Kfn@?$map@VCZString@Value@Json@@V23@U?$less@VCZString@Value@Json@@@std@@V?$allocator@VValue@Json@@@5@@5@U?$less@VCZString@Value@Json@@@5@V?$allocator@VValue@Json@@@5@@2@XZ 0054cbc0 f i jsoncppd:json_value.obj
 0001:0014bc00       ?size@?$map@VCZString@Value@Json@@V23@U?$less@VCZString@Value@Json@@@std@@V?$allocator@VValue@Json@@@5@@std@@QBEIXZ 0054cc00 f i jsoncppd:json_value.obj
 0001:0014bc40       ?empty@?$map@VCZString@Value@Json@@V23@U?$less@VCZString@Value@Json@@@std@@V?$allocator@VValue@Json@@@5@@std@@QBE_NXZ 0054cc40 f i jsoncppd:json_value.obj
 0001:0014bc80       ?insert@?$map@VCZString@Value@Json@@V23@U?$less@VCZString@Value@Json@@@std@@V?$allocator@VValue@Json@@@5@@std@@QAE?AViterator@?$_Tree@VCZString@Value@Json@@U?$pair@$$CBVCZString@Value@Json@@V23@@std@@U_Kfn@?$map@VCZString@Value@Json@@V23@U?$less@VCZString@Value@Json@@@std@@V?$allocator@VValue@Json@@@5@@5@U?$less@VCZString@Value@Json@@@5@V?$allocator@VValue@Json@@@5@@2@V342@ABU?$pair@$$CBVCZString@Value@Json@@V23@@2@@Z 0054cc80 f i jsoncppd:json_value.obj
 0001:0014bcd0       ?erase@?$map@VCZString@Value@Json@@V23@U?$less@VCZString@Value@Json@@@std@@V?$allocator@VValue@Json@@@5@@std@@QAE?AViterator@?$_Tree@VCZString@Value@Json@@U?$pair@$$CBVCZString@Value@Json@@V23@@std@@U_Kfn@?$map@VCZString@Value@Json@@V23@U?$less@VCZString@Value@Json@@@std@@V?$allocator@VValue@Json@@@5@@5@U?$less@VCZString@Value@Json@@@5@V?$allocator@VValue@Json@@@5@@2@V342@@Z 0054ccd0 f i jsoncppd:json_value.obj
 0001:0014bd20       ?erase@?$map@VCZString@Value@Json@@V23@U?$less@VCZString@Value@Json@@@std@@V?$allocator@VValue@Json@@@5@@std@@QAEIABVCZString@Value@Json@@@Z 0054cd20 f i jsoncppd:json_value.obj
 0001:0014bd60       ?clear@?$map@VCZString@Value@Json@@V23@U?$less@VCZString@Value@Json@@@std@@V?$allocator@VValue@Json@@@5@@std@@QAEXXZ 0054cd60 f i jsoncppd:json_value.obj
 0001:0014bda0       ?find@?$map@VCZString@Value@Json@@V23@U?$less@VCZString@Value@Json@@@std@@V?$allocator@VValue@Json@@@5@@std@@QAE?AViterator@?$_Tree@VCZString@Value@Json@@U?$pair@$$CBVCZString@Value@Json@@V23@@std@@U_Kfn@?$map@VCZString@Value@Json@@V23@U?$less@VCZString@Value@Json@@@std@@V?$allocator@VValue@Json@@@5@@5@U?$less@VCZString@Value@Json@@@5@V?$allocator@VValue@Json@@@5@@2@ABVCZString@Value@Json@@@Z 0054cda0 f i jsoncppd:json_value.obj
 0001:0014bdf0       ?lower_bound@?$map@VCZString@Value@Json@@V23@U?$less@VCZString@Value@Json@@@std@@V?$allocator@VValue@Json@@@5@@std@@QAE?AViterator@?$_Tree@VCZString@Value@Json@@U?$pair@$$CBVCZString@Value@Json@@V23@@std@@U_Kfn@?$map@VCZString@Value@Json@@V23@U?$less@VCZString@Value@Json@@@std@@V?$allocator@VValue@Json@@@5@@5@U?$less@VCZString@Value@Json@@@5@V?$allocator@VValue@Json@@@5@@2@ABVCZString@Value@Json@@@Z 0054cdf0 f i jsoncppd:json_value.obj
 0001:0014be40       ??0?$_Tree@VCZString@Value@Json@@U?$pair@$$CBVCZString@Value@Json@@V23@@std@@U_Kfn@?$map@VCZString@Value@Json@@V23@U?$less@VCZString@Value@Json@@@std@@V?$allocator@VValue@Json@@@5@@5@U?$less@VCZString@Value@Json@@@5@V?$allocator@VValue@Json@@@5@@std@@QAE@ABV01@@Z 0054ce40 f i jsoncppd:json_value.obj
 0001:0014beb0       ??1?$_Tree@VCZString@Value@Json@@U?$pair@$$CBVCZString@Value@Json@@V23@@std@@U_Kfn@?$map@VCZString@Value@Json@@V23@U?$less@VCZString@Value@Json@@@std@@V?$allocator@VValue@Json@@@5@@5@U?$less@VCZString@Value@Json@@@5@V?$allocator@VValue@Json@@@5@@std@@QAE@XZ 0054ceb0 f i jsoncppd:json_value.obj
 0001:0014bfa0       ??0?$pair@$$CBVCZString@Value@Json@@V23@@std@@QAE@ABVCZString@Value@Json@@ABV34@@Z 0054cfa0 f i jsoncppd:json_value.obj
 0001:0014c020       ??0const_iterator@?$_Tree@VCZString@Value@Json@@U?$pair@$$CBVCZString@Value@Json@@V23@@std@@U_Kfn@?$map@VCZString@Value@Json@@V23@U?$less@VCZString@Value@Json@@@std@@V?$allocator@VValue@Json@@@5@@5@U?$less@VCZString@Value@Json@@@5@V?$allocator@VValue@Json@@@5@@std@@QAE@ABViterator@12@@Z 0054d020 f i jsoncppd:json_value.obj
 0001:0014c060       ??Dconst_iterator@?$_Tree@VCZString@Value@Json@@U?$pair@$$CBVCZString@Value@Json@@V23@@std@@U_Kfn@?$map@VCZString@Value@Json@@V23@U?$less@VCZString@Value@Json@@@std@@V?$allocator@VValue@Json@@@5@@5@U?$less@VCZString@Value@Json@@@5@V?$allocator@VValue@Json@@@5@@std@@QBEABU?$pair@$$CBVCZString@Value@Json@@V23@@2@XZ 0054d060 f i jsoncppd:json_value.obj
 0001:0014c0a0       ??Econst_iterator@?$_Tree@VCZString@Value@Json@@U?$pair@$$CBVCZString@Value@Json@@V23@@std@@U_Kfn@?$map@VCZString@Value@Json@@V23@U?$less@VCZString@Value@Json@@@std@@V?$allocator@VValue@Json@@@5@@5@U?$less@VCZString@Value@Json@@@5@V?$allocator@VValue@Json@@@5@@std@@QAEAAV012@XZ 0054d0a0 f i jsoncppd:json_value.obj
 0001:0014c0e0       ??Fconst_iterator@?$_Tree@VCZString@Value@Json@@U?$pair@$$CBVCZString@Value@Json@@V23@@std@@U_Kfn@?$map@VCZString@Value@Json@@V23@U?$less@VCZString@Value@Json@@@std@@V?$allocator@VValue@Json@@@5@@5@U?$less@VCZString@Value@Json@@@5@V?$allocator@VValue@Json@@@5@@std@@QAEAAV012@XZ 0054d0e0 f i jsoncppd:json_value.obj
 0001:0014c120       ??8const_iterator@?$_Tree@VCZString@Value@Json@@U?$pair@$$CBVCZString@Value@Json@@V23@@std@@U_Kfn@?$map@VCZString@Value@Json@@V23@U?$less@VCZString@Value@Json@@@std@@V?$allocator@VValue@Json@@@5@@5@U?$less@VCZString@Value@Json@@@5@V?$allocator@VValue@Json@@@5@@std@@QBE_NABV012@@Z 0054d120 f i jsoncppd:json_value.obj
 0001:0014c160       ??9const_iterator@?$_Tree@VCZString@Value@Json@@U?$pair@$$CBVCZString@Value@Json@@V23@@std@@U_Kfn@?$map@VCZString@Value@Json@@V23@U?$less@VCZString@Value@Json@@@std@@V?$allocator@VValue@Json@@@5@@5@U?$less@VCZString@Value@Json@@@5@V?$allocator@VValue@Json@@@5@@std@@QBE_NABV012@@Z 0054d160 f i jsoncppd:json_value.obj
 0001:0014c1b0       ??0iterator@?$_Tree@VCZString@Value@Json@@U?$pair@$$CBVCZString@Value@Json@@V23@@std@@U_Kfn@?$map@VCZString@Value@Json@@V23@U?$less@VCZString@Value@Json@@@std@@V?$allocator@VValue@Json@@@5@@5@U?$less@VCZString@Value@Json@@@5@V?$allocator@VValue@Json@@@5@@std@@QAE@XZ 0054d1b0 f i jsoncppd:json_value.obj
 0001:0014c1f0       ??Diterator@?$_Tree@VCZString@Value@Json@@U?$pair@$$CBVCZString@Value@Json@@V23@@std@@U_Kfn@?$map@VCZString@Value@Json@@V23@U?$less@VCZString@Value@Json@@@std@@V?$allocator@VValue@Json@@@5@@5@U?$less@VCZString@Value@Json@@@5@V?$allocator@VValue@Json@@@5@@std@@QBEAAU?$pair@$$CBVCZString@Value@Json@@V23@@2@XZ 0054d1f0 f i jsoncppd:json_value.obj
 0001:0014c230       ??Citerator@?$_Tree@VCZString@Value@Json@@U?$pair@$$CBVCZString@Value@Json@@V23@@std@@U_Kfn@?$map@VCZString@Value@Json@@V23@U?$less@VCZString@Value@Json@@@std@@V?$allocator@VValue@Json@@@5@@5@U?$less@VCZString@Value@Json@@@5@V?$allocator@VValue@Json@@@5@@std@@QBEPAU?$pair@$$CBVCZString@Value@Json@@V23@@2@XZ 0054d230 f i jsoncppd:json_value.obj
 0001:0014c270       ??Eiterator@?$_Tree@VCZString@Value@Json@@U?$pair@$$CBVCZString@Value@Json@@V23@@std@@U_Kfn@?$map@VCZString@Value@Json@@V23@U?$less@VCZString@Value@Json@@@std@@V?$allocator@VValue@Json@@@5@@5@U?$less@VCZString@Value@Json@@@5@V?$allocator@VValue@Json@@@5@@std@@QAEAAV012@XZ 0054d270 f i jsoncppd:json_value.obj
 0001:0014c2b0       ??Fiterator@?$_Tree@VCZString@Value@Json@@U?$pair@$$CBVCZString@Value@Json@@V23@@std@@U_Kfn@?$map@VCZString@Value@Json@@V23@U?$less@VCZString@Value@Json@@@std@@V?$allocator@VValue@Json@@@5@@5@U?$less@VCZString@Value@Json@@@5@V?$allocator@VValue@Json@@@5@@std@@QAEAAV012@XZ 0054d2b0 f i jsoncppd:json_value.obj
 0001:0014c2f0       ??8iterator@?$_Tree@VCZString@Value@Json@@U?$pair@$$CBVCZString@Value@Json@@V23@@std@@U_Kfn@?$map@VCZString@Value@Json@@V23@U?$less@VCZString@Value@Json@@@std@@V?$allocator@VValue@Json@@@5@@5@U?$less@VCZString@Value@Json@@@5@V?$allocator@VValue@Json@@@5@@std@@QBE_NABV012@@Z 0054d2f0 f i jsoncppd:json_value.obj
 0001:0014c330       ??9iterator@?$_Tree@VCZString@Value@Json@@U?$pair@$$CBVCZString@Value@Json@@V23@@std@@U_Kfn@?$map@VCZString@Value@Json@@V23@U?$less@VCZString@Value@Json@@@std@@V?$allocator@VValue@Json@@@5@@5@U?$less@VCZString@Value@Json@@@5@V?$allocator@VValue@Json@@@5@@std@@QBE_NABV012@@Z 0054d330 f i jsoncppd:json_value.obj
 0001:0014c380       ??0?$vector@V?$basic_string@DU?$char_traits@D@std@@V?$allocator@D@2@@std@@V?$allocator@V?$basic_string@DU?$char_traits@D@std@@V?$allocator@D@2@@std@@@2@@std@@QAE@ABV?$allocator@V?$basic_string@DU?$char_traits@D@std@@V?$allocator@D@2@@std@@@1@@Z 0054d380 f i jsoncppd:json_value.obj
 0001:0014c3e0       ??0?$vector@V?$basic_string@DU?$char_traits@D@std@@V?$allocator@D@2@@std@@V?$allocator@V?$basic_string@DU?$char_traits@D@std@@V?$allocator@D@2@@std@@@2@@std@@QAE@ABV01@@Z 0054d3e0 f i jsoncppd:json_value.obj
 0001:0014c470       ??1?$vector@V?$basic_string@DU?$char_traits@D@std@@V?$allocator@D@2@@std@@V?$allocator@V?$basic_string@DU?$char_traits@D@std@@V?$allocator@D@2@@std@@@2@@std@@QAE@XZ 0054d470 f i jsoncppd:json_value.obj
 0001:0014c500       ?reserve@?$vector@V?$basic_string@DU?$char_traits@D@std@@V?$allocator@D@2@@std@@V?$allocator@V?$basic_string@DU?$char_traits@D@std@@V?$allocator@D@2@@std@@@2@@std@@QAEXI@Z 0054d500 f i jsoncppd:json_value.obj
 0001:0014c5e0       ?push_back@?$vector@V?$basic_string@DU?$char_traits@D@std@@V?$allocator@D@2@@std@@V?$allocator@V?$basic_string@DU?$char_traits@D@std@@V?$allocator@D@2@@std@@@2@@std@@QAEXABV?$basic_string@DU?$char_traits@D@std@@V?$allocator@D@2@@2@@Z 0054d5e0 f i jsoncppd:json_value.obj
 0001:0014c630       ?end@?$vector@PBVPathArgument@Json@@V?$allocator@PBVPathArgument@Json@@@std@@@std@@QAEPAPBVPathArgument@Json@@XZ 0054d630 f i jsoncppd:json_value.obj
 0001:0014c660       ?insert@?$vector@PBVPathArgument@Json@@V?$allocator@PBVPathArgument@Json@@@std@@@std@@QAEPAPBVPathArgument@Json@@PAPBV34@ABQBV34@@Z 0054d660 f i jsoncppd:json_value.obj
 0001:0014c6d0       ?_Destroy@?$vector@PBVPathArgument@Json@@V?$allocator@PBVPathArgument@Json@@@std@@@std@@IAEXPAPBVPathArgument@Json@@0@Z 0054d6d0 f i jsoncppd:json_value.obj
 0001:0014c730       ?deallocate@?$allocator@PBVPathArgument@Json@@@std@@QAEXPAXI@Z 0054d730 f i jsoncppd:json_value.obj
 0001:0014c770       ?end@?$vector@VPathArgument@Json@@V?$allocator@VPathArgument@Json@@@std@@@std@@QAEPAVPathArgument@Json@@XZ 0054d770 f i jsoncppd:json_value.obj
 0001:0014c7a0       ?insert@?$vector@VPathArgument@Json@@V?$allocator@VPathArgument@Json@@@std@@@std@@QAEPAVPathArgument@Json@@PAV34@ABV34@@Z 0054d7a0 f i jsoncppd:json_value.obj
 0001:0014c810       ?_Destroy@?$vector@VPathArgument@Json@@V?$allocator@VPathArgument@Json@@@std@@@std@@IAEXPAVPathArgument@Json@@0@Z 0054d810 f i jsoncppd:json_value.obj
 0001:0014c870       ?deallocate@?$allocator@VPathArgument@Json@@@std@@QAEXPAXI@Z 0054d870 f i jsoncppd:json_value.obj
 0001:0014c8b0       ?_Value@?$_Tree@VCZString@Value@Json@@U?$pair@$$CBVCZString@Value@Json@@V23@@std@@U_Kfn@?$map@VCZString@Value@Json@@V23@U?$less@VCZString@Value@Json@@@std@@V?$allocator@VValue@Json@@@5@@5@U?$less@VCZString@Value@Json@@@5@V?$allocator@VValue@Json@@@5@@std@@KAAAU?$pair@$$CBVCZString@Value@Json@@V23@@2@PAU_Node@12@@Z 0054d8b0 f i jsoncppd:json_value.obj
 0001:0014c8e0       ??0?$_Tree@VCZString@Value@Json@@U?$pair@$$CBVCZString@Value@Json@@V23@@std@@U_Kfn@?$map@VCZString@Value@Json@@V23@U?$less@VCZString@Value@Json@@@std@@V?$allocator@VValue@Json@@@5@@5@U?$less@VCZString@Value@Json@@@5@V?$allocator@VValue@Json@@@5@@std@@QAE@ABU?$less@VCZString@Value@Json@@@1@_NABV?$allocator@VValue@Json@@@1@@Z 0054d8e0 f i jsoncppd:json_value.obj
 0001:0014c940       ?begin@?$_Tree@VCZString@Value@Json@@U?$pair@$$CBVCZString@Value@Json@@V23@@std@@U_Kfn@?$map@VCZString@Value@Json@@V23@U?$less@VCZString@Value@Json@@@std@@V?$allocator@VValue@Json@@@5@@5@U?$less@VCZString@Value@Json@@@5@V?$allocator@VValue@Json@@@5@@std@@QAE?AViterator@12@XZ 0054d940 f i jsoncppd:json_value.obj
 0001:0014c990       ?end@?$_Tree@VCZString@Value@Json@@U?$pair@$$CBVCZString@Value@Json@@V23@@std@@U_Kfn@?$map@VCZString@Value@Json@@V23@U?$less@VCZString@Value@Json@@@std@@V?$allocator@VValue@Json@@@5@@5@U?$less@VCZString@Value@Json@@@5@V?$allocator@VValue@Json@@@5@@std@@QAE?AViterator@12@XZ 0054d990 f i jsoncppd:json_value.obj
 0001:0014c9e0       ?size@?$_Tree@VCZString@Value@Json@@U?$pair@$$CBVCZString@Value@Json@@V23@@std@@U_Kfn@?$map@VCZString@Value@Json@@V23@U?$less@VCZString@Value@Json@@@std@@V?$allocator@VValue@Json@@@5@@5@U?$less@VCZString@Value@Json@@@5@V?$allocator@VValue@Json@@@5@@std@@QBEIXZ 0054d9e0 f i jsoncppd:json_value.obj
 0001:0014ca10       ?empty@?$_Tree@VCZString@Value@Json@@U?$pair@$$CBVCZString@Value@Json@@V23@@std@@U_Kfn@?$map@VCZString@Value@Json@@V23@U?$less@VCZString@Value@Json@@@std@@V?$allocator@VValue@Json@@@5@@5@U?$less@VCZString@Value@Json@@@5@V?$allocator@VValue@Json@@@5@@std@@QBE_NXZ 0054da10 f i jsoncppd:json_value.obj
 0001:0014ca50       ?insert@?$_Tree@VCZString@Value@Json@@U?$pair@$$CBVCZString@Value@Json@@V23@@std@@U_Kfn@?$map@VCZString@Value@Json@@V23@U?$less@VCZString@Value@Json@@@std@@V?$allocator@VValue@Json@@@5@@5@U?$less@VCZString@Value@Json@@@5@V?$allocator@VValue@Json@@@5@@std@@QAE?AViterator@12@V312@ABU?$pair@$$CBVCZString@Value@Json@@V23@@2@@Z 0054da50 f i jsoncppd:json_value.obj
 0001:0014cc90       ?erase@?$_Tree@VCZString@Value@Json@@U?$pair@$$CBVCZString@Value@Json@@V23@@std@@U_Kfn@?$map@VCZString@Value@Json@@V23@U?$less@VCZString@Value@Json@@@std@@V?$allocator@VValue@Json@@@5@@5@U?$less@VCZString@Value@Json@@@5@V?$allocator@VValue@Json@@@5@@std@@QAE?AViterator@12@V312@@Z 0054dc90 f i jsoncppd:json_value.obj
 0001:0014d510       ?erase@?$_Tree@VCZString@Value@Json@@U?$pair@$$CBVCZString@Value@Json@@V23@@std@@U_Kfn@?$map@VCZString@Value@Json@@V23@U?$less@VCZString@Value@Json@@@std@@V?$allocator@VValue@Json@@@5@@5@U?$less@VCZString@Value@Json@@@5@V?$allocator@VValue@Json@@@5@@std@@QAE?AViterator@12@V312@0@Z 0054e510 f i jsoncppd:json_value.obj
 0001:0014d630       ?erase@?$_Tree@VCZString@Value@Json@@U?$pair@$$CBVCZString@Value@Json@@V23@@std@@U_Kfn@?$map@VCZString@Value@Json@@V23@U?$less@VCZString@Value@Json@@@std@@V?$allocator@VValue@Json@@@5@@5@U?$less@VCZString@Value@Json@@@5@V?$allocator@VValue@Json@@@5@@std@@QAEIABVCZString@Value@Json@@@Z 0054e630 f i jsoncppd:json_value.obj
 0001:0014d6b0       ?clear@?$_Tree@VCZString@Value@Json@@U?$pair@$$CBVCZString@Value@Json@@V23@@std@@U_Kfn@?$map@VCZString@Value@Json@@V23@U?$less@VCZString@Value@Json@@@std@@V?$allocator@VValue@Json@@@5@@5@U?$less@VCZString@Value@Json@@@5@V?$allocator@VValue@Json@@@5@@std@@QAEXXZ 0054e6b0 f i jsoncppd:json_value.obj
 0001:0014d710       ?find@?$_Tree@VCZString@Value@Json@@U?$pair@$$CBVCZString@Value@Json@@V23@@std@@U_Kfn@?$map@VCZString@Value@Json@@V23@U?$less@VCZString@Value@Json@@@std@@V?$allocator@VValue@Json@@@5@@5@U?$less@VCZString@Value@Json@@@5@V?$allocator@VValue@Json@@@5@@std@@QAE?AViterator@12@ABVCZString@Value@Json@@@Z 0054e710 f i jsoncppd:json_value.obj
 0001:0014d7d0       ?lower_bound@?$_Tree@VCZString@Value@Json@@U?$pair@$$CBVCZString@Value@Json@@V23@@std@@U_Kfn@?$map@VCZString@Value@Json@@V23@U?$less@VCZString@Value@Json@@@std@@V?$allocator@VValue@Json@@@5@@5@U?$less@VCZString@Value@Json@@@5@V?$allocator@VValue@Json@@@5@@std@@QAE?AViterator@12@ABVCZString@Value@Json@@@Z 0054e7d0 f i jsoncppd:json_value.obj
 0001:0014d820       ?_Copy@?$_Tree@VCZString@Value@Json@@U?$pair@$$CBVCZString@Value@Json@@V23@@std@@U_Kfn@?$map@VCZString@Value@Json@@V23@U?$less@VCZString@Value@Json@@@std@@V?$allocator@VValue@Json@@@5@@5@U?$less@VCZString@Value@Json@@@5@V?$allocator@VValue@Json@@@5@@std@@IAEXABV12@@Z 0054e820 f i jsoncppd:json_value.obj
 0001:0014d900       ?_Init@?$_Tree@VCZString@Value@Json@@U?$pair@$$CBVCZString@Value@Json@@V23@@std@@U_Kfn@?$map@VCZString@Value@Json@@V23@U?$less@VCZString@Value@Json@@@std@@V?$allocator@VValue@Json@@@5@@5@U?$less@VCZString@Value@Json@@@5@V?$allocator@VValue@Json@@@5@@std@@IAEXXZ 0054e900 f i jsoncppd:json_value.obj
 0001:0014da30       ?_Freenode@?$_Tree@VCZString@Value@Json@@U?$pair@$$CBVCZString@Value@Json@@V23@@std@@U_Kfn@?$map@VCZString@Value@Json@@V23@U?$less@VCZString@Value@Json@@@std@@V?$allocator@VValue@Json@@@5@@5@U?$less@VCZString@Value@Json@@@5@V?$allocator@VValue@Json@@@5@@std@@IAEXPAU_Node@12@@Z 0054ea30 f i jsoncppd:json_value.obj
 0001:0014da70       ??0const_iterator@?$_Tree@VCZString@Value@Json@@U?$pair@$$CBVCZString@Value@Json@@V23@@std@@U_Kfn@?$map@VCZString@Value@Json@@V23@U?$less@VCZString@Value@Json@@@std@@V?$allocator@VValue@Json@@@5@@5@U?$less@VCZString@Value@Json@@@5@V?$allocator@VValue@Json@@@5@@std@@QAE@XZ 0054ea70 f i jsoncppd:json_value.obj
 0001:0014daa0       ?_Dec@const_iterator@?$_Tree@VCZString@Value@Json@@U?$pair@$$CBVCZString@Value@Json@@V23@@std@@U_Kfn@?$map@VCZString@Value@Json@@V23@U?$less@VCZString@Value@Json@@@std@@V?$allocator@VValue@Json@@@5@@5@U?$less@VCZString@Value@Json@@@5@V?$allocator@VValue@Json@@@5@@std@@QAEXXZ 0054eaa0 f i jsoncppd:json_value.obj
 0001:0014db90       ?_Inc@const_iterator@?$_Tree@VCZString@Value@Json@@U?$pair@$$CBVCZString@Value@Json@@V23@@std@@U_Kfn@?$map@VCZString@Value@Json@@V23@U?$less@VCZString@Value@Json@@@std@@V?$allocator@VValue@Json@@@5@@5@U?$less@VCZString@Value@Json@@@5@V?$allocator@VValue@Json@@@5@@std@@QAEXXZ 0054eb90 f i jsoncppd:json_value.obj
 0001:0014dc50       ?capacity@?$vector@V?$basic_string@DU?$char_traits@D@std@@V?$allocator@D@2@@std@@V?$allocator@V?$basic_string@DU?$char_traits@D@std@@V?$allocator@D@2@@std@@@2@@std@@QBEIXZ 0054ec50 f i jsoncppd:json_value.obj
 0001:0014dca0       ?begin@?$vector@V?$basic_string@DU?$char_traits@D@std@@V?$allocator@D@2@@std@@V?$allocator@V?$basic_string@DU?$char_traits@D@std@@V?$allocator@D@2@@std@@@2@@std@@QBEPBV?$basic_string@DU?$char_traits@D@std@@V?$allocator@D@2@@2@XZ 0054eca0 f i jsoncppd:json_value.obj
 0001:0014dcd0       ?end@?$vector@V?$basic_string@DU?$char_traits@D@std@@V?$allocator@D@2@@std@@V?$allocator@V?$basic_string@DU?$char_traits@D@std@@V?$allocator@D@2@@std@@@2@@std@@QAEPAV?$basic_string@DU?$char_traits@D@std@@V?$allocator@D@2@@2@XZ 0054ecd0 f i jsoncppd:json_value.obj
 0001:0014dd00       ?end@?$vector@V?$basic_string@DU?$char_traits@D@std@@V?$allocator@D@2@@std@@V?$allocator@V?$basic_string@DU?$char_traits@D@std@@V?$allocator@D@2@@std@@@2@@std@@QBEPBV?$basic_string@DU?$char_traits@D@std@@V?$allocator@D@2@@2@XZ 0054ed00 f i jsoncppd:json_value.obj
 0001:0014dd30       ?size@?$vector@V?$basic_string@DU?$char_traits@D@std@@V?$allocator@D@2@@std@@V?$allocator@V?$basic_string@DU?$char_traits@D@std@@V?$allocator@D@2@@std@@@2@@std@@QBEIXZ 0054ed30 f i jsoncppd:json_value.obj
 0001:0014dd80       ?insert@?$vector@V?$basic_string@DU?$char_traits@D@std@@V?$allocator@D@2@@std@@V?$allocator@V?$basic_string@DU?$char_traits@D@std@@V?$allocator@D@2@@std@@@2@@std@@QAEPAV?$basic_string@DU?$char_traits@D@std@@V?$allocator@D@2@@2@PAV32@ABV32@@Z 0054ed80 f i jsoncppd:json_value.obj
 0001:0014ddf0       ?_Destroy@?$vector@V?$basic_string@DU?$char_traits@D@std@@V?$allocator@D@2@@std@@V?$allocator@V?$basic_string@DU?$char_traits@D@std@@V?$allocator@D@2@@std@@@2@@std@@IAEXPAV?$basic_string@DU?$char_traits@D@std@@V?$allocator@D@2@@2@0@Z 0054edf0 f i jsoncppd:json_value.obj
 0001:0014de50       ?_Ucopy@?$vector@V?$basic_string@DU?$char_traits@D@std@@V?$allocator@D@2@@std@@V?$allocator@V?$basic_string@DU?$char_traits@D@std@@V?$allocator@D@2@@std@@@2@@std@@IAEPAV?$basic_string@DU?$char_traits@D@std@@V?$allocator@D@2@@2@PBV32@0PAV32@@Z 0054ee50 f i jsoncppd:json_value.obj
 0001:0014dec0       ?allocate@?$allocator@V?$basic_string@DU?$char_traits@D@std@@V?$allocator@D@2@@std@@@std@@QAEPAV?$basic_string@DU?$char_traits@D@std@@V?$allocator@D@2@@2@IPBX@Z 0054eec0 f i jsoncppd:json_value.obj
 0001:0014df00       ?deallocate@?$allocator@V?$basic_string@DU?$char_traits@D@std@@V?$allocator@D@2@@std@@@std@@QAEXPAXI@Z 0054ef00 f i jsoncppd:json_value.obj
 0001:0014df40       ?begin@?$vector@PBVPathArgument@Json@@V?$allocator@PBVPathArgument@Json@@@std@@@std@@QAEPAPBVPathArgument@Json@@XZ 0054ef40 f i jsoncppd:json_value.obj
 0001:0014df70       ?insert@?$vector@PBVPathArgument@Json@@V?$allocator@PBVPathArgument@Json@@@std@@@std@@QAEXPAPBVPathArgument@Json@@IABQBV34@@Z 0054ef70 f i jsoncppd:json_value.obj
 0001:0014e1b0       ?destroy@?$allocator@PBVPathArgument@Json@@@std@@QAEXPAPBVPathArgument@Json@@@Z 0054f1b0 f i jsoncppd:json_value.obj
 0001:0014e1f0       ?begin@?$vector@VPathArgument@Json@@V?$allocator@VPathArgument@Json@@@std@@@std@@QAEPAVPathArgument@Json@@XZ 0054f1f0 f i jsoncppd:json_value.obj
 0001:0014e220       ?insert@?$vector@VPathArgument@Json@@V?$allocator@VPathArgument@Json@@@std@@@std@@QAEXPAVPathArgument@Json@@IABV34@@Z 0054f220 f i jsoncppd:json_value.obj
 0001:0014e480       ?destroy@?$allocator@VPathArgument@Json@@@std@@QAEXPAVPathArgument@Json@@@Z 0054f480 f i jsoncppd:json_value.obj
 0001:0014e4c0       ??R_Kfn@?$map@VCZString@Value@Json@@V23@U?$less@VCZString@Value@Json@@@std@@V?$allocator@VValue@Json@@@5@@std@@QBEABVCZString@Value@Json@@ABU?$pair@$$CBVCZString@Value@Json@@V23@@2@@Z 0054f4c0 f i jsoncppd:json_value.obj
 0001:0014e4f0       ??R?$less@VCZString@Value@Json@@@std@@QBE_NABVCZString@Value@Json@@0@Z 0054f4f0 f i jsoncppd:json_value.obj
 0001:0014e530       ?deallocate@?$allocator@VValue@Json@@@std@@QAEXPAXI@Z 0054f530 f i jsoncppd:json_value.obj
 0001:0014e570       ?_Color@?$_Tree@VCZString@Value@Json@@U?$pair@$$CBVCZString@Value@Json@@V23@@std@@U_Kfn@?$map@VCZString@Value@Json@@V23@U?$less@VCZString@Value@Json@@@std@@V?$allocator@VValue@Json@@@5@@5@U?$less@VCZString@Value@Json@@@5@V?$allocator@VValue@Json@@@5@@std@@KAAAW4_Redbl@12@PAU_Node@12@@Z 0054f570 f i jsoncppd:json_value.obj
 0001:0014e5a0       ?_Key@?$_Tree@VCZString@Value@Json@@U?$pair@$$CBVCZString@Value@Json@@V23@@std@@U_Kfn@?$map@VCZString@Value@Json@@V23@U?$less@VCZString@Value@Json@@@std@@V?$allocator@VValue@Json@@@5@@5@U?$less@VCZString@Value@Json@@@5@V?$allocator@VValue@Json@@@5@@std@@KAABVCZString@Value@Json@@PAU_Node@12@@Z 0054f5a0 f i jsoncppd:json_value.obj
 0001:0014e5e0       ?_Left@?$_Tree@VCZString@Value@Json@@U?$pair@$$CBVCZString@Value@Json@@V23@@std@@U_Kfn@?$map@VCZString@Value@Json@@V23@U?$less@VCZString@Value@Json@@@std@@V?$allocator@VValue@Json@@@5@@5@U?$less@VCZString@Value@Json@@@5@V?$allocator@VValue@Json@@@5@@std@@KAAAPAU_Node@12@PAU312@@Z 0054f5e0 f i jsoncppd:json_value.obj
 0001:0014e610       ?_Parent@?$_Tree@VCZString@Value@Json@@U?$pair@$$CBVCZString@Value@Json@@V23@@std@@U_Kfn@?$map@VCZString@Value@Json@@V23@U?$less@VCZString@Value@Json@@@std@@V?$allocator@VValue@Json@@@5@@5@U?$less@VCZString@Value@Json@@@5@V?$allocator@VValue@Json@@@5@@std@@KAAAPAU_Node@12@PAU312@@Z 0054f610 f i jsoncppd:json_value.obj
 0001:0014e640       ?_Right@?$_Tree@VCZString@Value@Json@@U?$pair@$$CBVCZString@Value@Json@@V23@@std@@U_Kfn@?$map@VCZString@Value@Json@@V23@U?$less@VCZString@Value@Json@@@std@@V?$allocator@VValue@Json@@@5@@5@U?$less@VCZString@Value@Json@@@5@V?$allocator@VValue@Json@@@5@@std@@KAAAPAU_Node@12@PAU312@@Z 0054f640 f i jsoncppd:json_value.obj
 0001:0014e670       ?insert@?$_Tree@VCZString@Value@Json@@U?$pair@$$CBVCZString@Value@Json@@V23@@std@@U_Kfn@?$map@VCZString@Value@Json@@V23@U?$less@VCZString@Value@Json@@@std@@V?$allocator@VValue@Json@@@5@@5@U?$less@VCZString@Value@Json@@@5@V?$allocator@VValue@Json@@@5@@std@@QAE?AU?$pair@Viterator@?$_Tree@VCZString@Value@Json@@U?$pair@$$CBVCZString@Value@Json@@V23@@std@@U_Kfn@?$map@VCZString@Value@Json@@V23@U?$less@VCZString@Value@Json@@@std@@V?$allocator@VValue@Json@@@5@@5@U?$less@VCZString@Value@Json@@@5@V?$allocator@VValue@Json@@@5@@std@@_N@2@ABU?$pair@$$CBVCZString@Value@Json@@V23@@2@@Z 0054f670 f i jsoncppd:json_value.obj
 0001:0014e860       ?equal_range@?$_Tree@VCZString@Value@Json@@U?$pair@$$CBVCZString@Value@Json@@V23@@std@@U_Kfn@?$map@VCZString@Value@Json@@V23@U?$less@VCZString@Value@Json@@@std@@V?$allocator@VValue@Json@@@5@@5@U?$less@VCZString@Value@Json@@@5@V?$allocator@VValue@Json@@@5@@std@@QAE?AU?$pair@Viterator@?$_Tree@VCZString@Value@Json@@U?$pair@$$CBVCZString@Value@Json@@V23@@std@@U_Kfn@?$map@VCZString@Value@Json@@V23@U?$less@VCZString@Value@Json@@@std@@V?$allocator@VValue@Json@@@5@@5@U?$less@VCZString@Value@Json@@@5@V?$allocator@VValue@Json@@@5@@std@@V123@@2@ABVCZString@Value@Json@@@Z 0054f860 f i jsoncppd:json_value.obj
 0001:0014e8c0       ?_Copy@?$_Tree@VCZString@Value@Json@@U?$pair@$$CBVCZString@Value@Json@@V23@@std@@U_Kfn@?$map@VCZString@Value@Json@@V23@U?$less@VCZString@Value@Json@@@std@@V?$allocator@VValue@Json@@@5@@5@U?$less@VCZString@Value@Json@@@5@V?$allocator@VValue@Json@@@5@@std@@IAEPAU_Node@12@PAU312@0@Z 0054f8c0 f i jsoncppd:json_value.obj
 0001:0014e9d0       ?_Erase@?$_Tree@VCZString@Value@Json@@U?$pair@$$CBVCZString@Value@Json@@V23@@std@@U_Kfn@?$map@VCZString@Value@Json@@V23@U?$less@VCZString@Value@Json@@@std@@V?$allocator@VValue@Json@@@5@@5@U?$less@VCZString@Value@Json@@@5@V?$allocator@VValue@Json@@@5@@std@@IAEXPAU_Node@12@@Z 0054f9d0 f i jsoncppd:json_value.obj
 0001:0014ea70       ?_Insert@?$_Tree@VCZString@Value@Json@@U?$pair@$$CBVCZString@Value@Json@@V23@@std@@U_Kfn@?$map@VCZString@Value@Json@@V23@U?$less@VCZString@Value@Json@@@std@@V?$allocator@VValue@Json@@@5@@5@U?$less@VCZString@Value@Json@@@5@V?$allocator@VValue@Json@@@5@@std@@IAE?AViterator@12@PAU_Node@12@0ABU?$pair@$$CBVCZString@Value@Json@@V23@@2@@Z 0054fa70 f i jsoncppd:json_value.obj
 0001:0014ef20       ?_Lbound@?$_Tree@VCZString@Value@Json@@U?$pair@$$CBVCZString@Value@Json@@V23@@std@@U_Kfn@?$map@VCZString@Value@Json@@V23@U?$less@VCZString@Value@Json@@@std@@V?$allocator@VValue@Json@@@5@@5@U?$less@VCZString@Value@Json@@@5@V?$allocator@VValue@Json@@@5@@std@@IBEPAU_Node@12@ABVCZString@Value@Json@@@Z 0054ff20 f i jsoncppd:json_value.obj
 0001:0014efd0       ?_Lmost@?$_Tree@VCZString@Value@Json@@U?$pair@$$CBVCZString@Value@Json@@V23@@std@@U_Kfn@?$map@VCZString@Value@Json@@V23@U?$less@VCZString@Value@Json@@@std@@V?$allocator@VValue@Json@@@5@@5@U?$less@VCZString@Value@Json@@@5@V?$allocator@VValue@Json@@@5@@std@@IAEAAPAU_Node@12@XZ 0054ffd0 f i jsoncppd:json_value.obj
 0001:0014f010       ?_Lrotate@?$_Tree@VCZString@Value@Json@@U?$pair@$$CBVCZString@Value@Json@@V23@@std@@U_Kfn@?$map@VCZString@Value@Json@@V23@U?$less@VCZString@Value@Json@@@std@@V?$allocator@VValue@Json@@@5@@5@U?$less@VCZString@Value@Json@@@5@V?$allocator@VValue@Json@@@5@@std@@IAEXPAU_Node@12@@Z 00550010 f i jsoncppd:json_value.obj
 0001:0014f160       ?_Max@?$_Tree@VCZString@Value@Json@@U?$pair@$$CBVCZString@Value@Json@@V23@@std@@U_Kfn@?$map@VCZString@Value@Json@@V23@U?$less@VCZString@Value@Json@@@std@@V?$allocator@VValue@Json@@@5@@5@U?$less@VCZString@Value@Json@@@5@V?$allocator@VValue@Json@@@5@@std@@KAPAU_Node@12@PAU312@@Z 00550160 f i jsoncppd:json_value.obj
 0001:0014f1c0       ?_Min@?$_Tree@VCZString@Value@Json@@U?$pair@$$CBVCZString@Value@Json@@V23@@std@@U_Kfn@?$map@VCZString@Value@Json@@V23@U?$less@VCZString@Value@Json@@@std@@V?$allocator@VValue@Json@@@5@@5@U?$less@VCZString@Value@Json@@@5@V?$allocator@VValue@Json@@@5@@std@@KAPAU_Node@12@PAU312@@Z 005501c0 f i jsoncppd:json_value.obj
 0001:0014f220       ?_Rmost@?$_Tree@VCZString@Value@Json@@U?$pair@$$CBVCZString@Value@Json@@V23@@std@@U_Kfn@?$map@VCZString@Value@Json@@V23@U?$less@VCZString@Value@Json@@@std@@V?$allocator@VValue@Json@@@5@@5@U?$less@VCZString@Value@Json@@@5@V?$allocator@VValue@Json@@@5@@std@@IAEAAPAU_Node@12@XZ 00550220 f i jsoncppd:json_value.obj
 0001:0014f260       ?_Root@?$_Tree@VCZString@Value@Json@@U?$pair@$$CBVCZString@Value@Json@@V23@@std@@U_Kfn@?$map@VCZString@Value@Json@@V23@U?$less@VCZString@Value@Json@@@std@@V?$allocator@VValue@Json@@@5@@5@U?$less@VCZString@Value@Json@@@5@V?$allocator@VValue@Json@@@5@@std@@IAEAAPAU_Node@12@XZ 00550260 f i jsoncppd:json_value.obj
 0001:0014f2a0       ?_Root@?$_Tree@VCZString@Value@Json@@U?$pair@$$CBVCZString@Value@Json@@V23@@std@@U_Kfn@?$map@VCZString@Value@Json@@V23@U?$less@VCZString@Value@Json@@@std@@V?$allocator@VValue@Json@@@5@@5@U?$less@VCZString@Value@Json@@@5@V?$allocator@VValue@Json@@@5@@std@@IBEAAPAU_Node@12@XZ 005502a0 f i jsoncppd:json_value.obj
 0001:0014f2e0       ?_Rrotate@?$_Tree@VCZString@Value@Json@@U?$pair@$$CBVCZString@Value@Json@@V23@@std@@U_Kfn@?$map@VCZString@Value@Json@@V23@U?$less@VCZString@Value@Json@@@std@@V?$allocator@VValue@Json@@@5@@5@U?$less@VCZString@Value@Json@@@5@V?$allocator@VValue@Json@@@5@@std@@IAEXPAU_Node@12@@Z 005502e0 f i jsoncppd:json_value.obj
 0001:0014f430       ?_Buynode@?$_Tree@VCZString@Value@Json@@U?$pair@$$CBVCZString@Value@Json@@V23@@std@@U_Kfn@?$map@VCZString@Value@Json@@V23@U?$less@VCZString@Value@Json@@@std@@V?$allocator@VValue@Json@@@5@@5@U?$less@VCZString@Value@Json@@@5@V?$allocator@VValue@Json@@@5@@std@@IAEPAU_Node@12@PAU312@W4_Redbl@12@@Z 00550430 f i jsoncppd:json_value.obj
 0001:0014f4a0       ?_Destval@?$_Tree@VCZString@Value@Json@@U?$pair@$$CBVCZString@Value@Json@@V23@@std@@U_Kfn@?$map@VCZString@Value@Json@@V23@U?$less@VCZString@Value@Json@@@std@@V?$allocator@VValue@Json@@@5@@5@U?$less@VCZString@Value@Json@@@5@V?$allocator@VValue@Json@@@5@@std@@IAEXPAU?$pair@$$CBVCZString@Value@Json@@V23@@2@@Z 005504a0 f i jsoncppd:json_value.obj
 0001:0014f4e0       ?_Mynode@const_iterator@?$_Tree@VCZString@Value@Json@@U?$pair@$$CBVCZString@Value@Json@@V23@@std@@U_Kfn@?$map@VCZString@Value@Json@@V23@U?$less@VCZString@Value@Json@@@std@@V?$allocator@VValue@Json@@@5@@5@U?$less@VCZString@Value@Json@@@5@V?$allocator@VValue@Json@@@5@@std@@QBEPAU_Node@23@XZ 005504e0 f i jsoncppd:json_value.obj
 0001:0014f510       ??0iterator@?$_Tree@VCZString@Value@Json@@U?$pair@$$CBVCZString@Value@Json@@V23@@std@@U_Kfn@?$map@VCZString@Value@Json@@V23@U?$less@VCZString@Value@Json@@@std@@V?$allocator@VValue@Json@@@5@@5@U?$less@VCZString@Value@Json@@@5@V?$allocator@VValue@Json@@@5@@std@@QAE@PAU_Node@12@@Z 00550510 f i jsoncppd:json_value.obj
 0001:0014f550       ??Eiterator@?$_Tree@VCZString@Value@Json@@U?$pair@$$CBVCZString@Value@Json@@V23@@std@@U_Kfn@?$map@VCZString@Value@Json@@V23@U?$less@VCZString@Value@Json@@@std@@V?$allocator@VValue@Json@@@5@@5@U?$less@VCZString@Value@Json@@@5@V?$allocator@VValue@Json@@@5@@std@@QAE?AV012@H@Z 00550550 f i jsoncppd:json_value.obj
 0001:0014f5a0       ?begin@?$vector@V?$basic_string@DU?$char_traits@D@std@@V?$allocator@D@2@@std@@V?$allocator@V?$basic_string@DU?$char_traits@D@std@@V?$allocator@D@2@@std@@@2@@std@@QAEPAV?$basic_string@DU?$char_traits@D@std@@V?$allocator@D@2@@2@XZ 005505a0 f i jsoncppd:json_value.obj
 0001:0014f5d0       ?insert@?$vector@V?$basic_string@DU?$char_traits@D@std@@V?$allocator@D@2@@std@@V?$allocator@V?$basic_string@DU?$char_traits@D@std@@V?$allocator@D@2@@std@@@2@@std@@QAEXPAV?$basic_string@DU?$char_traits@D@std@@V?$allocator@D@2@@2@IABV32@@Z 005505d0 f i jsoncppd:json_value.obj
 0001:0014f820       ?construct@?$allocator@V?$basic_string@DU?$char_traits@D@std@@V?$allocator@D@2@@std@@@std@@QAEXPAV?$basic_string@DU?$char_traits@D@std@@V?$allocator@D@2@@2@ABV32@@Z 00550820 f i jsoncppd:json_value.obj
 0001:0014f860       ?destroy@?$allocator@V?$basic_string@DU?$char_traits@D@std@@V?$allocator@D@2@@std@@@std@@QAEXPAV?$basic_string@DU?$char_traits@D@std@@V?$allocator@D@2@@2@@Z 00550860 f i jsoncppd:json_value.obj
 0001:0014f8a0       ?size@?$vector@PBVPathArgument@Json@@V?$allocator@PBVPathArgument@Json@@@std@@@std@@QBEIXZ 005508a0 f i jsoncppd:json_value.obj
 0001:0014f8f0       ?_Ucopy@?$vector@PBVPathArgument@Json@@V?$allocator@PBVPathArgument@Json@@@std@@@std@@IAEPAPBVPathArgument@Json@@PBQBV34@0PAPBV34@@Z 005508f0 f i jsoncppd:json_value.obj
 0001:0014f960       ?_Ufill@?$vector@PBVPathArgument@Json@@V?$allocator@PBVPathArgument@Json@@@std@@@std@@IAEXPAPBVPathArgument@Json@@IABQBV34@@Z 00550960 f i jsoncppd:json_value.obj
 0001:0014f9c0       ?allocate@?$allocator@PBVPathArgument@Json@@@std@@QAEPAPBVPathArgument@Json@@IPBX@Z 005509c0 f i jsoncppd:json_value.obj
 0001:0014fa00       ?size@?$vector@VPathArgument@Json@@V?$allocator@VPathArgument@Json@@@std@@@std@@QBEIXZ 00550a00 f i jsoncppd:json_value.obj
 0001:0014fa50       ?_Ucopy@?$vector@VPathArgument@Json@@V?$allocator@VPathArgument@Json@@@std@@@std@@IAEPAVPathArgument@Json@@PBV34@0PAV34@@Z 00550a50 f i jsoncppd:json_value.obj
 0001:0014fac0       ?_Ufill@?$vector@VPathArgument@Json@@V?$allocator@VPathArgument@Json@@@std@@@std@@IAEXPAVPathArgument@Json@@IABV34@@Z 00550ac0 f i jsoncppd:json_value.obj
 0001:0014fb20       ?allocate@?$allocator@VPathArgument@Json@@@std@@QAEPAVPathArgument@Json@@IPBX@Z 00550b20 f i jsoncppd:json_value.obj
 0001:0014fb60       ?_Charalloc@?$allocator@VValue@Json@@@std@@QAEPADI@Z 00550b60 f i jsoncppd:json_value.obj
 0001:0014fba0       ?upper_bound@?$_Tree@VCZString@Value@Json@@U?$pair@$$CBVCZString@Value@Json@@V23@@std@@U_Kfn@?$map@VCZString@Value@Json@@V23@U?$less@VCZString@Value@Json@@@std@@V?$allocator@VValue@Json@@@5@@5@U?$less@VCZString@Value@Json@@@5@V?$allocator@VValue@Json@@@5@@std@@QAE?AViterator@12@ABVCZString@Value@Json@@@Z 00550ba0 f i jsoncppd:json_value.obj
 0001:0014fbf0       ?_Consval@?$_Tree@VCZString@Value@Json@@U?$pair@$$CBVCZString@Value@Json@@V23@@std@@U_Kfn@?$map@VCZString@Value@Json@@V23@U?$less@VCZString@Value@Json@@@std@@V?$allocator@VValue@Json@@@5@@5@U?$less@VCZString@Value@Json@@@5@V?$allocator@VValue@Json@@@5@@std@@IAEXPAU?$pair@$$CBVCZString@Value@Json@@V23@@2@ABU32@@Z 00550bf0 f i jsoncppd:json_value.obj
 0001:0014fc30       ??0const_iterator@?$_Tree@VCZString@Value@Json@@U?$pair@$$CBVCZString@Value@Json@@V23@@std@@U_Kfn@?$map@VCZString@Value@Json@@V23@U?$less@VCZString@Value@Json@@@std@@V?$allocator@VValue@Json@@@5@@5@U?$less@VCZString@Value@Json@@@5@V?$allocator@VValue@Json@@@5@@std@@QAE@PAU_Node@12@@Z 00550c30 f i jsoncppd:json_value.obj
 0001:0014fc70       ?_Ufill@?$vector@V?$basic_string@DU?$char_traits@D@std@@V?$allocator@D@2@@std@@V?$allocator@V?$basic_string@DU?$char_traits@D@std@@V?$allocator@D@2@@std@@@2@@std@@IAEXPAV?$basic_string@DU?$char_traits@D@std@@V?$allocator@D@2@@2@IABV32@@Z 00550c70 f i jsoncppd:json_value.obj
 0001:0014fcd0       ??0?$pair@Viterator@?$_Tree@VCZString@Value@Json@@U?$pair@$$CBVCZString@Value@Json@@V23@@std@@U_Kfn@?$map@VCZString@Value@Json@@V23@U?$less@VCZString@Value@Json@@@std@@V?$allocator@VValue@Json@@@5@@5@U?$less@VCZString@Value@Json@@@5@V?$allocator@VValue@Json@@@5@@std@@_N@std@@QAE@ABViterator@?$_Tree@VCZString@Value@Json@@U?$pair@$$CBVCZString@Value@Json@@V23@@std@@U_Kfn@?$map@VCZString@Value@Json@@V23@U?$less@VCZString@Value@Json@@@std@@V?$allocator@VValue@Json@@@5@@5@U?$less@VCZString@Value@Json@@@5@V?$allocator@VValue@Json@@@5@@1@AB_N@Z 00550cd0 f i jsoncppd:json_value.obj
 0001:0014fd10       ??0?$pair@Viterator@?$_Tree@VCZString@Value@Json@@U?$pair@$$CBVCZString@Value@Json@@V23@@std@@U_Kfn@?$map@VCZString@Value@Json@@V23@U?$less@VCZString@Value@Json@@@std@@V?$allocator@VValue@Json@@@5@@5@U?$less@VCZString@Value@Json@@@5@V?$allocator@VValue@Json@@@5@@std@@V123@@std@@QAE@ABViterator@?$_Tree@VCZString@Value@Json@@U?$pair@$$CBVCZString@Value@Json@@V23@@std@@U_Kfn@?$map@VCZString@Value@Json@@V23@U?$less@VCZString@Value@Json@@@std@@V?$allocator@VValue@Json@@@5@@5@U?$less@VCZString@Value@Json@@@5@V?$allocator@VValue@Json@@@5@@1@0@Z 00550d10 f i jsoncppd:json_value.obj
 0001:0014fd50       ?construct@?$allocator@PBVPathArgument@Json@@@std@@QAEXPAPBVPathArgument@Json@@ABQBV34@@Z 00550d50 f i jsoncppd:json_value.obj
