 TcSgSvr

 Timestamp is 56d833c9 (Thu Mar 03 20:53:29 2016)

 Preferred load address is 00400000

 Start         Length     Name                   Class
 0001:00000000 000e5d64H .text                   CODE
 0001:000e5d70 00000011H .text$AFX_COL1          CODE
 0001:000e5d90 00006532H .text$x                 CODE
 0002:00000000 000006f8H .idata$5                DATA
 0002:000006f8 00008910H .rdata                  DATA
 0002:00009008 0000008cH .rdata$r                DATA
 0002:00009098 00007c48H .xdata$x                DATA
 0002:00010ce0 0000012cH .idata$2                DATA
 0002:00010e0c 00000014H .idata$3                DATA
 0002:00010e20 000006f8H .idata$4                DATA
 0002:00011518 00001f58H .idata$6                DATA
 0002:00013470 00000000H .edata                  DATA
 0003:00000000 00000004H .CRT$XCA                DATA
 0003:00000004 00000130H .CRT$XCU                DATA
 0003:00000134 00000004H .CRT$XCZ                DATA
 0003:00000138 00000004H .CRT$XIA                DATA
 0003:0000013c 00000004H .CRT$XIZ                DATA
 0003:00000140 0000bf21H .data                   DATA
 0003:0000c068 00006c38H .bss                    DATA
 0004:00000000 00000058H .rsrc$01                DATA
 0004:00000060 000005c8H .rsrc$02                DATA

  Address         Publics by Value              Rva+Base     Lib:Object

 0001:000001f7       ?Instance@DataRecord@@SAPAV1@XZ 004011f7 f   DataRecord.obj
 0001:00000272       ?Purge@DataRecord@@SAXXZ   00401272 f   DataRecord.obj
 0001:000002bb       ??0DataRecord@@QAE@XZ      004012bb f   DataRecord.obj
 0001:00000354       ??1DataRecord@@UAE@XZ      00401354 f   DataRecord.obj
 0001:000003e6       ?init@DataRecord@@UAEXQADPAVCGameServer@@@Z 004013e6 f   DataRecord.obj
 0001:00000416       ?ResetInfos@DataRecord@@UAEXXZ 00401416 f   DataRecord.obj
 0001:00000487       ?UpdateInfos@DataRecord@@UAEXPAVCTable@@PAU_tagREFRESH_RESULT_EX@@PAU_tagGAME_RESULT_EX@@@Z 00401487 f   DataRecord.obj
 0001:00000694       ?UpdateRoomBout@DataRecord@@UAEXHH@Z 00401694 f   DataRecord.obj
 0001:00000728       ?SaveInfos@DataRecord@@UAEXH@Z 00401728 f   DataRecord.obj
 0001:00001537       ?ReadInfos@DataRecord@@UAEXXZ 00402537 f   DataRecord.obj
 0001:00001b7a       ?GetRecordFile@DataRecord@@IAE?AVCString@@XZ 00402b7a f   DataRecord.obj
 0001:00001c79       ?FormatStr@DataRecord@@IAEXAAVCString@@H@Z 00402c79 f   DataRecord.obj
 0001:00001ca2       ?FormatOneRowStr@DataRecord@@IAE?AVCString@@QAV2@HH@Z 00402ca2 f   DataRecord.obj
 0001:00001d86       ?SplitStr@DataRecord@@IAEHQAVCString@@HABV2@D_N@Z 00402d86 f   DataRecord.obj
 0001:00001eca       ?GetRoomKeyByNo@DataRecord@@IAEHHH@Z 00402eca f   DataRecord.obj
 0001:00001ef4       ?GetRoomKeyByIndex@DataRecord@@IAEHHH@Z 00402ef4 f   DataRecord.obj
 0001:00001f0d       ?ParseRoomKey@DataRecord@@IAEXHAAH0@Z 00402f0d f   DataRecord.obj
 0001:00001f3a       ?GetTableIndex@DataRecord@@IAEHHH@Z 00402f3a f   DataRecord.obj
 0001:00002207       ?IsTableDepositRoom@DataRecord@@MAEHH@Z 00403207 f   DataRecord.obj
 0001:0000222c       ?GetRoomSvrIniFile@DataRecord@@IAEHHAAVCString@@@Z 0040322c f   DataRecord.obj
 0001:00002260       ??_EDataRecord@@UAEPAXI@Z  00403260 f i DataRecord.obj
 0001:00002260       ??_GDataRecord@@UAEPAXI@Z  00403260 f i DataRecord.obj
 0001:00002290       ??1?$map@HU_tagPlayerInfo@@U?$less@H@std@@V?$allocator@U_tagPlayerInfo@@@3@@std@@QAE@XZ 00403290 f i DataRecord.obj
 0001:000022b0       ??1?$map@HU_tagRoomInfo@@U?$less@H@std@@V?$allocator@U_tagRoomInfo@@@3@@std@@QAE@XZ 004032b0 f i DataRecord.obj
 0001:000022d0       ??Y_tagRoomInfo@@QAEABU0@ABU0@@Z 004032d0 f i DataRecord.obj
 0001:00002370       ??1?$set@HU?$less@H@std@@V?$allocator@H@2@@std@@QAE@XZ 00403370 f i DataRecord.obj
 0001:00002390       ?GetLength@CString@@QBEHXZ 00403390 f i DataRecord.obj
 0001:000023b0       ?GetData@CString@@IBEPAUCStringData@@XZ 004033b0 f i DataRecord.obj
 0001:000023d0       ??BCString@@QBEPBDXZ       004033d0 f i DataRecord.obj
 0001:000023e0       ?GetAt@CString@@QBEDH@Z    004033e0 f i DataRecord.obj
 0001:00002400       ??8@YG_NABVCString@@0@Z    00403400 f i DataRecord.obj
 0001:00002420       ?Compare@CString@@QBEHPBD@Z 00403420 f i DataRecord.obj
 0001:00002440       __tcscmp                   00403440 f i DataRecord.obj
 0001:00002460       ??9@YG_NABVCString@@0@Z    00403460 f i DataRecord.obj
 0001:00002480       ??0CTime@@QAE@ABV0@@Z      00403480 f i DataRecord.obj
 0001:000024a0       ?GetYear@CTime@@QBEHXZ     004034a0 f i DataRecord.obj
 0001:000024c0       ?GetMonth@CTime@@QBEHXZ    004034c0 f i DataRecord.obj
 0001:000024e0       ?GetDay@CTime@@QBEHXZ      004034e0 f i DataRecord.obj
 0001:00002500       ??0?$set@HU?$less@H@std@@V?$allocator@H@2@@std@@QAE@ABU?$less@H@1@ABV?$allocator@H@1@@Z 00403500 f i DataRecord.obj
 0001:00002530       ?begin@?$set@HU?$less@H@std@@V?$allocator@H@2@@std@@QBE?AVconst_iterator@?$_Tree@HHU_Kfn@?$set@HU?$less@H@std@@V?$allocator@H@2@@std@@U?$less@H@3@V?$allocator@H@3@@2@XZ 00403530 f i DataRecord.obj
 0001:00002560       ?end@?$set@HU?$less@H@std@@V?$allocator@H@2@@std@@QAE?AViterator@?$_Tree@HHU_Kfn@?$set@HU?$less@H@std@@V?$allocator@H@2@@std@@U?$less@H@3@V?$allocator@H@3@@2@XZ 00403560 f i DataRecord.obj
 0001:00002590       ?end@?$set@HU?$less@H@std@@V?$allocator@H@2@@std@@QBE?AVconst_iterator@?$_Tree@HHU_Kfn@?$set@HU?$less@H@std@@V?$allocator@H@2@@std@@U?$less@H@3@V?$allocator@H@3@@2@XZ 00403590 f i DataRecord.obj
 0001:000025c0       ?size@?$set@HU?$less@H@std@@V?$allocator@H@2@@std@@QBEIXZ 004035c0 f i DataRecord.obj
 0001:000025e0       ?insert@?$set@HU?$less@H@std@@V?$allocator@H@2@@std@@QAE?AU?$pair@Viterator@?$_Tree@HHU_Kfn@?$set@HU?$less@H@std@@V?$allocator@H@2@@std@@U?$less@H@3@V?$allocator@H@3@@std@@_N@2@ABH@Z 004035e0 f i DataRecord.obj
 0001:00002630       ?find@?$set@HU?$less@H@std@@V?$allocator@H@2@@std@@QAE?AViterator@?$_Tree@HHU_Kfn@?$set@HU?$less@H@std@@V?$allocator@H@2@@std@@U?$less@H@3@V?$allocator@H@3@@2@ABH@Z 00403630 f i DataRecord.obj
 0001:00002660       ??1?$_Tree@HHU_Kfn@?$set@HU?$less@H@std@@V?$allocator@H@2@@std@@U?$less@H@3@V?$allocator@H@3@@std@@QAE@XZ 00403660 f i DataRecord.obj
 0001:00002710       ??Dconst_iterator@?$_Tree@HHU_Kfn@?$set@HU?$less@H@std@@V?$allocator@H@2@@std@@U?$less@H@3@V?$allocator@H@3@@std@@QBEABHXZ 00403710 f i DataRecord.obj
 0001:00002730       ??Econst_iterator@?$_Tree@HHU_Kfn@?$set@HU?$less@H@std@@V?$allocator@H@2@@std@@U?$less@H@3@V?$allocator@H@3@@std@@QAEAAV012@XZ 00403730 f i DataRecord.obj
 0001:00002750       ??9const_iterator@?$_Tree@HHU_Kfn@?$set@HU?$less@H@std@@V?$allocator@H@2@@std@@U?$less@H@3@V?$allocator@H@3@@std@@QBE_NABV012@@Z 00403750 f i DataRecord.obj
 0001:00002780       ??8iterator@?$_Tree@HHU_Kfn@?$set@HU?$less@H@std@@V?$allocator@H@2@@std@@U?$less@H@3@V?$allocator@H@3@@std@@QBE_NABV012@@Z 00403780 f i DataRecord.obj
 0001:000027a0       ??0?$map@HU_tagPlayerInfo@@U?$less@H@std@@V?$allocator@U_tagPlayerInfo@@@3@@std@@QAE@ABU?$less@H@1@ABV?$allocator@U_tagPlayerInfo@@@1@@Z 004037a0 f i DataRecord.obj
 0001:000027d0       ?begin@?$map@HU_tagPlayerInfo@@U?$less@H@std@@V?$allocator@U_tagPlayerInfo@@@3@@std@@QAE?AViterator@?$_Tree@HU?$pair@$$CBHU_tagPlayerInfo@@@std@@U_Kfn@?$map@HU_tagPlayerInfo@@U?$less@H@std@@V?$allocator@U_tagPlayerInfo@@@3@@2@U?$less@H@2@V?$allocator@U_tagPlayerInfo@@@2@@2@XZ 004037d0 f i DataRecord.obj
 0001:00002800       ?end@?$map@HU_tagPlayerInfo@@U?$less@H@std@@V?$allocator@U_tagPlayerInfo@@@3@@std@@QAE?AViterator@?$_Tree@HU?$pair@$$CBHU_tagPlayerInfo@@@std@@U_Kfn@?$map@HU_tagPlayerInfo@@U?$less@H@std@@V?$allocator@U_tagPlayerInfo@@@3@@2@U?$less@H@2@V?$allocator@U_tagPlayerInfo@@@2@@2@XZ 00403800 f i DataRecord.obj
 0001:00002830       ?size@?$map@HU_tagPlayerInfo@@U?$less@H@std@@V?$allocator@U_tagPlayerInfo@@@3@@std@@QBEIXZ 00403830 f i DataRecord.obj
 0001:00002850       ??A?$map@HU_tagPlayerInfo@@U?$less@H@std@@V?$allocator@U_tagPlayerInfo@@@3@@std@@QAEAAU_tagPlayerInfo@@ABH@Z 00403850 f i DataRecord.obj
 0001:000028a0       ??0_tagPlayerInfo@@QAE@XZ  004038a0 f i DataRecord.obj
 0001:000028f0       ?clear@?$map@HU_tagPlayerInfo@@U?$less@H@std@@V?$allocator@U_tagPlayerInfo@@@3@@std@@QAEXXZ 004038f0 f i DataRecord.obj
 0001:00002910       ??1?$_Tree@HU?$pair@$$CBHU_tagPlayerInfo@@@std@@U_Kfn@?$map@HU_tagPlayerInfo@@U?$less@H@std@@V?$allocator@U_tagPlayerInfo@@@3@@2@U?$less@H@2@V?$allocator@U_tagPlayerInfo@@@2@@std@@QAE@XZ 00403910 f i DataRecord.obj
 0001:000029c0       ??Citerator@?$_Tree@HU?$pair@$$CBHU_tagPlayerInfo@@@std@@U_Kfn@?$map@HU_tagPlayerInfo@@U?$less@H@std@@V?$allocator@U_tagPlayerInfo@@@3@@2@U?$less@H@2@V?$allocator@U_tagPlayerInfo@@@2@@std@@QBEPAU?$pair@$$CBHU_tagPlayerInfo@@@2@XZ 004039c0 f i DataRecord.obj
 0001:000029e0       ??Eiterator@?$_Tree@HU?$pair@$$CBHU_tagPlayerInfo@@@std@@U_Kfn@?$map@HU_tagPlayerInfo@@U?$less@H@std@@V?$allocator@U_tagPlayerInfo@@@3@@2@U?$less@H@2@V?$allocator@U_tagPlayerInfo@@@2@@std@@QAEAAV012@XZ 004039e0 f i DataRecord.obj
 0001:00002a00       ??9iterator@?$_Tree@HU?$pair@$$CBHU_tagPlayerInfo@@@std@@U_Kfn@?$map@HU_tagPlayerInfo@@U?$less@H@std@@V?$allocator@U_tagPlayerInfo@@@3@@2@U?$less@H@2@V?$allocator@U_tagPlayerInfo@@@2@@std@@QBE_NABV012@@Z 00403a00 f i DataRecord.obj
 0001:00002a30       ??0?$map@HU_tagRoomInfo@@U?$less@H@std@@V?$allocator@U_tagRoomInfo@@@3@@std@@QAE@ABU?$less@H@1@ABV?$allocator@U_tagRoomInfo@@@1@@Z 00403a30 f i DataRecord.obj
 0001:00002a60       ?begin@?$map@HU_tagRoomInfo@@U?$less@H@std@@V?$allocator@U_tagRoomInfo@@@3@@std@@QAE?AViterator@?$_Tree@HU?$pair@$$CBHU_tagRoomInfo@@@std@@U_Kfn@?$map@HU_tagRoomInfo@@U?$less@H@std@@V?$allocator@U_tagRoomInfo@@@3@@2@U?$less@H@2@V?$allocator@U_tagRoomInfo@@@2@@2@XZ 00403a60 f i DataRecord.obj
 0001:00002a90       ?end@?$map@HU_tagRoomInfo@@U?$less@H@std@@V?$allocator@U_tagRoomInfo@@@3@@std@@QAE?AViterator@?$_Tree@HU?$pair@$$CBHU_tagRoomInfo@@@std@@U_Kfn@?$map@HU_tagRoomInfo@@U?$less@H@std@@V?$allocator@U_tagRoomInfo@@@3@@2@U?$less@H@2@V?$allocator@U_tagRoomInfo@@@2@@2@XZ 00403a90 f i DataRecord.obj
 0001:00002ac0       ??A?$map@HU_tagRoomInfo@@U?$less@H@std@@V?$allocator@U_tagRoomInfo@@@3@@std@@QAEAAU_tagRoomInfo@@ABH@Z 00403ac0 f i DataRecord.obj
 0001:00002b60       ??0_tagRoomInfo@@QAE@XZ    00403b60 f i DataRecord.obj
 0001:00002be0       ??1_tagRoomInfo@@QAE@XZ    00403be0 f i DataRecord.obj
 0001:00002c00       ?clear@?$set@HU?$less@H@std@@V?$allocator@H@2@@std@@QAEXXZ 00403c00 f i DataRecord.obj
 0001:00002c20       ?clear@?$map@HU_tagRoomInfo@@U?$less@H@std@@V?$allocator@U_tagRoomInfo@@@3@@std@@QAEXXZ 00403c20 f i DataRecord.obj
 0001:00002c40       ??1?$_Tree@HU?$pair@$$CBHU_tagRoomInfo@@@std@@U_Kfn@?$map@HU_tagRoomInfo@@U?$less@H@std@@V?$allocator@U_tagRoomInfo@@@3@@2@U?$less@H@2@V?$allocator@U_tagRoomInfo@@@2@@std@@QAE@XZ 00403c40 f i DataRecord.obj
 0001:00002cf0       ??Citerator@?$_Tree@HU?$pair@$$CBHU_tagRoomInfo@@@std@@U_Kfn@?$map@HU_tagRoomInfo@@U?$less@H@std@@V?$allocator@U_tagRoomInfo@@@3@@2@U?$less@H@2@V?$allocator@U_tagRoomInfo@@@2@@std@@QBEPAU?$pair@$$CBHU_tagRoomInfo@@@2@XZ 00403cf0 f i DataRecord.obj
 0001:00002d10       ??Eiterator@?$_Tree@HU?$pair@$$CBHU_tagRoomInfo@@@std@@U_Kfn@?$map@HU_tagRoomInfo@@U?$less@H@std@@V?$allocator@U_tagRoomInfo@@@3@@2@U?$less@H@2@V?$allocator@U_tagRoomInfo@@@2@@std@@QAEAAV012@XZ 00403d10 f i DataRecord.obj
 0001:00002d30       ??9iterator@?$_Tree@HU?$pair@$$CBHU_tagRoomInfo@@@std@@U_Kfn@?$map@HU_tagRoomInfo@@U?$less@H@std@@V?$allocator@U_tagRoomInfo@@@3@@2@U?$less@H@2@V?$allocator@U_tagRoomInfo@@@2@@std@@QBE_NABV012@@Z 00403d30 f i DataRecord.obj
 0001:00002d60       ??1?$pair@$$CBHU_tagRoomInfo@@@std@@QAE@XZ 00403d60 f i DataRecord.obj
 0001:00002d80       ?_Value@?$_Tree@HHU_Kfn@?$set@HU?$less@H@std@@V?$allocator@H@2@@std@@U?$less@H@3@V?$allocator@H@3@@std@@KAAAHPAU_Node@12@@Z 00403d80 f i DataRecord.obj
 0001:00002d90       ??0?$_Tree@HHU_Kfn@?$set@HU?$less@H@std@@V?$allocator@H@2@@std@@U?$less@H@3@V?$allocator@H@3@@std@@QAE@ABU?$less@H@1@_NABV?$allocator@H@1@@Z 00403d90 f i DataRecord.obj
 0001:00002dd0       ?begin@?$_Tree@HHU_Kfn@?$set@HU?$less@H@std@@V?$allocator@H@2@@std@@U?$less@H@3@V?$allocator@H@3@@std@@QAE?AViterator@12@XZ 00403dd0 f i DataRecord.obj
 0001:00002e00       ?begin@?$_Tree@HHU_Kfn@?$set@HU?$less@H@std@@V?$allocator@H@2@@std@@U?$less@H@3@V?$allocator@H@3@@std@@QBE?AVconst_iterator@12@XZ 00403e00 f i DataRecord.obj
 0001:00002e30       ?end@?$_Tree@HHU_Kfn@?$set@HU?$less@H@std@@V?$allocator@H@2@@std@@U?$less@H@3@V?$allocator@H@3@@std@@QAE?AViterator@12@XZ 00403e30 f i DataRecord.obj
 0001:00002e60       ?end@?$_Tree@HHU_Kfn@?$set@HU?$less@H@std@@V?$allocator@H@2@@std@@U?$less@H@3@V?$allocator@H@3@@std@@QBE?AVconst_iterator@12@XZ 00403e60 f i DataRecord.obj
 0001:00002e90       ?size@?$_Tree@HHU_Kfn@?$set@HU?$less@H@std@@V?$allocator@H@2@@std@@U?$less@H@3@V?$allocator@H@3@@std@@QBEIXZ 00403e90 f i DataRecord.obj
 0001:00002eb0       ?insert@?$_Tree@HHU_Kfn@?$set@HU?$less@H@std@@V?$allocator@H@2@@std@@U?$less@H@3@V?$allocator@H@3@@std@@QAE?AU?$pair@Viterator@?$_Tree@HHU_Kfn@?$set@HU?$less@H@std@@V?$allocator@H@2@@std@@U?$less@H@3@V?$allocator@H@3@@std@@_N@2@ABH@Z 00403eb0 f i DataRecord.obj
 0001:000030b0       ?erase@?$_Tree@HHU_Kfn@?$set@HU?$less@H@std@@V?$allocator@H@2@@std@@U?$less@H@3@V?$allocator@H@3@@std@@QAE?AViterator@12@V312@0@Z 004040b0 f i DataRecord.obj
 0001:000031b0       ?clear@?$_Tree@HHU_Kfn@?$set@HU?$less@H@std@@V?$allocator@H@2@@std@@U?$less@H@3@V?$allocator@H@3@@std@@QAEXXZ 004041b0 f i DataRecord.obj
 0001:000031f0       ?find@?$_Tree@HHU_Kfn@?$set@HU?$less@H@std@@V?$allocator@H@2@@std@@U?$less@H@3@V?$allocator@H@3@@std@@QAE?AViterator@12@ABH@Z 004041f0 f i DataRecord.obj
 0001:00003290       ?_Init@?$_Tree@HHU_Kfn@?$set@HU?$less@H@std@@V?$allocator@H@2@@std@@U?$less@H@3@V?$allocator@H@3@@std@@IAEXXZ 00404290 f i DataRecord.obj
 0001:00003390       ?_Freenode@?$_Tree@HHU_Kfn@?$set@HU?$less@H@std@@V?$allocator@H@2@@std@@U?$less@H@3@V?$allocator@H@3@@std@@IAEXPAU_Node@12@@Z 00404390 f i DataRecord.obj
 0001:000033b0       ??8const_iterator@?$_Tree@HHU_Kfn@?$set@HU?$less@H@std@@V?$allocator@H@2@@std@@U?$less@H@3@V?$allocator@H@3@@std@@QBE_NABV012@@Z 004043b0 f i DataRecord.obj
 0001:000033d0       ?_Inc@const_iterator@?$_Tree@HHU_Kfn@?$set@HU?$less@H@std@@V?$allocator@H@2@@std@@U?$less@H@3@V?$allocator@H@3@@std@@QAEXXZ 004043d0 f i DataRecord.obj
 0001:00003470       ??0?$pair@Viterator@?$_Tree@HHU_Kfn@?$set@HU?$less@H@std@@V?$allocator@H@2@@std@@U?$less@H@3@V?$allocator@H@3@@std@@_N@std@@QAE@ABViterator@?$_Tree@HHU_Kfn@?$set@HU?$less@H@std@@V?$allocator@H@2@@std@@U?$less@H@3@V?$allocator@H@3@@1@AB_N@Z 00404470 f i DataRecord.obj
 0001:000034a0       ?insert@?$map@HU_tagPlayerInfo@@U?$less@H@std@@V?$allocator@U_tagPlayerInfo@@@3@@std@@QAE?AU?$pair@Viterator@?$_Tree@HU?$pair@$$CBHU_tagPlayerInfo@@@std@@U_Kfn@?$map@HU_tagPlayerInfo@@U?$less@H@std@@V?$allocator@U_tagPlayerInfo@@@3@@2@U?$less@H@2@V?$allocator@U_tagPlayerInfo@@@2@@std@@_N@2@ABU?$pair@$$CBHU_tagPlayerInfo@@@2@@Z 004044a0 f i DataRecord.obj
 0001:000034f0       ??0?$_Tree@HU?$pair@$$CBHU_tagPlayerInfo@@@std@@U_Kfn@?$map@HU_tagPlayerInfo@@U?$less@H@std@@V?$allocator@U_tagPlayerInfo@@@3@@2@U?$less@H@2@V?$allocator@U_tagPlayerInfo@@@2@@std@@QAE@ABU?$less@H@1@_NABV?$allocator@U_tagPlayerInfo@@@1@@Z 004044f0 f i DataRecord.obj
 0001:00003530       ?begin@?$_Tree@HU?$pair@$$CBHU_tagPlayerInfo@@@std@@U_Kfn@?$map@HU_tagPlayerInfo@@U?$less@H@std@@V?$allocator@U_tagPlayerInfo@@@3@@2@U?$less@H@2@V?$allocator@U_tagPlayerInfo@@@2@@std@@QAE?AViterator@12@XZ 00404530 f i DataRecord.obj
 0001:00003560       ?end@?$_Tree@HU?$pair@$$CBHU_tagPlayerInfo@@@std@@U_Kfn@?$map@HU_tagPlayerInfo@@U?$less@H@std@@V?$allocator@U_tagPlayerInfo@@@3@@2@U?$less@H@2@V?$allocator@U_tagPlayerInfo@@@2@@std@@QAE?AViterator@12@XZ 00404560 f i DataRecord.obj
 0001:00003590       ?size@?$_Tree@HU?$pair@$$CBHU_tagPlayerInfo@@@std@@U_Kfn@?$map@HU_tagPlayerInfo@@U?$less@H@std@@V?$allocator@U_tagPlayerInfo@@@3@@2@U?$less@H@2@V?$allocator@U_tagPlayerInfo@@@2@@std@@QBEIXZ 00404590 f i DataRecord.obj
 0001:000035b0       ?erase@?$_Tree@HU?$pair@$$CBHU_tagPlayerInfo@@@std@@U_Kfn@?$map@HU_tagPlayerInfo@@U?$less@H@std@@V?$allocator@U_tagPlayerInfo@@@3@@2@U?$less@H@2@V?$allocator@U_tagPlayerInfo@@@2@@std@@QAE?AViterator@12@V312@0@Z 004045b0 f i DataRecord.obj
 0001:000036b0       ?clear@?$_Tree@HU?$pair@$$CBHU_tagPlayerInfo@@@std@@U_Kfn@?$map@HU_tagPlayerInfo@@U?$less@H@std@@V?$allocator@U_tagPlayerInfo@@@3@@2@U?$less@H@2@V?$allocator@U_tagPlayerInfo@@@2@@std@@QAEXXZ 004046b0 f i DataRecord.obj
 0001:000036f0       ?_Freenode@?$_Tree@HU?$pair@$$CBHU_tagPlayerInfo@@@std@@U_Kfn@?$map@HU_tagPlayerInfo@@U?$less@H@std@@V?$allocator@U_tagPlayerInfo@@@3@@2@U?$less@H@2@V?$allocator@U_tagPlayerInfo@@@2@@std@@IAEXPAU_Node@12@@Z 004046f0 f i DataRecord.obj
 0001:00003710       ??0?$pair@$$CBHU_tagPlayerInfo@@@std@@QAE@ABHABU_tagPlayerInfo@@@Z 00404710 f i DataRecord.obj
 0001:00003740       ?_Inc@const_iterator@?$_Tree@HU?$pair@$$CBHU_tagPlayerInfo@@@std@@U_Kfn@?$map@HU_tagPlayerInfo@@U?$less@H@std@@V?$allocator@U_tagPlayerInfo@@@3@@2@U?$less@H@2@V?$allocator@U_tagPlayerInfo@@@2@@std@@QAEXXZ 00404740 f i DataRecord.obj
 0001:000037e0       ??Diterator@?$_Tree@HU?$pair@$$CBHU_tagPlayerInfo@@@std@@U_Kfn@?$map@HU_tagPlayerInfo@@U?$less@H@std@@V?$allocator@U_tagPlayerInfo@@@3@@2@U?$less@H@2@V?$allocator@U_tagPlayerInfo@@@2@@std@@QBEAAU?$pair@$$CBHU_tagPlayerInfo@@@2@XZ 004047e0 f i DataRecord.obj
 0001:00003800       ??8iterator@?$_Tree@HU?$pair@$$CBHU_tagPlayerInfo@@@std@@U_Kfn@?$map@HU_tagPlayerInfo@@U?$less@H@std@@V?$allocator@U_tagPlayerInfo@@@3@@2@U?$less@H@2@V?$allocator@U_tagPlayerInfo@@@2@@std@@QBE_NABV012@@Z 00404800 f i DataRecord.obj
 0001:00003820       ?insert@?$map@HU_tagRoomInfo@@U?$less@H@std@@V?$allocator@U_tagRoomInfo@@@3@@std@@QAE?AU?$pair@Viterator@?$_Tree@HU?$pair@$$CBHU_tagRoomInfo@@@std@@U_Kfn@?$map@HU_tagRoomInfo@@U?$less@H@std@@V?$allocator@U_tagRoomInfo@@@3@@2@U?$less@H@2@V?$allocator@U_tagRoomInfo@@@2@@std@@_N@2@ABU?$pair@$$CBHU_tagRoomInfo@@@2@@Z 00404820 f i DataRecord.obj
 0001:00003870       ??0?$_Tree@HU?$pair@$$CBHU_tagRoomInfo@@@std@@U_Kfn@?$map@HU_tagRoomInfo@@U?$less@H@std@@V?$allocator@U_tagRoomInfo@@@3@@2@U?$less@H@2@V?$allocator@U_tagRoomInfo@@@2@@std@@QAE@ABU?$less@H@1@_NABV?$allocator@U_tagRoomInfo@@@1@@Z 00404870 f i DataRecord.obj
 0001:000038b0       ?begin@?$_Tree@HU?$pair@$$CBHU_tagRoomInfo@@@std@@U_Kfn@?$map@HU_tagRoomInfo@@U?$less@H@std@@V?$allocator@U_tagRoomInfo@@@3@@2@U?$less@H@2@V?$allocator@U_tagRoomInfo@@@2@@std@@QAE?AViterator@12@XZ 004048b0 f i DataRecord.obj
 0001:000038e0       ?end@?$_Tree@HU?$pair@$$CBHU_tagRoomInfo@@@std@@U_Kfn@?$map@HU_tagRoomInfo@@U?$less@H@std@@V?$allocator@U_tagRoomInfo@@@3@@2@U?$less@H@2@V?$allocator@U_tagRoomInfo@@@2@@std@@QAE?AViterator@12@XZ 004048e0 f i DataRecord.obj
 0001:00003910       ?erase@?$_Tree@HU?$pair@$$CBHU_tagRoomInfo@@@std@@U_Kfn@?$map@HU_tagRoomInfo@@U?$less@H@std@@V?$allocator@U_tagRoomInfo@@@3@@2@U?$less@H@2@V?$allocator@U_tagRoomInfo@@@2@@std@@QAE?AViterator@12@V312@0@Z 00404910 f i DataRecord.obj
 0001:00003a10       ?clear@?$_Tree@HU?$pair@$$CBHU_tagRoomInfo@@@std@@U_Kfn@?$map@HU_tagRoomInfo@@U?$less@H@std@@V?$allocator@U_tagRoomInfo@@@3@@2@U?$less@H@2@V?$allocator@U_tagRoomInfo@@@2@@std@@QAEXXZ 00404a10 f i DataRecord.obj
 0001:00003a50       ?_Freenode@?$_Tree@HU?$pair@$$CBHU_tagRoomInfo@@@std@@U_Kfn@?$map@HU_tagRoomInfo@@U?$less@H@std@@V?$allocator@U_tagRoomInfo@@@3@@2@U?$less@H@2@V?$allocator@U_tagRoomInfo@@@2@@std@@IAEXPAU_Node@12@@Z 00404a50 f i DataRecord.obj
 0001:00003a70       ??0?$pair@$$CBHU_tagRoomInfo@@@std@@QAE@ABHABU_tagRoomInfo@@@Z 00404a70 f i DataRecord.obj
 0001:00003aa0       ??0_tagRoomInfo@@QAE@ABU0@@Z 00404aa0 f i DataRecord.obj
 0001:00003ae0       ??0?$set@HU?$less@H@std@@V?$allocator@H@2@@std@@QAE@ABV01@@Z 00404ae0 f i DataRecord.obj
 0001:00003b00       ??0?$_Tree@HHU_Kfn@?$set@HU?$less@H@std@@V?$allocator@H@2@@std@@U?$less@H@3@V?$allocator@H@3@@std@@QAE@ABV01@@Z 00404b00 f i DataRecord.obj
 0001:00003b50       ?_Copy@?$_Tree@HHU_Kfn@?$set@HU?$less@H@std@@V?$allocator@H@2@@std@@U?$less@H@3@V?$allocator@H@3@@std@@IAEXABV12@@Z 00404b50 f i DataRecord.obj
 0001:00003c10       ?_Inc@const_iterator@?$_Tree@HU?$pair@$$CBHU_tagRoomInfo@@@std@@U_Kfn@?$map@HU_tagRoomInfo@@U?$less@H@std@@V?$allocator@U_tagRoomInfo@@@3@@2@U?$less@H@2@V?$allocator@U_tagRoomInfo@@@2@@std@@QAEXXZ 00404c10 f i DataRecord.obj
 0001:00003cb0       ??Diterator@?$_Tree@HU?$pair@$$CBHU_tagRoomInfo@@@std@@U_Kfn@?$map@HU_tagRoomInfo@@U?$less@H@std@@V?$allocator@U_tagRoomInfo@@@3@@2@U?$less@H@2@V?$allocator@U_tagRoomInfo@@@2@@std@@QBEAAU?$pair@$$CBHU_tagRoomInfo@@@2@XZ 00404cb0 f i DataRecord.obj
 0001:00003cd0       ??8iterator@?$_Tree@HU?$pair@$$CBHU_tagRoomInfo@@@std@@U_Kfn@?$map@HU_tagRoomInfo@@U?$less@H@std@@V?$allocator@U_tagRoomInfo@@@3@@2@U?$less@H@2@V?$allocator@U_tagRoomInfo@@@2@@std@@QBE_NABV012@@Z 00404cd0 f i DataRecord.obj
 0001:00003cf0       ??R?$less@H@std@@QBE_NABH0@Z 00404cf0 f i DataRecord.obj
 0001:00003d10       ??R_Kfn@?$set@HU?$less@H@std@@V?$allocator@H@2@@std@@QBEABHABH@Z 00404d10 f i DataRecord.obj
 0001:00003d20       ?_Key@?$_Tree@HHU_Kfn@?$set@HU?$less@H@std@@V?$allocator@H@2@@std@@U?$less@H@3@V?$allocator@H@3@@std@@KAABHPAU_Node@12@@Z 00404d20 f i DataRecord.obj
 0001:00003d40       ?_Left@?$_Tree@HHU_Kfn@?$set@HU?$less@H@std@@V?$allocator@H@2@@std@@U?$less@H@3@V?$allocator@H@3@@std@@KAAAPAU_Node@12@PAU312@@Z 00404d40 f i DataRecord.obj
 0001:00003d50       ?_Parent@?$_Tree@HHU_Kfn@?$set@HU?$less@H@std@@V?$allocator@H@2@@std@@U?$less@H@3@V?$allocator@H@3@@std@@KAAAPAU_Node@12@PAU312@@Z 00404d50 f i DataRecord.obj
 0001:00003d60       ?_Right@?$_Tree@HHU_Kfn@?$set@HU?$less@H@std@@V?$allocator@H@2@@std@@U?$less@H@3@V?$allocator@H@3@@std@@KAAAPAU_Node@12@PAU312@@Z 00404d60 f i DataRecord.obj
 0001:00003d70       ?erase@?$_Tree@HHU_Kfn@?$set@HU?$less@H@std@@V?$allocator@H@2@@std@@U?$less@H@3@V?$allocator@H@3@@std@@QAE?AViterator@12@V312@@Z 00404d70 f i DataRecord.obj
 0001:000045c0       ?lower_bound@?$_Tree@HHU_Kfn@?$set@HU?$less@H@std@@V?$allocator@H@2@@std@@U?$less@H@3@V?$allocator@H@3@@std@@QAE?AViterator@12@ABH@Z 004055c0 f i DataRecord.obj
 0001:000045f0       ?_Copy@?$_Tree@HHU_Kfn@?$set@HU?$less@H@std@@V?$allocator@H@2@@std@@U?$less@H@3@V?$allocator@H@3@@std@@IAEPAU_Node@12@PAU312@0@Z 004055f0 f i DataRecord.obj
 0001:000046e0       ?_Erase@?$_Tree@HHU_Kfn@?$set@HU?$less@H@std@@V?$allocator@H@2@@std@@U?$less@H@3@V?$allocator@H@3@@std@@IAEXPAU_Node@12@@Z 004056e0 f i DataRecord.obj
 0001:00004760       ?_Insert@?$_Tree@HHU_Kfn@?$set@HU?$less@H@std@@V?$allocator@H@2@@std@@U?$less@H@3@V?$allocator@H@3@@std@@IAE?AViterator@12@PAU_Node@12@0ABH@Z 00405760 f i DataRecord.obj
 0001:00004bf0       ?_Lmost@?$_Tree@HHU_Kfn@?$set@HU?$less@H@std@@V?$allocator@H@2@@std@@U?$less@H@3@V?$allocator@H@3@@std@@IAEAAPAU_Node@12@XZ 00405bf0 f i DataRecord.obj
 0001:00004c10       ?_Lmost@?$_Tree@HHU_Kfn@?$set@HU?$less@H@std@@V?$allocator@H@2@@std@@U?$less@H@3@V?$allocator@H@3@@std@@IBEAAPAU_Node@12@XZ 00405c10 f i DataRecord.obj
 0001:00004c30       ?_Max@?$_Tree@HHU_Kfn@?$set@HU?$less@H@std@@V?$allocator@H@2@@std@@U?$less@H@3@V?$allocator@H@3@@std@@KAPAU_Node@12@PAU312@@Z 00405c30 f i DataRecord.obj
 0001:00004c70       ?_Min@?$_Tree@HHU_Kfn@?$set@HU?$less@H@std@@V?$allocator@H@2@@std@@U?$less@H@3@V?$allocator@H@3@@std@@KAPAU_Node@12@PAU312@@Z 00405c70 f i DataRecord.obj
 0001:00004cb0       ?_Rmost@?$_Tree@HHU_Kfn@?$set@HU?$less@H@std@@V?$allocator@H@2@@std@@U?$less@H@3@V?$allocator@H@3@@std@@IAEAAPAU_Node@12@XZ 00405cb0 f i DataRecord.obj
 0001:00004cd0       ?_Root@?$_Tree@HHU_Kfn@?$set@HU?$less@H@std@@V?$allocator@H@2@@std@@U?$less@H@3@V?$allocator@H@3@@std@@IAEAAPAU_Node@12@XZ 00405cd0 f i DataRecord.obj
 0001:00004cf0       ?_Root@?$_Tree@HHU_Kfn@?$set@HU?$less@H@std@@V?$allocator@H@2@@std@@U?$less@H@3@V?$allocator@H@3@@std@@IBEAAPAU_Node@12@XZ 00405cf0 f i DataRecord.obj
 0001:00004d10       ?_Buynode@?$_Tree@HHU_Kfn@?$set@HU?$less@H@std@@V?$allocator@H@2@@std@@U?$less@H@3@V?$allocator@H@3@@std@@IAEPAU_Node@12@PAU312@W4_Redbl@12@@Z 00405d10 f i DataRecord.obj
 0001:00004d60       ?deallocate@?$allocator@H@std@@QAEXPAXI@Z 00405d60 f i DataRecord.obj
 0001:00004d80       ??0const_iterator@?$_Tree@HHU_Kfn@?$set@HU?$less@H@std@@V?$allocator@H@2@@std@@U?$less@H@3@V?$allocator@H@3@@std@@QAE@PAU_Node@12@@Z 00405d80 f i DataRecord.obj
 0001:00004da0       ?_Mynode@const_iterator@?$_Tree@HHU_Kfn@?$set@HU?$less@H@std@@V?$allocator@H@2@@std@@U?$less@H@3@V?$allocator@H@3@@std@@QBEPAU_Node@23@XZ 00405da0 f i DataRecord.obj
 0001:00004db0       ??0iterator@?$_Tree@HHU_Kfn@?$set@HU?$less@H@std@@V?$allocator@H@2@@std@@U?$less@H@3@V?$allocator@H@3@@std@@QAE@PAU_Node@12@@Z 00405db0 f i DataRecord.obj
 0001:00004dd0       ??Eiterator@?$_Tree@HHU_Kfn@?$set@HU?$less@H@std@@V?$allocator@H@2@@std@@U?$less@H@3@V?$allocator@H@3@@std@@QAE?AV012@H@Z 00405dd0 f i DataRecord.obj
 0001:00004e00       ??Fiterator@?$_Tree@HHU_Kfn@?$set@HU?$less@H@std@@V?$allocator@H@2@@std@@U?$less@H@3@V?$allocator@H@3@@std@@QAEAAV012@XZ 00405e00 f i DataRecord.obj
 0001:00004e20       ??9iterator@?$_Tree@HHU_Kfn@?$set@HU?$less@H@std@@V?$allocator@H@2@@std@@U?$less@H@3@V?$allocator@H@3@@std@@QBE_NABV012@@Z 00405e20 f i DataRecord.obj
 0001:00004e50       ?deallocate@?$allocator@U_tagPlayerInfo@@@std@@QAEXPAXI@Z 00405e50 f i DataRecord.obj
 0001:00004e70       ?_Parent@?$_Tree@HU?$pair@$$CBHU_tagPlayerInfo@@@std@@U_Kfn@?$map@HU_tagPlayerInfo@@U?$less@H@std@@V?$allocator@U_tagPlayerInfo@@@3@@2@U?$less@H@2@V?$allocator@U_tagPlayerInfo@@@2@@std@@KAAAPAU_Node@12@PAU312@@Z 00405e70 f i DataRecord.obj
 0001:00004e80       ?_Right@?$_Tree@HU?$pair@$$CBHU_tagPlayerInfo@@@std@@U_Kfn@?$map@HU_tagPlayerInfo@@U?$less@H@std@@V?$allocator@U_tagPlayerInfo@@@3@@2@U?$less@H@2@V?$allocator@U_tagPlayerInfo@@@2@@std@@KAAAPAU_Node@12@PAU312@@Z 00405e80 f i DataRecord.obj
 0001:00004e90       ?_Value@?$_Tree@HU?$pair@$$CBHU_tagPlayerInfo@@@std@@U_Kfn@?$map@HU_tagPlayerInfo@@U?$less@H@std@@V?$allocator@U_tagPlayerInfo@@@3@@2@U?$less@H@2@V?$allocator@U_tagPlayerInfo@@@2@@std@@KAAAU?$pair@$$CBHU_tagPlayerInfo@@@2@PAU_Node@12@@Z 00405e90 f i DataRecord.obj
 0001:00004ea0       ?insert@?$_Tree@HU?$pair@$$CBHU_tagPlayerInfo@@@std@@U_Kfn@?$map@HU_tagPlayerInfo@@U?$less@H@std@@V?$allocator@U_tagPlayerInfo@@@3@@2@U?$less@H@2@V?$allocator@U_tagPlayerInfo@@@2@@std@@QAE?AU?$pair@Viterator@?$_Tree@HU?$pair@$$CBHU_tagPlayerInfo@@@std@@U_Kfn@?$map@HU_tagPlayerInfo@@U?$less@H@std@@V?$allocator@U_tagPlayerInfo@@@3@@2@U?$less@H@2@V?$allocator@U_tagPlayerInfo@@@2@@std@@_N@2@ABU?$pair@$$CBHU_tagPlayerInfo@@@2@@Z 00405ea0 f i DataRecord.obj
 0001:000050a0       ?erase@?$_Tree@HU?$pair@$$CBHU_tagPlayerInfo@@@std@@U_Kfn@?$map@HU_tagPlayerInfo@@U?$less@H@std@@V?$allocator@U_tagPlayerInfo@@@3@@2@U?$less@H@2@V?$allocator@U_tagPlayerInfo@@@2@@std@@QAE?AViterator@12@V312@@Z 004060a0 f i DataRecord.obj
 0001:000058f0       ?_Erase@?$_Tree@HU?$pair@$$CBHU_tagPlayerInfo@@@std@@U_Kfn@?$map@HU_tagPlayerInfo@@U?$less@H@std@@V?$allocator@U_tagPlayerInfo@@@3@@2@U?$less@H@2@V?$allocator@U_tagPlayerInfo@@@2@@std@@IAEXPAU_Node@12@@Z 004068f0 f i DataRecord.obj
 0001:00005970       ?_Init@?$_Tree@HU?$pair@$$CBHU_tagPlayerInfo@@@std@@U_Kfn@?$map@HU_tagPlayerInfo@@U?$less@H@std@@V?$allocator@U_tagPlayerInfo@@@3@@2@U?$less@H@2@V?$allocator@U_tagPlayerInfo@@@2@@std@@IAEXXZ 00406970 f i DataRecord.obj
 0001:00005a70       ?_Lmost@?$_Tree@HU?$pair@$$CBHU_tagPlayerInfo@@@std@@U_Kfn@?$map@HU_tagPlayerInfo@@U?$less@H@std@@V?$allocator@U_tagPlayerInfo@@@3@@2@U?$less@H@2@V?$allocator@U_tagPlayerInfo@@@2@@std@@IAEAAPAU_Node@12@XZ 00406a70 f i DataRecord.obj
 0001:00005a90       ?_Min@?$_Tree@HU?$pair@$$CBHU_tagPlayerInfo@@@std@@U_Kfn@?$map@HU_tagPlayerInfo@@U?$less@H@std@@V?$allocator@U_tagPlayerInfo@@@3@@2@U?$less@H@2@V?$allocator@U_tagPlayerInfo@@@2@@std@@KAPAU_Node@12@PAU312@@Z 00406a90 f i DataRecord.obj
 0001:00005ad0       ?_Rmost@?$_Tree@HU?$pair@$$CBHU_tagPlayerInfo@@@std@@U_Kfn@?$map@HU_tagPlayerInfo@@U?$less@H@std@@V?$allocator@U_tagPlayerInfo@@@3@@2@U?$less@H@2@V?$allocator@U_tagPlayerInfo@@@2@@std@@IAEAAPAU_Node@12@XZ 00406ad0 f i DataRecord.obj
 0001:00005af0       ?_Root@?$_Tree@HU?$pair@$$CBHU_tagPlayerInfo@@@std@@U_Kfn@?$map@HU_tagPlayerInfo@@U?$less@H@std@@V?$allocator@U_tagPlayerInfo@@@3@@2@U?$less@H@2@V?$allocator@U_tagPlayerInfo@@@2@@std@@IAEAAPAU_Node@12@XZ 00406af0 f i DataRecord.obj
 0001:00005b10       ??0iterator@?$_Tree@HU?$pair@$$CBHU_tagPlayerInfo@@@std@@U_Kfn@?$map@HU_tagPlayerInfo@@U?$less@H@std@@V?$allocator@U_tagPlayerInfo@@@3@@2@U?$less@H@2@V?$allocator@U_tagPlayerInfo@@@2@@std@@QAE@PAU_Node@12@@Z 00406b10 f i DataRecord.obj
 0001:00005b30       ??Eiterator@?$_Tree@HU?$pair@$$CBHU_tagPlayerInfo@@@std@@U_Kfn@?$map@HU_tagPlayerInfo@@U?$less@H@std@@V?$allocator@U_tagPlayerInfo@@@3@@2@U?$less@H@2@V?$allocator@U_tagPlayerInfo@@@2@@std@@QAE?AV012@H@Z 00406b30 f i DataRecord.obj
 0001:00005b60       ?deallocate@?$allocator@U_tagRoomInfo@@@std@@QAEXPAXI@Z 00406b60 f i DataRecord.obj
 0001:00005b80       ?_Parent@?$_Tree@HU?$pair@$$CBHU_tagRoomInfo@@@std@@U_Kfn@?$map@HU_tagRoomInfo@@U?$less@H@std@@V?$allocator@U_tagRoomInfo@@@3@@2@U?$less@H@2@V?$allocator@U_tagRoomInfo@@@2@@std@@KAAAPAU_Node@12@PAU312@@Z 00406b80 f i DataRecord.obj
 0001:00005b90       ?_Right@?$_Tree@HU?$pair@$$CBHU_tagRoomInfo@@@std@@U_Kfn@?$map@HU_tagRoomInfo@@U?$less@H@std@@V?$allocator@U_tagRoomInfo@@@3@@2@U?$less@H@2@V?$allocator@U_tagRoomInfo@@@2@@std@@KAAAPAU_Node@12@PAU312@@Z 00406b90 f i DataRecord.obj
 0001:00005ba0       ?_Value@?$_Tree@HU?$pair@$$CBHU_tagRoomInfo@@@std@@U_Kfn@?$map@HU_tagRoomInfo@@U?$less@H@std@@V?$allocator@U_tagRoomInfo@@@3@@2@U?$less@H@2@V?$allocator@U_tagRoomInfo@@@2@@std@@KAAAU?$pair@$$CBHU_tagRoomInfo@@@2@PAU_Node@12@@Z 00406ba0 f i DataRecord.obj
 0001:00005bb0       ?size@?$_Tree@HU?$pair@$$CBHU_tagRoomInfo@@@std@@U_Kfn@?$map@HU_tagRoomInfo@@U?$less@H@std@@V?$allocator@U_tagRoomInfo@@@3@@2@U?$less@H@2@V?$allocator@U_tagRoomInfo@@@2@@std@@QBEIXZ 00406bb0 f i DataRecord.obj
 0001:00005bd0       ?insert@?$_Tree@HU?$pair@$$CBHU_tagRoomInfo@@@std@@U_Kfn@?$map@HU_tagRoomInfo@@U?$less@H@std@@V?$allocator@U_tagRoomInfo@@@3@@2@U?$less@H@2@V?$allocator@U_tagRoomInfo@@@2@@std@@QAE?AU?$pair@Viterator@?$_Tree@HU?$pair@$$CBHU_tagRoomInfo@@@std@@U_Kfn@?$map@HU_tagRoomInfo@@U?$less@H@std@@V?$allocator@U_tagRoomInfo@@@3@@2@U?$less@H@2@V?$allocator@U_tagRoomInfo@@@2@@std@@_N@2@ABU?$pair@$$CBHU_tagRoomInfo@@@2@@Z 00406bd0 f i DataRecord.obj
 0001:00005dd0       ?erase@?$_Tree@HU?$pair@$$CBHU_tagRoomInfo@@@std@@U_Kfn@?$map@HU_tagRoomInfo@@U?$less@H@std@@V?$allocator@U_tagRoomInfo@@@3@@2@U?$less@H@2@V?$allocator@U_tagRoomInfo@@@2@@std@@QAE?AViterator@12@V312@@Z 00406dd0 f i DataRecord.obj
 0001:00006620       ?_Erase@?$_Tree@HU?$pair@$$CBHU_tagRoomInfo@@@std@@U_Kfn@?$map@HU_tagRoomInfo@@U?$less@H@std@@V?$allocator@U_tagRoomInfo@@@3@@2@U?$less@H@2@V?$allocator@U_tagRoomInfo@@@2@@std@@IAEXPAU_Node@12@@Z 00407620 f i DataRecord.obj
 0001:000066a0       ?_Init@?$_Tree@HU?$pair@$$CBHU_tagRoomInfo@@@std@@U_Kfn@?$map@HU_tagRoomInfo@@U?$less@H@std@@V?$allocator@U_tagRoomInfo@@@3@@2@U?$less@H@2@V?$allocator@U_tagRoomInfo@@@2@@std@@IAEXXZ 004076a0 f i DataRecord.obj
 0001:000067a0       ?_Lmost@?$_Tree@HU?$pair@$$CBHU_tagRoomInfo@@@std@@U_Kfn@?$map@HU_tagRoomInfo@@U?$less@H@std@@V?$allocator@U_tagRoomInfo@@@3@@2@U?$less@H@2@V?$allocator@U_tagRoomInfo@@@2@@std@@IAEAAPAU_Node@12@XZ 004077a0 f i DataRecord.obj
 0001:000067c0       ?_Min@?$_Tree@HU?$pair@$$CBHU_tagRoomInfo@@@std@@U_Kfn@?$map@HU_tagRoomInfo@@U?$less@H@std@@V?$allocator@U_tagRoomInfo@@@3@@2@U?$less@H@2@V?$allocator@U_tagRoomInfo@@@2@@std@@KAPAU_Node@12@PAU312@@Z 004077c0 f i DataRecord.obj
 0001:00006800       ?_Rmost@?$_Tree@HU?$pair@$$CBHU_tagRoomInfo@@@std@@U_Kfn@?$map@HU_tagRoomInfo@@U?$less@H@std@@V?$allocator@U_tagRoomInfo@@@3@@2@U?$less@H@2@V?$allocator@U_tagRoomInfo@@@2@@std@@IAEAAPAU_Node@12@XZ 00407800 f i DataRecord.obj
 0001:00006820       ?_Root@?$_Tree@HU?$pair@$$CBHU_tagRoomInfo@@@std@@U_Kfn@?$map@HU_tagRoomInfo@@U?$less@H@std@@V?$allocator@U_tagRoomInfo@@@3@@2@U?$less@H@2@V?$allocator@U_tagRoomInfo@@@2@@std@@IAEAAPAU_Node@12@XZ 00407820 f i DataRecord.obj
 0001:00006840       ??0iterator@?$_Tree@HU?$pair@$$CBHU_tagRoomInfo@@@std@@U_Kfn@?$map@HU_tagRoomInfo@@U?$less@H@std@@V?$allocator@U_tagRoomInfo@@@3@@2@U?$less@H@2@V?$allocator@U_tagRoomInfo@@@2@@std@@QAE@PAU_Node@12@@Z 00407840 f i DataRecord.obj
 0001:00006860       ??Eiterator@?$_Tree@HU?$pair@$$CBHU_tagRoomInfo@@@std@@U_Kfn@?$map@HU_tagRoomInfo@@U?$less@H@std@@V?$allocator@U_tagRoomInfo@@@3@@2@U?$less@H@2@V?$allocator@U_tagRoomInfo@@@2@@std@@QAE?AV012@H@Z 00407860 f i DataRecord.obj
 0001:00006890       ??0?$pair@Viterator@?$_Tree@HU?$pair@$$CBHU_tagPlayerInfo@@@std@@U_Kfn@?$map@HU_tagPlayerInfo@@U?$less@H@std@@V?$allocator@U_tagPlayerInfo@@@3@@2@U?$less@H@2@V?$allocator@U_tagPlayerInfo@@@2@@std@@_N@std@@QAE@ABViterator@?$_Tree@HU?$pair@$$CBHU_tagPlayerInfo@@@std@@U_Kfn@?$map@HU_tagPlayerInfo@@U?$less@H@std@@V?$allocator@U_tagPlayerInfo@@@3@@2@U?$less@H@2@V?$allocator@U_tagPlayerInfo@@@2@@1@AB_N@Z 00407890 f i DataRecord.obj
 0001:000068c0       ??0?$pair@Viterator@?$_Tree@HU?$pair@$$CBHU_tagRoomInfo@@@std@@U_Kfn@?$map@HU_tagRoomInfo@@U?$less@H@std@@V?$allocator@U_tagRoomInfo@@@3@@2@U?$less@H@2@V?$allocator@U_tagRoomInfo@@@2@@std@@_N@std@@QAE@ABViterator@?$_Tree@HU?$pair@$$CBHU_tagRoomInfo@@@std@@U_Kfn@?$map@HU_tagRoomInfo@@U?$less@H@std@@V?$allocator@U_tagRoomInfo@@@3@@2@U?$less@H@2@V?$allocator@U_tagRoomInfo@@@2@@1@AB_N@Z 004078c0 f i DataRecord.obj
 0001:000068f0       ?_Color@?$_Tree@HHU_Kfn@?$set@HU?$less@H@std@@V?$allocator@H@2@@std@@U?$less@H@3@V?$allocator@H@3@@std@@KAAAW4_Redbl@12@PAU_Node@12@@Z 004078f0 f i DataRecord.obj
 0001:00006900       ?_Lbound@?$_Tree@HHU_Kfn@?$set@HU?$less@H@std@@V?$allocator@H@2@@std@@U?$less@H@3@V?$allocator@H@3@@std@@IBEPAU_Node@12@ABH@Z 00407900 f i DataRecord.obj
 0001:00006990       ?_Lrotate@?$_Tree@HHU_Kfn@?$set@HU?$less@H@std@@V?$allocator@H@2@@std@@U?$less@H@3@V?$allocator@H@3@@std@@IAEXPAU_Node@12@@Z 00407990 f i DataRecord.obj
 0001:00006ac0       ?_Rrotate@?$_Tree@HHU_Kfn@?$set@HU?$less@H@std@@V?$allocator@H@2@@std@@U?$less@H@3@V?$allocator@H@3@@std@@IAEXPAU_Node@12@@Z 00407ac0 f i DataRecord.obj
 0001:00006bf0       ?_Consval@?$_Tree@HHU_Kfn@?$set@HU?$less@H@std@@V?$allocator@H@2@@std@@U?$less@H@3@V?$allocator@H@3@@std@@IAEXPAHABH@Z 00407bf0 f i DataRecord.obj
 0001:00006c10       ?_Destval@?$_Tree@HHU_Kfn@?$set@HU?$less@H@std@@V?$allocator@H@2@@std@@U?$less@H@3@V?$allocator@H@3@@std@@IAEXPAH@Z 00407c10 f i DataRecord.obj
 0001:00006c30       ?_Charalloc@?$allocator@H@std@@QAEPADI@Z 00407c30 f i DataRecord.obj
 0001:00006c50       ?_Dec@const_iterator@?$_Tree@HHU_Kfn@?$set@HU?$less@H@std@@V?$allocator@H@2@@std@@U?$less@H@3@V?$allocator@H@3@@std@@QAEXXZ 00407c50 f i DataRecord.obj
 0001:00006d20       ??Eiterator@?$_Tree@HHU_Kfn@?$set@HU?$less@H@std@@V?$allocator@H@2@@std@@U?$less@H@3@V?$allocator@H@3@@std@@QAEAAV012@XZ 00407d20 f i DataRecord.obj
 0001:00006d40       ??R_Kfn@?$map@HU_tagPlayerInfo@@U?$less@H@std@@V?$allocator@U_tagPlayerInfo@@@3@@std@@QBEABHABU?$pair@$$CBHU_tagPlayerInfo@@@2@@Z 00407d40 f i DataRecord.obj
 0001:00006d50       ?_Color@?$_Tree@HU?$pair@$$CBHU_tagPlayerInfo@@@std@@U_Kfn@?$map@HU_tagPlayerInfo@@U?$less@H@std@@V?$allocator@U_tagPlayerInfo@@@3@@2@U?$less@H@2@V?$allocator@U_tagPlayerInfo@@@2@@std@@KAAAW4_Redbl@12@PAU_Node@12@@Z 00407d50 f i DataRecord.obj
 0001:00006d60       ?_Key@?$_Tree@HU?$pair@$$CBHU_tagPlayerInfo@@@std@@U_Kfn@?$map@HU_tagPlayerInfo@@U?$less@H@std@@V?$allocator@U_tagPlayerInfo@@@3@@2@U?$less@H@2@V?$allocator@U_tagPlayerInfo@@@2@@std@@KAABHPAU_Node@12@@Z 00407d60 f i DataRecord.obj
 0001:00006d80       ?_Left@?$_Tree@HU?$pair@$$CBHU_tagPlayerInfo@@@std@@U_Kfn@?$map@HU_tagPlayerInfo@@U?$less@H@std@@V?$allocator@U_tagPlayerInfo@@@3@@2@U?$less@H@2@V?$allocator@U_tagPlayerInfo@@@2@@std@@KAAAPAU_Node@12@PAU312@@Z 00407d80 f i DataRecord.obj
 0001:00006d90       ?_Insert@?$_Tree@HU?$pair@$$CBHU_tagPlayerInfo@@@std@@U_Kfn@?$map@HU_tagPlayerInfo@@U?$less@H@std@@V?$allocator@U_tagPlayerInfo@@@3@@2@U?$less@H@2@V?$allocator@U_tagPlayerInfo@@@2@@std@@IAE?AViterator@12@PAU_Node@12@0ABU?$pair@$$CBHU_tagPlayerInfo@@@2@@Z 00407d90 f i DataRecord.obj
 0001:00007220       ?_Lrotate@?$_Tree@HU?$pair@$$CBHU_tagPlayerInfo@@@std@@U_Kfn@?$map@HU_tagPlayerInfo@@U?$less@H@std@@V?$allocator@U_tagPlayerInfo@@@3@@2@U?$less@H@2@V?$allocator@U_tagPlayerInfo@@@2@@std@@IAEXPAU_Node@12@@Z 00408220 f i DataRecord.obj
 0001:00007350       ?_Max@?$_Tree@HU?$pair@$$CBHU_tagPlayerInfo@@@std@@U_Kfn@?$map@HU_tagPlayerInfo@@U?$less@H@std@@V?$allocator@U_tagPlayerInfo@@@3@@2@U?$less@H@2@V?$allocator@U_tagPlayerInfo@@@2@@std@@KAPAU_Node@12@PAU312@@Z 00408350 f i DataRecord.obj
 0001:00007390       ?_Rrotate@?$_Tree@HU?$pair@$$CBHU_tagPlayerInfo@@@std@@U_Kfn@?$map@HU_tagPlayerInfo@@U?$less@H@std@@V?$allocator@U_tagPlayerInfo@@@3@@2@U?$less@H@2@V?$allocator@U_tagPlayerInfo@@@2@@std@@IAEXPAU_Node@12@@Z 00408390 f i DataRecord.obj
 0001:000074c0       ?_Buynode@?$_Tree@HU?$pair@$$CBHU_tagPlayerInfo@@@std@@U_Kfn@?$map@HU_tagPlayerInfo@@U?$less@H@std@@V?$allocator@U_tagPlayerInfo@@@3@@2@U?$less@H@2@V?$allocator@U_tagPlayerInfo@@@2@@std@@IAEPAU_Node@12@PAU312@W4_Redbl@12@@Z 004084c0 f i DataRecord.obj
 0001:00007510       ?_Destval@?$_Tree@HU?$pair@$$CBHU_tagPlayerInfo@@@std@@U_Kfn@?$map@HU_tagPlayerInfo@@U?$less@H@std@@V?$allocator@U_tagPlayerInfo@@@3@@2@U?$less@H@2@V?$allocator@U_tagPlayerInfo@@@2@@std@@IAEXPAU?$pair@$$CBHU_tagPlayerInfo@@@2@@Z 00408510 f i DataRecord.obj
 0001:00007530       ??0const_iterator@?$_Tree@HU?$pair@$$CBHU_tagPlayerInfo@@@std@@U_Kfn@?$map@HU_tagPlayerInfo@@U?$less@H@std@@V?$allocator@U_tagPlayerInfo@@@3@@2@U?$less@H@2@V?$allocator@U_tagPlayerInfo@@@2@@std@@QAE@PAU_Node@12@@Z 00408530 f i DataRecord.obj
 0001:00007550       ?_Mynode@const_iterator@?$_Tree@HU?$pair@$$CBHU_tagPlayerInfo@@@std@@U_Kfn@?$map@HU_tagPlayerInfo@@U?$less@H@std@@V?$allocator@U_tagPlayerInfo@@@3@@2@U?$less@H@2@V?$allocator@U_tagPlayerInfo@@@2@@std@@QBEPAU_Node@23@XZ 00408550 f i DataRecord.obj
 0001:00007560       ??Fiterator@?$_Tree@HU?$pair@$$CBHU_tagPlayerInfo@@@std@@U_Kfn@?$map@HU_tagPlayerInfo@@U?$less@H@std@@V?$allocator@U_tagPlayerInfo@@@3@@2@U?$less@H@2@V?$allocator@U_tagPlayerInfo@@@2@@std@@QAEAAV012@XZ 00408560 f i DataRecord.obj
 0001:00007580       ??R_Kfn@?$map@HU_tagRoomInfo@@U?$less@H@std@@V?$allocator@U_tagRoomInfo@@@3@@std@@QBEABHABU?$pair@$$CBHU_tagRoomInfo@@@2@@Z 00408580 f i DataRecord.obj
 0001:00007590       ?_Color@?$_Tree@HU?$pair@$$CBHU_tagRoomInfo@@@std@@U_Kfn@?$map@HU_tagRoomInfo@@U?$less@H@std@@V?$allocator@U_tagRoomInfo@@@3@@2@U?$less@H@2@V?$allocator@U_tagRoomInfo@@@2@@std@@KAAAW4_Redbl@12@PAU_Node@12@@Z 00408590 f i DataRecord.obj
 0001:000075a0       ?_Key@?$_Tree@HU?$pair@$$CBHU_tagRoomInfo@@@std@@U_Kfn@?$map@HU_tagRoomInfo@@U?$less@H@std@@V?$allocator@U_tagRoomInfo@@@3@@2@U?$less@H@2@V?$allocator@U_tagRoomInfo@@@2@@std@@KAABHPAU_Node@12@@Z 004085a0 f i DataRecord.obj
 0001:000075c0       ?_Left@?$_Tree@HU?$pair@$$CBHU_tagRoomInfo@@@std@@U_Kfn@?$map@HU_tagRoomInfo@@U?$less@H@std@@V?$allocator@U_tagRoomInfo@@@3@@2@U?$less@H@2@V?$allocator@U_tagRoomInfo@@@2@@std@@KAAAPAU_Node@12@PAU312@@Z 004085c0 f i DataRecord.obj
 0001:000075d0       ?_Insert@?$_Tree@HU?$pair@$$CBHU_tagRoomInfo@@@std@@U_Kfn@?$map@HU_tagRoomInfo@@U?$less@H@std@@V?$allocator@U_tagRoomInfo@@@3@@2@U?$less@H@2@V?$allocator@U_tagRoomInfo@@@2@@std@@IAE?AViterator@12@PAU_Node@12@0ABU?$pair@$$CBHU_tagRoomInfo@@@2@@Z 004085d0 f i DataRecord.obj
 0001:00007a60       ?_Lrotate@?$_Tree@HU?$pair@$$CBHU_tagRoomInfo@@@std@@U_Kfn@?$map@HU_tagRoomInfo@@U?$less@H@std@@V?$allocator@U_tagRoomInfo@@@3@@2@U?$less@H@2@V?$allocator@U_tagRoomInfo@@@2@@std@@IAEXPAU_Node@12@@Z 00408a60 f i DataRecord.obj
 0001:00007b90       ?_Max@?$_Tree@HU?$pair@$$CBHU_tagRoomInfo@@@std@@U_Kfn@?$map@HU_tagRoomInfo@@U?$less@H@std@@V?$allocator@U_tagRoomInfo@@@3@@2@U?$less@H@2@V?$allocator@U_tagRoomInfo@@@2@@std@@KAPAU_Node@12@PAU312@@Z 00408b90 f i DataRecord.obj
 0001:00007bd0       ?_Rrotate@?$_Tree@HU?$pair@$$CBHU_tagRoomInfo@@@std@@U_Kfn@?$map@HU_tagRoomInfo@@U?$less@H@std@@V?$allocator@U_tagRoomInfo@@@3@@2@U?$less@H@2@V?$allocator@U_tagRoomInfo@@@2@@std@@IAEXPAU_Node@12@@Z 00408bd0 f i DataRecord.obj
 0001:00007d00       ?_Buynode@?$_Tree@HU?$pair@$$CBHU_tagRoomInfo@@@std@@U_Kfn@?$map@HU_tagRoomInfo@@U?$less@H@std@@V?$allocator@U_tagRoomInfo@@@3@@2@U?$less@H@2@V?$allocator@U_tagRoomInfo@@@2@@std@@IAEPAU_Node@12@PAU312@W4_Redbl@12@@Z 00408d00 f i DataRecord.obj
 0001:00007d50       ?_Destval@?$_Tree@HU?$pair@$$CBHU_tagRoomInfo@@@std@@U_Kfn@?$map@HU_tagRoomInfo@@U?$less@H@std@@V?$allocator@U_tagRoomInfo@@@3@@2@U?$less@H@2@V?$allocator@U_tagRoomInfo@@@2@@std@@IAEXPAU?$pair@$$CBHU_tagRoomInfo@@@2@@Z 00408d50 f i DataRecord.obj
 0001:00007d70       ??0const_iterator@?$_Tree@HU?$pair@$$CBHU_tagRoomInfo@@@std@@U_Kfn@?$map@HU_tagRoomInfo@@U?$less@H@std@@V?$allocator@U_tagRoomInfo@@@3@@2@U?$less@H@2@V?$allocator@U_tagRoomInfo@@@2@@std@@QAE@PAU_Node@12@@Z 00408d70 f i DataRecord.obj
 0001:00007d90       ?_Mynode@const_iterator@?$_Tree@HU?$pair@$$CBHU_tagRoomInfo@@@std@@U_Kfn@?$map@HU_tagRoomInfo@@U?$less@H@std@@V?$allocator@U_tagRoomInfo@@@3@@2@U?$less@H@2@V?$allocator@U_tagRoomInfo@@@2@@std@@QBEPAU_Node@23@XZ 00408d90 f i DataRecord.obj
 0001:00007da0       ??Fiterator@?$_Tree@HU?$pair@$$CBHU_tagRoomInfo@@@std@@U_Kfn@?$map@HU_tagRoomInfo@@U?$less@H@std@@V?$allocator@U_tagRoomInfo@@@3@@2@U?$less@H@2@V?$allocator@U_tagRoomInfo@@@2@@std@@QAEAAV012@XZ 00408da0 f i DataRecord.obj
 0001:00007dc0       ?_Charalloc@?$allocator@U_tagPlayerInfo@@@std@@QAEPADI@Z 00408dc0 f i DataRecord.obj
 0001:00007de0       ?_Consval@?$_Tree@HU?$pair@$$CBHU_tagPlayerInfo@@@std@@U_Kfn@?$map@HU_tagPlayerInfo@@U?$less@H@std@@V?$allocator@U_tagPlayerInfo@@@3@@2@U?$less@H@2@V?$allocator@U_tagPlayerInfo@@@2@@std@@IAEXPAU?$pair@$$CBHU_tagPlayerInfo@@@2@ABU32@@Z 00408de0 f i DataRecord.obj
 0001:00007e00       ?_Dec@const_iterator@?$_Tree@HU?$pair@$$CBHU_tagPlayerInfo@@@std@@U_Kfn@?$map@HU_tagPlayerInfo@@U?$less@H@std@@V?$allocator@U_tagPlayerInfo@@@3@@2@U?$less@H@2@V?$allocator@U_tagPlayerInfo@@@2@@std@@QAEXXZ 00408e00 f i DataRecord.obj
 0001:00007ed0       ?_Charalloc@?$allocator@U_tagRoomInfo@@@std@@QAEPADI@Z 00408ed0 f i DataRecord.obj
 0001:00007ef0       ?_Consval@?$_Tree@HU?$pair@$$CBHU_tagRoomInfo@@@std@@U_Kfn@?$map@HU_tagRoomInfo@@U?$less@H@std@@V?$allocator@U_tagRoomInfo@@@3@@2@U?$less@H@2@V?$allocator@U_tagRoomInfo@@@2@@std@@IAEXPAU?$pair@$$CBHU_tagRoomInfo@@@2@ABU32@@Z 00408ef0 f i DataRecord.obj
 0001:00007f10       ?_Dec@const_iterator@?$_Tree@HU?$pair@$$CBHU_tagRoomInfo@@@std@@U_Kfn@?$map@HU_tagRoomInfo@@U?$less@H@std@@V?$allocator@U_tagRoomInfo@@@3@@2@U?$less@H@2@V?$allocator@U_tagRoomInfo@@@2@@std@@QAEXXZ 00408f10 f i DataRecord.obj
 0001:00007fe0       ?swap@std@@YAXAAW4_Redbl@?$_Tree@HHU_Kfn@?$set@HU?$less@H@std@@V?$allocator@H@2@@std@@U?$less@H@3@V?$allocator@H@3@@1@0@Z 00408fe0 f i DataRecord.obj
 0001:00008010       ?swap@std@@YAXAAW4_Redbl@?$_Tree@HU?$pair@$$CBHU_tagPlayerInfo@@@std@@U_Kfn@?$map@HU_tagPlayerInfo@@U?$less@H@std@@V?$allocator@U_tagPlayerInfo@@@3@@2@U?$less@H@2@V?$allocator@U_tagPlayerInfo@@@2@@1@0@Z 00409010 f i DataRecord.obj
 0001:00008040       ?swap@std@@YAXAAW4_Redbl@?$_Tree@HU?$pair@$$CBHU_tagRoomInfo@@@std@@U_Kfn@?$map@HU_tagRoomInfo@@U?$less@H@std@@V?$allocator@U_tagRoomInfo@@@3@@2@U?$less@H@2@V?$allocator@U_tagRoomInfo@@@2@@1@0@Z 00409040 f i DataRecord.obj
 0001:00008070       ?_Construct@std@@YAXPAHABH@Z 00409070 f i DataRecord.obj
 0001:000080b0       ?_Destroy@std@@YAXPAH@Z    004090b0 f i DataRecord.obj
 0001:000080c0       ?_Allocate@std@@YAPADHPAD@Z 004090c0 f i DataRecord.obj
 0001:000080e0       ?_Destroy@std@@YAXPAU?$pair@$$CBHU_tagPlayerInfo@@@1@@Z 004090e0 f i DataRecord.obj
 0001:000080f0       ?_Destroy@std@@YAXPAU?$pair@$$CBHU_tagRoomInfo@@@1@@Z 004090f0 f i DataRecord.obj
 0001:00008100       ?_Construct@std@@YAXPAU?$pair@$$CBHU_tagPlayerInfo@@@1@ABU21@@Z 00409100 f i DataRecord.obj
 0001:00008150       ?_Construct@std@@YAXPAU?$pair@$$CBHU_tagRoomInfo@@@1@ABU21@@Z 00409150 f i DataRecord.obj
 0001:000081c0       ??_G?$pair@$$CBHU_tagRoomInfo@@@std@@QAEPAXI@Z 004091c0 f i DataRecord.obj
 0001:000081f0       ??0?$pair@$$CBHU_tagRoomInfo@@@std@@QAE@ABU01@@Z 004091f0 f i DataRecord.obj
 0001:00008220       ??2@YAPAXIPAX@Z            00409220 f i DataRecord.obj
 0001:00008230       ??3@YAXPAX0@Z              00409230 f i DataRecord.obj
 0001:00008240       ??0CCritSec@@QAE@XZ        00409240 f i DataRecord.obj
 0001:00008260       ??1CCritSec@@QAE@XZ        00409260 f i DataRecord.obj
 0001:00008280       ??0CAutoLock@@QAE@PAVCCritSec@@@Z 00409280 f i DataRecord.obj
 0001:000082b0       ?Lock@CCritSec@@QAEXXZ     004092b0 f i DataRecord.obj
 0001:000082d0       ??1CAutoLock@@QAE@XZ       004092d0 f i DataRecord.obj
 0001:000082f0       ?Unlock@CCritSec@@QAEXXZ   004092f0 f i DataRecord.obj
 0001:00008310       ?Svr_RetrieveFields@@YAHPADPAPADH1@Z 00409310 f i DataRecord.obj
 0001:00008420       ?x_StrInsertReplace@@YAXAAVCString@@HHABV1@@Z 00409420 f   Markup.obj
 0001:000084f8       ?x_Hash@@YAHPBDH@Z         004094f8 f   Markup.obj
 0001:00008534       ?x_IntToStr@@YA?AVCString@@H@Z 00409534 f   Markup.obj
 0001:000085b1       ?x_StrNCmp@@YAHPBD0HH@Z    004095b1 f   Markup.obj
 0001:000086d3       ?x_AddResult@@YAXAAVCString@@UMCD_CSTR@@1HHH@Z 004096d3 f   Markup.obj
 0001:000088ef       ?x_GetEncodingCodePage@@YAHUMCD_CSTR@@@Z 004098ef f   Markup.obj
 0001:00008a7b       ?CanConvert@TextEncoding@@SA_NUMCD_CSTR@@0@Z 00409a7b f   Markup.obj
 0001:00008aee       ?x_NoDefaultChar@@YA_NH@Z  00409aee f   Markup.obj
 0001:00008b75       ?PerformConversion@TextEncoding@@QAEHPAXUMCD_CSTR@@@Z 00409b75 f   Markup.obj
 0001:00008eed       ?FindRaggedEnd@TextEncoding@@QAE_NAAH@Z 00409eed f   Markup.obj
 0001:0000958f       ?x_EndianSwapRequired@@YA_NH@Z 0040a58f f   Markup.obj
 0001:000095d0       ?x_EndianSwapUTF16@@YAXPAGH@Z 0040a5d0 f   Markup.obj
 0001:0000961b       ?CopyElemPosTree@ElemPosTree@@QAEXPAU1@H@Z 0040a61b f   Markup.obj
 0001:00009712       ?GrowElemPosTree@ElemPosTree@@QAEXH@Z 0040a712 f   Markup.obj
 0001:00009909       ?FindAttrib@TokenPos@@QAE_NPBDHPAVCString@@@Z 0040a909 f   Markup.obj
 0001:00009c9e       ?CalcSlot@ElemStack@@SAHPBDH_N@Z 0040ac9e f   Markup.obj
 0001:00009d13       ?PushTagAndCount@ElemStack@@QAEXAAUTokenPos@@@Z 0040ad13 f   Markup.obj
 0001:00009f8b       ?FileErrorAddResult@FilePos@@QAE_NXZ 0040af8b f   Markup.obj
 0001:0000a10c       ?FileSpecifyEncoding@FilePos@@QAEXPAVCString@@@Z 0040b10c f   Markup.obj
 0001:0000a178       ?FileAtTop@FilePos@@QAE_NXZ 0040b178 f   Markup.obj
 0001:0000a1bd       ?FileOpen@FilePos@@QAE_NUMCD_CSTR@@@Z 0040b1bd f   Markup.obj
 0001:0000a670       ?FileRead@FilePos@@QAE_NPAX@Z 0040b670 f   Markup.obj
 0001:0000a8ca       ?FileCheckRaggedEnd@FilePos@@QAE_NPAX@Z 0040b8ca f   Markup.obj
 0001:0000aa5f       ?FileReadText@FilePos@@QAE_NAAVCString@@@Z 0040ba5f f   Markup.obj
 0001:0000b2cc       ?FileWrite@FilePos@@QAE_NPAXPBX@Z 0040c2cc f   Markup.obj
 0001:0000b443       ?FileWriteText@FilePos@@QAE_NABVCString@@H@Z 0040c443 f   Markup.obj
 0001:0000b7a3       ?FileClose@FilePos@@QAE_NXZ 0040c7a3 f   Markup.obj
 0001:0000b7ef       ?FileReadNextBuffer@FilePos@@QAE_NXZ 0040c7ef f   Markup.obj
 0001:0000b9e6       ?FileGatherStart@FilePos@@QAEXH@Z 0040c9e6 f   Markup.obj
 0001:0000b9ff       ?FileGatherEnd@FilePos@@QAEHAAVCString@@@Z 0040c9ff f   Markup.obj
 0001:0000ba49       ?FileFlush@FilePos@@QAE_NAAVCString@@H_N@Z 0040ca49 f   Markup.obj
 0001:0000bbc9       ?ParsePath@PathPos@@AAE_NXZ 0040cbc9 f   Markup.obj
 0001:0000bd65       ?AttribPredicateMatch@PathPos@@QAE_NAAUTokenPos@@@Z 0040cd65 f   Markup.obj
 0001:0000bea0       ?GetMap@SavedPosMapArray@@QAE_NAAPAUSavedPosMap@@HH@Z 0040cea0 f   Markup.obj
 0001:0000c008       ?CopySavedPosMaps@SavedPosMapArray@@QAEXPAU1@@Z 0040d008 f   Markup.obj
 0001:0000c1fd       ?ParseNode@TokenPos@@QAEHAAUNodePos@@@Z 0040d1fd f   Markup.obj
 0001:0000ccc2       ??1CMarkup@@QAE@XZ         0040dcc2 f   Markup.obj
 0001:0000cd69       ??4CMarkup@@QAEXABV0@@Z    0040dd69 f   Markup.obj
 0001:0000ce4a       ?SetDoc@CMarkup@@QAE_NPBD@Z 0040de4a f   Markup.obj
 0001:0000ceee       ?SetDoc@CMarkup@@QAE_NABVCString@@@Z 0040deee f   Markup.obj
 0001:0000cf2b       ?IsWellFormed@CMarkup@@QAE_NXZ 0040df2b f   Markup.obj
 0001:0000cfdb       ?GetError@CMarkup@@QBE?AVCString@@XZ 0040dfdb f   Markup.obj
 0001:0000df36       ?Load@CMarkup@@QAE_NUMCD_CSTR@@@Z 0040ef36 f   Markup.obj
 0001:0000df89       ?ReadTextFile@CMarkup@@SA_NUMCD_CSTR@@AAVCString@@PAV3@PAH2@Z 0040ef89 f   Markup.obj
 0001:0000e0b4       ?Save@CMarkup@@QAE_NUMCD_CSTR@@@Z 0040f0b4 f   Markup.obj
 0001:0000e0f2       ?WriteTextFile@CMarkup@@SA_NUMCD_CSTR@@ABVCString@@PAV3@PAH2@Z 0040f0f2 f   Markup.obj
 0001:0000e29f       ?FindElem@CMarkup@@QAE_NUMCD_CSTR@@@Z 0040f29f f   Markup.obj
 0001:0000e32b       ?FindChildElem@CMarkup@@QAE_NUMCD_CSTR@@@Z 0040f32b f   Markup.obj
 0001:0000e3dd       ?EscapeText@CMarkup@@SA?AVCString@@UMCD_CSTR@@H@Z 0040f3dd f   Markup.obj
 0001:0000e6ff       ?UnescapeText@CMarkup@@SA?AVCString@@UMCD_CSTR@@HH@Z 0040f6ff f   Markup.obj
 0001:0000eb57       ?DetectUTF8@CMarkup@@SA_NPBDHPAHPA_N@Z 0040fb57 f   Markup.obj
 0001:0000ebfa       ?DecodeCharUTF8@CMarkup@@SAHAAPBDPBD@Z 0040fbfa f   Markup.obj
 0001:0000ece5       ?EncodeCharUTF16@CMarkup@@SAXHPAGAAH@Z 0040fce5 f   Markup.obj
 0001:0000ed98       ?DecodeCharUTF16@CMarkup@@SAHAAPBGPBG@Z 0040fd98 f   Markup.obj
 0001:0000ee1b       ?EncodeCharUTF8@CMarkup@@SAXHPADAAH@Z 0040fe1b f   Markup.obj
 0001:0000f011       ?UTF16To8@CMarkup@@SAHPADPBGH@Z 00410011 f   Markup.obj
 0001:0000f0b8       ?UTF8To16@CMarkup@@SAHPAGPBDH@Z 004100b8 f   Markup.obj
 0001:0000f14e       ?UTF8ToA@CMarkup@@SA?AVCString@@UMCD_CSTR@@PAH@Z 0041014e f   Markup.obj
 0001:0000f25d       ?AToUTF8@CMarkup@@SA?AVCString@@UMCD_CSTR@@@Z 0041025d f   Markup.obj
 0001:0000f351       ?GetDeclaredEncoding@CMarkup@@SA?AVCString@@UMCD_CSTR@@@Z 00410351 f   Markup.obj
 0001:0000f6cd       ?GetEncodingCodePage@CMarkup@@SAHUMCD_CSTR@@@Z 004106cd f   Markup.obj
 0001:0000f6de       ?FindNode@CMarkup@@QAEHH@Z 004106de f   Markup.obj
 0001:0000f9c2       ?RemoveNode@CMarkup@@QAE_NXZ 004109c2 f   Markup.obj
 0001:0000fa2b       ?GetTagName@CMarkup@@QBE?AVCString@@XZ 00410a2b f   Markup.obj
 0001:0000fcfc       ?IntoElem@CMarkup@@QAE_NXZ 00410cfc f   Markup.obj
 0001:0000fd37       ?OutOfElem@CMarkup@@QAE_NXZ 00410d37 f   Markup.obj
 0001:0000fd7d       ?GetNthAttrib@CMarkup@@QBE_NHAAVCString@@0@Z 00410d7d f   Markup.obj
 0001:0000fe99       ?GetAttribName@CMarkup@@QBE?AVCString@@H@Z 00410e99 f   Markup.obj
 0001:0000ff84       ?SavePos@CMarkup@@QAE_NUMCD_CSTR@@H@Z 00410f84 f   Markup.obj
 0001:000102e6       ?RestorePos@CMarkup@@QAE_NUMCD_CSTR@@H@Z 004112e6 f   Markup.obj
 0001:0001047f       ?SetMapSize@CMarkup@@QAE_NHH@Z 0041147f f   Markup.obj
 0001:000104b6       ?RemoveElem@CMarkup@@QAE_NXZ 004114b6 f   Markup.obj
 0001:00010513       ?RemoveChildElem@CMarkup@@QAE_NXZ 00411513 f   Markup.obj
 0001:0001056c       ?x_InitMarkup@CMarkup@@IAEXXZ 0041156c f   Markup.obj
 0001:00010634       ?x_GetParent@CMarkup@@IAEHH@Z 00411634 f   Markup.obj
 0001:00010653       ?x_SetPos@CMarkup@@IAEXHHH@Z 00411653 f   Markup.obj
 0001:0001069e       ?x_GetFreePos@CMarkup@@IAEHXZ 0041169e f   Markup.obj
 0001:000106db       ?x_AllocElemPos@CMarkup@@IAE_NH@Z 004116db f   Markup.obj
 0001:00010722       ?x_ParseDoc@CMarkup@@IAE_NXZ 00411722 f   Markup.obj
 0001:00010870       ?x_ParseElem@CMarkup@@IAEHHAAUTokenPos@@@Z 00411870 f   Markup.obj
 0001:00010fe3       ?x_FindElem@CMarkup@@IBEHHHAAUPathPos@@@Z 00411fe3 f   Markup.obj
 0001:00011100       ?x_GetPath@CMarkup@@IBE?AVCString@@H@Z 00412100 f   Markup.obj
 0001:000113c8       ?x_GetTagName@CMarkup@@IBE?AVCString@@H@Z 004123c8 f   Markup.obj
 0001:0001145e       ?x_GetAttrib@CMarkup@@IBE?AVCString@@HPBD@Z 0041245e f   Markup.obj
 0001:00011577       ?x_SetAttrib@CMarkup@@IAE_NHPBDHH@Z 00412577 f   Markup.obj
 0001:000115b4       ?x_SetAttrib@CMarkup@@IAE_NHPBD0H@Z 004125b4 f   Markup.obj
 0001:000119de       ?x_CreateNode@CMarkup@@KA_NAAVCString@@HPBD@Z 004129de f   Markup.obj
 0001:00011c15       ?x_EncodeCDATASection@CMarkup@@KA?AVCString@@PBD@Z 00412c15 f   Markup.obj
 0001:00011d1c       ?x_SetData@CMarkup@@IAE_NHH@Z 00412d1c f   Markup.obj
 0001:00011d53       ?x_SetData@CMarkup@@IAE_NHPBDH@Z 00412d53 f   Markup.obj
 0001:00012051       ?x_GetData@CMarkup@@IAE?AVCString@@H@Z 00413051 f   Markup.obj
 0001:00012725       ?x_GetElemContent@CMarkup@@IBE?AVCString@@H@Z 00413725 f   Markup.obj
 0001:000127b0       ?x_SetElemContent@CMarkup@@IAE_NPBD@Z 004137b0 f   Markup.obj
 0001:00012a94       ?x_DocChange@CMarkup@@IAEXHHABVCString@@@Z 00413a94 f   Markup.obj
 0001:00012ab9       ?x_Adjust@CMarkup@@IAEXHH_N@Z 00413ab9 f   Markup.obj
 0001:00012c45       ?x_InsertNew@CMarkup@@IAEHHAAHAAUNodePos@@@Z 00413c45 f   Markup.obj
 0001:000132f5       ?x_AddElem@CMarkup@@IAE_NPBDHH@Z 004142f5 f   Markup.obj
 0001:0001332e       ?x_AddElem@CMarkup@@IAE_NPBD0H@Z 0041432e f   Markup.obj
 0001:000138a0       ?x_GetSubDoc@CMarkup@@IAE?AVCString@@H@Z 004148a0 f   Markup.obj
 0001:00013960       ?x_AddSubDoc@CMarkup@@IAE_NPBDH@Z 00414960 f   Markup.obj
 0001:00013f6c       ?x_RemoveElem@CMarkup@@IAEHH@Z 00414f6c f   Markup.obj
 0001:0001406a       ?x_LinkElem@CMarkup@@IAEXHHH@Z 0041506a f   Markup.obj
 0001:0001429e       ?x_UnlinkElem@CMarkup@@IAEHH@Z 0041529e f   Markup.obj
 0001:000143d6       ?x_UnlinkPrevElem@CMarkup@@IAEHHHH@Z 004153d6 f   Markup.obj
 0001:0001448d       ?x_ReleasePos@CMarkup@@IAEHH@Z 0041548d f   Markup.obj
 0001:000144eb       ?x_ReleaseSubDoc@CMarkup@@IAEHH@Z 004154eb f   Markup.obj
 0001:00014597       ?x_CheckSavedPos@CMarkup@@IAEXXZ 00415597 f   Markup.obj
 0001:00014723       ?x_AdjustForNode@CMarkup@@IAEXHHH@Z 00415723 f   Markup.obj
 0001:000147b8       ?x_AddNode@CMarkup@@IAE_NHPBDH@Z 004157b8 f   Markup.obj
 0001:00014a06       ?x_RemoveNode@CMarkup@@IAEXHAAH000@Z 00415a06 f   Markup.obj
 0001:00014cb0       ??0MCD_CSTR@@QAE@PBD@Z     00415cb0 f i Markup.obj
 0001:00014cd0       ??0MCD_CSTR@@QAE@ABVCString@@@Z 00415cd0 f i Markup.obj
 0001:00014cf0       ??0CMarkup@@QAE@UMCD_CSTR@@@Z 00415cf0 f i Markup.obj
 0001:00014d60       ??BMCD_CSTR@@QBEPBDXZ      00415d60 f i Markup.obj
 0001:00014d70       ?GetDoc@CMarkup@@QBEABVCString@@XZ 00415d70 f i Markup.obj
 0001:00014d80       ?AddElem@CMarkup@@QAE_NUMCD_CSTR@@0H@Z 00415d80 f i Markup.obj
 0001:00014db0       ?SetAttrib@CMarkup@@QAE_NUMCD_CSTR@@0H@Z 00415db0 f i Markup.obj
 0001:00014df0       ?SetAttrib@CMarkup@@QAE_NUMCD_CSTR@@HH@Z 00415df0 f i Markup.obj
 0001:00014e20       ?ReleaseElemPosTree@ElemPosTree@@QAEXXZ 00415e20 f i Markup.obj
 0001:00014e40       ?Release@ElemPosTree@@QAEXXZ 00415e40 f i Markup.obj
 0001:00014eb0       ?Clear@ElemPosTree@@QAEXXZ 00415eb0 f i Markup.obj
 0001:00014ee0       ?SegsUsed@ElemPosTree@@QBEHXZ 00415ee0 f i Markup.obj
 0001:00014f00       ?GetTokenText@TokenPos@@QBE?AVCString@@XZ 00415f00 f i Markup.obj
 0001:00014f40       ?Length@TokenPos@@QBEHXZ   00415f40 f i Markup.obj
 0001:00014f60       ?GetTokenPtr@TokenPos@@QBEPBDXZ 00415f60 f i Markup.obj
 0001:00014f80       ?NextChar@TokenPos@@QAEDXZ 00415f80 f i Markup.obj
 0001:00014fc0       ?FindAny@TokenPos@@QAE_NXZ 00415fc0 f i Markup.obj
 0001:00015070       ?Match@TokenPos@@QAE_NUMCD_CSTR@@@Z 00416070 f i Markup.obj
 0001:00015130       ??_ETagPos@@QAEPAXI@Z      00416130 f i Markup.obj
 0001:000151a0       ??1TagPos@@QAE@XZ          004161a0 f i Markup.obj
 0001:000151c0       ?Init@TagPos@@QAEXHH@Z     004161c0 f i Markup.obj
 0001:00015220       ?IncCount@TagPos@@QAEXXZ   00416220 f i Markup.obj
 0001:00015250       ?Current@ElemStack@@QAEAAUTagPos@@XZ 00416250 f i Markup.obj
 0001:00015270       ?Push@ElemStack@@QAEXPBDH@Z 00416270 f i Markup.obj
 0001:000152f0       ?SetTagName@TagPos@@QAEXPBDH@Z 004162f0 f i Markup.obj
 0001:00015330       ?Slot@ElemStack@@QAEXH@Z   00416330 f i Markup.obj
 0001:000153b0       ?Unslot@ElemStack@@QAEXAAUTagPos@@@Z 004163b0 f i Markup.obj
 0001:00015420       ?Alloc@ElemStack@@IAEXH@Z  00416420 f i Markup.obj
 0001:000154e0       ??0TagPos@@QAE@XZ          004164e0 f i Markup.obj
 0001:00015530       ?Copy@ElemStack@@IAEXPAUTagPos@@@Z 00416530 f i Markup.obj
 0001:000155c0       ??4TagPos@@QAEAAU0@ABU0@@Z 004165c0 f i Markup.obj
 0001:00015640       ??ACString@@QBEDH@Z        00416640 f i Markup.obj
 0001:00015660       ??9@YG_NABVCString@@PBD@Z  00416660 f i Markup.obj
 0001:00015680       ?IsEmpty@CString@@QBEHXZ   00416680 f i Markup.obj
 0001:000156a0       ??0TextEncoding@@QAE@UMCD_CSTR@@PBXH@Z 004166a0 f i Markup.obj
 0001:00015730       ??1TextEncoding@@QAE@XZ    00416730 f i Markup.obj
 0001:00015780       ?GetTypeAndInc@PathPos@@QAEHXZ 00416780 f i Markup.obj
 0001:00015800       ?GetNumAndInc@PathPos@@QAEHXZ 00416800 f i Markup.obj
 0001:00015870       ?GetValAndInc@PathPos@@QAEPBDXZ 00416870 f i Markup.obj
 0001:00015920       ?GetChar@PathPos@@QAEDXZ   00416920 f i Markup.obj
 0001:00015940       ?SaveOffset@PathPos@@QAEXXZ 00416940 f i Markup.obj
 0001:00015960       ?RevertOffset@PathPos@@QAEXXZ 00416960 f i Markup.obj
 0001:00015980       ?IncWord@PathPos@@QAEXXZ   00416980 f i Markup.obj
 0001:00015a20       ?IncWord@PathPos@@QAEXD@Z  00416a20 f i Markup.obj
 0001:00015a80       ?IncChar@PathPos@@QAEXXZ   00416a80 f i Markup.obj
 0001:00015aa0       ?IsAnywherePath@PathPos@@QAE_NXZ 00416aa0 f i Markup.obj
 0001:00015ac0       ?GetValOrWordLen@PathPos@@QAEHXZ 00416ac0 f i Markup.obj
 0001:00015ae0       ?GetPtr@PathPos@@QAEPBDXZ  00416ae0 f i Markup.obj
 0001:00015b00       ??_ESavedPos@@QAEPAXI@Z    00416b00 f i Markup.obj
 0001:00015b70       ??1SavedPos@@QAE@XZ        00416b70 f i Markup.obj
 0001:00015b90       ??0SavedPosMap@@QAE@H@Z    00416b90 f i Markup.obj
 0001:00015be0       ??0SavedPos@@QAE@XZ        00416be0 f i Markup.obj
 0001:00015c10       ?ReleaseMaps@SavedPosMapArray@@QAEXXZ 00416c10 f i Markup.obj
 0001:00015c90       ??_GSavedPosMap@@QAEPAXI@Z 00416c90 f i Markup.obj
 0001:00015cc0       ??1SavedPosMap@@QAE@XZ     00416cc0 f i Markup.obj
 0001:00015d50       ??4SavedPos@@QAEAAU0@ABU0@@Z 00416d50 f i Markup.obj
 0001:00015d90       ??_GSavedPosMapArray@@QAEPAXI@Z 00416d90 f i Markup.obj
 0001:00015dc0       ??1SavedPosMapArray@@QAE@XZ 00416dc0 f i Markup.obj
 0001:00015de0       ??_GElemPosTree@@QAEPAXI@Z 00416de0 f i Markup.obj
 0001:00015e10       ??1ElemPosTree@@QAE@XZ     00416e10 f i Markup.obj
 0001:00015e30       ?GetSize@ElemPosTree@@QBEHXZ 00416e30 f i Markup.obj
 0001:00015e50       ?GetRefElemPosAt@ElemPosTree@@QBEAAUElemPos@@H@Z 00416e50 f i Markup.obj
 0001:00015e80       ?GetAttrib@CMarkup@@QBE?AVCString@@UMCD_CSTR@@@Z 00416e80 f i Markup.obj
 0001:00015ec0       ??8@YG_NABVCString@@PBD@Z  00416ec0 f i Markup.obj
 0001:00015ee0       ??0FilePos@@QAE@XZ         00416ee0 f i Markup.obj
 0001:00015fe0       ??0ElemStack@@QAE@XZ       00416fe0 f i Markup.obj
 0001:00016050       ??1ElemStack@@QAE@XZ       00417050 f i Markup.obj
 0001:000160a0       ?InitTable@ElemStack@@QAEXXZ 004170a0 f i Markup.obj
 0001:000160c0       ??1FilePos@@QAE@XZ         004170c0 f i Markup.obj
 0001:00016130       ??0PathPos@@QAE@PBD_N@Z    00417130 f i Markup.obj
 0001:000161a0       ??0NodePos@@QAE@XZ         004171a0 f i Markup.obj
 0001:000161c0       ??0TokenPos@@QAE@UMCD_CSTR@@HPAUFilePos@@@Z 004171c0 f i Markup.obj
 0001:00016200       ?Clear@TokenPos@@QAEXXZ    00417200 f i Markup.obj
 0001:00016230       ?FindName@TokenPos@@QAE_NXZ 00417230 f i Markup.obj
 0001:000162e0       ??1NodePos@@QAE@XZ         004172e0 f i Markup.obj
 0001:00016300       ?IsEmptyElement@ElemPos@@QAE_NXZ 00417300 f i Markup.obj
 0001:00016320       ?StartTagLen@ElemPos@@QBEHXZ 00417320 f i Markup.obj
 0001:00016340       ?StartContent@ElemPos@@QBEHXZ 00417340 f i Markup.obj
 0001:00016360       ?ContentLen@ElemPos@@QBEHXZ 00417360 f i Markup.obj
 0001:00016390       ?EndTagLen@ElemPos@@QBEHXZ 00417390 f i Markup.obj
 0001:000163b0       ?StartAfter@ElemPos@@QBEHXZ 004173b0 f i Markup.obj
 0001:000163d0       ??0ElemPosTree@@QAE@XZ     004173d0 f i Markup.obj
 0001:000163f0       ??0SavedPosMapArray@@QAE@XZ 004173f0 f i Markup.obj
 0001:00016410       ?ResetPos@CMarkup@@QAEXXZ  00417410 f i Markup.obj
 0001:00016430       ?ClearVirtualParent@ElemPos@@QAEXXZ 00417430 f i Markup.obj
 0001:00016450       ?SetStartTagLen@ElemPos@@QAEXH@Z 00417450 f i Markup.obj
 0001:00016480       ?SetEndTagLen@ElemPos@@QAEXH@Z 00417480 f i Markup.obj
 0001:000164b0       ?Level@ElemPos@@QBEHXZ     004174b0 f i Markup.obj
 0001:000164d0       ?SetLevel@ElemPos@@QAEXH@Z 004174d0 f i Markup.obj
 0001:00016500       ?GetRefTagPosAt@ElemStack@@QAEAAUTagPos@@H@Z 00417500 f i Markup.obj
 0001:00016520       ?PushIntoLevel@ElemStack@@QAEXPBDH@Z 00417520 f i Markup.obj
 0001:00016580       ?PopOutOfLevel@ElemStack@@QAEXXZ 00417580 f i Markup.obj
 0001:000165a0       ?IsAbsolutePath@PathPos@@QAE_NXZ 004175a0 f i Markup.obj
 0001:000165c0       ?IsPath@PathPos@@QAE_NXZ   004175c0 f i Markup.obj
 0001:000165e0       ?ValidPath@PathPos@@QAE_NXZ 004175e0 f i Markup.obj
 0001:00016600       ?AdjustStartTagLen@ElemPos@@QAEXH@Z 00417600 f i Markup.obj
 0001:00016640       ??0NodePos@@QAE@H@Z        00417640 f i Markup.obj
 0001:00016690       ?IsUnparsed@ElemPos@@QAE_NXZ 00417690 f i Markup.obj
 0001:000166b0       ?OutOfLevel@ElemStack@@QAEXXZ 004176b0 f i Markup.obj
 0001:00016700       ?Pop@ElemStack@@QAEXXZ     00417700 f i Markup.obj
 0001:00016780       ?WhitespaceToTag@TokenPos@@QAEHH@Z 00417780 f i Markup.obj
 0001:000167e0       ?OnRequest@CMySockClit@@MAEHPAX0@Z 004177e0 f   MySockClit.obj
 0001:0001690a       ?OnResponse@CMySockClit@@MAEHPAU_tagCONTEXT_HEAD@@PAVREQUEST@@1@Z 0041790a f   MySockClit.obj
 0001:0001693b       ?OnNotifyClient@CMySockClit@@MAEHPAVREQUEST@@@Z 0041793b f   MySockClit.obj
 0001:0001698e       ?OnSendPulse@CMySockClit@@MAEHPAVREQUEST@@@Z 0041798e f   MySockClit.obj
 0001:000169c0       ??0REQUEST@@QAE@XZ         004179c0 f i MySockClit.obj
 0001:000169e0       ??1REQUEST@@QAE@XZ         004179e0 f i MySockClit.obj
 0001:000169f0       ?OnRequest@CGameServer@@MAEHPAX0@Z 004179f0 f   Server.obj
 0001:00016b3d       ?OnNewTable@CGameServer@@MAEPAVCTable@@HHH@Z 00417b3d f   Server.obj
 0001:00016c03       ?OnSeverAutoPlay@CGameServer@@UAEXPAVCRoom@@PAVCTable@@H@Z 00417c03 f   Server.obj
 0001:00016ea5       ?OnSendSysMsgToServer@CGameServer@@MAEHPAU_tagCONTEXT_HEAD@@PAVREQUEST@@PAVCWorkerContext@@@Z 00417ea5 f   Server.obj
 0001:00018029       ?OnZuPai@CGameServer@@QAEHPAU_tagCONTEXT_HEAD@@PAVREQUEST@@PAVCWorkerContext@@@Z 00419029 f   Server.obj
 0001:00018781       ?OnQiangZhuang@CGameServer@@QAEHPAU_tagCONTEXT_HEAD@@PAVREQUEST@@PAVCWorkerContext@@@Z 00419781 f   Server.obj
 0001:00018edc       ?OnYaZhu@CGameServer@@QAEHPAU_tagCONTEXT_HEAD@@PAVREQUEST@@PAVCWorkerContext@@@Z 00419edc f   Server.obj
 0001:0001963b       ?Initialize@CGameServer@@UAEHXZ 0041a63b f   Server.obj
 0001:00019690       ?ReadChunkSvrFromProfile@CGameServer@@QAEHXZ 0041a690 f   Server.obj
 0001:000196e2       ?InitSockToChunk@CGameServer@@QAEHXZ 0041a6e2 f   Server.obj
 0001:000199d2       ?Shutdown@CGameServer@@UAEXXZ 0041a9d2 f   Server.obj
 0001:000199f7       ?ShutDownSockToChunk@CGameServer@@QAEXXZ 0041a9f7 f   Server.obj
 0001:00019b88       ?OnAskExit@CGameServer@@MAEHPAU_tagCONTEXT_HEAD@@PAVREQUEST@@PAVCWorkerContext@@@Z 0041ab88 f   Server.obj
 0001:0001a0ab       ?NotifyPlayersAskExit@CGameServer@@QAEXPAVCGameTable@@PAU_tagASK_EXIT@@JH@Z 0041b0ab f   Server.obj
 0001:0001a15a       ?OnGameWin@CGameServer@@UAEHPAU_tagCONTEXT_HEAD@@PAVCRoom@@PAVCTable@@HHH@Z 0041b15a f   Server.obj
 0001:0001a965       ?GetRoomSvrIniFile@CGameServer@@UAEHHAAVCString@@@Z 0041b965 f   Server.obj
 0001:0001ac4b       ?GetTableDepositMin@CGameServer@@UAEHHH@Z 0041bc4b f   Server.obj
 0001:0001af1e       ?GetMinPlayingDeposit@CGameServer@@UAEHPAVCTable@@H@Z 0041bf1e f   Server.obj
 0001:0001b046       ?IsTableDepositRoom@CGameServer@@UAEHH@Z 0041c046 f   Server.obj
 0001:0001b076       ?OnStartGameEx@CGameServer@@UAEHPAU_tagCONTEXT_HEAD@@PAVREQUEST@@PAVCWorkerContext@@@Z 0041c076 f   Server.obj
 0001:0001bae9       ?ReadTableGrade@CGameServer@@QAEHHPAU_tagTABLESILVERGRADEALL@@@Z 0041cae9 f   Server.obj
 0001:0001bdb8       ?NotifyTableGrade@CGameServer@@QAEXHIJ@Z 0041cdb8 f   Server.obj
 0001:0001bf53       ?PostAskNewTableByTableGrade@CGameServer@@QAEXHHHH@Z 0041cf53 f   Server.obj
 0001:0001bfb3       ?OnEnterGameDXXW@CGameServer@@UAEHPAU_tagCONTEXT_HEAD@@PAU_tagENTER_GAME_EX@@@Z 0041cfb3 f   Server.obj
 0001:0001c027       ?OnPlayerEnterGame@CGameServer@@UAEHPAU_tagCONTEXT_HEAD@@PAU_tagENTER_GAME_OK_EX@@PAVREQUEST@@@Z 0041d027 f   Server.obj
 0001:0001c8b1       ?SendWelfareActivityID@CGameServer@@QAEXIJ@Z 0041d8b1 f   Server.obj
 0001:0001c907       ?SendIsTongbiRoom@CGameServer@@QAEXHIJ@Z 0041d907 f   Server.obj
 0001:0001c97c       ?OnChatToTableEx@CGameServer@@UAEHPAU_tagCONTEXT_HEAD@@PAVREQUEST@@PAVCWorkerContext@@@Z 0041d97c f   Server.obj
 0001:0001d16e       ?CopyWaitResultMap@CGameServer@@QAEXAAV?$CMap@KKU_tagWAIT_FRESHRESULT@@AAU1@@@@Z 0041e16e f   Server.obj
 0001:0001d214       ?RemoveWaitResultByKey@CGameServer@@QAEXK@Z 0041e214 f   Server.obj
 0001:0001d27b       ?CheckGameWin@CGameServer@@UAEXXZ 0041e27b f   Server.obj
 0001:0001d49b       ?GetThreadID_ChunkConnect@CGameServer@@QAEIXZ 0041e49b f   Server.obj
 0001:0001d4af       ?Chunk_BaseVerify@CGameServer@@QAEHHH@Z 0041e4af f   Server.obj
 0001:0001d4da       ?Chunk_TransmitRequest@CGameServer@@QAEHPAU_tagCONTEXT_HEAD@@PAVREQUEST@@@Z 0041e4da f   Server.obj
 0001:0001d64e       ?Chunk_SendPulseData@CGameServer@@QAEXXZ 0041e64e f   Server.obj
 0001:0001d744       ?Chunk_SendThreadFunc@CGameServer@@KGIPAX@Z 0041e744 f   Server.obj
 0001:0001d75c       ?Chunk_ConnectThreadFunc@CGameServer@@KGIPAX@Z 0041e75c f   Server.obj
 0001:0001d774       ?Chunk_ServerPulseThreadFunc@CGameServer@@KGIPAX@Z 0041e774 f   Server.obj
 0001:0001d78c       ?Chunk_TimerThreadFunc@CGameServer@@KGIPAX@Z 0041e78c f   Server.obj
 0001:0001d7a4       ?Chunk_SendThreadProc@CGameServer@@IAEIXZ 0041e7a4 f   Server.obj
 0001:0001d988       ?Chunk_ConnectThreadProc@CGameServer@@IAEIXZ 0041e988 f   Server.obj
 0001:0001db3c       ?Chunk_ServerPulseThreadProc@CGameServer@@IAEIXZ 0041eb3c f   Server.obj
 0001:0001dcef       ?Chunk_TimerThreadProc@CGameServer@@IAEIXZ 0041ecef f   Server.obj
 0001:0001ddb5       ?Chunk_ValidateClientEx@CGameServer@@IAEHXZ 0041edb5 f   Server.obj
 0001:0001ddc5       ?Chunk_ValidateClientInfo@CGameServer@@IAEHH@Z 0041edc5 f   Server.obj
 0001:0001df75       ?Chunk_IsTimingOK@CGameServer@@IAEHKAAH00@Z 0041ef75 f   Server.obj
 0001:0001e079       ?Chunk_DoTimingWork@CGameServer@@IAEHXZ 0041f079 f   Server.obj
 0001:0001e0cc       ?Chunk_OnTimerTriggered@CGameServer@@IAEHKAAH00@Z 0041f0cc f   Server.obj
 0001:0001e101       ?Chunk_OnHourTriggered@CGameServer@@IAEXAAH@Z 0041f101 f   Server.obj
 0001:0001e10e       ?OnChunkSendPulse@CGameServer@@QAEHPAVREQUEST@@@Z 0041f10e f   Server.obj
 0001:0001e17b       ?Chunk_SetIsConnectChunkSvr@CGameServer@@IAEXH@Z 0041f17b f   Server.obj
 0001:0001e194       ?Chunk_GetIsConnectChunkSvr@CGameServer@@IAEHXZ 0041f194 f   Server.obj
 0001:0001e1a8       ?OnRoomLimit@CGameServer@@UAEHPAU_tagCONTEXT_HEAD@@PAVREQUEST@@PAVCWorkerContext@@@Z 0041f1a8 f   Server.obj
 0001:0001e63b       ?OnChargeBtn@CGameServer@@UAEHPAU_tagCONTEXT_HEAD@@PAVREQUEST@@PAVCWorkerContext@@@Z 0041f63b f   Server.obj
 0001:0001ea2f       ?SendChargeUrl@CGameServer@@QAEXIJ@Z 0041fa2f f   Server.obj
 0001:0001eb57       ?OnNewTableChair@CGameServer@@UAEHHHHH@Z 0041fb57 f   Server.obj
 0001:0001ecc5       ?ResetTableBanker@CGameServer@@QAEXPAVCTable@@H@Z 0041fcc5 f   Server.obj
 0001:0001ed7c       ?OnUserStart@CGameServer@@UAEHPAVCTable@@H@Z 0041fd7c f   Server.obj
 0001:0001efa0       ??_GREQUEST@@QAEPAXI@Z     0041ffa0 f i Server.obj
 0001:0001efd0       ?Lookup@?$CMap@HHPAVCTable@@PAV1@@@QBEHHAAPAVCTable@@@Z 0041ffd0 f i Server.obj
 0001:0001f010       ?Lookup@?$CMap@HHPAVCRoom@@PAV1@@@QBEHHAAPAVCRoom@@@Z 00420010 f i Server.obj
 0001:0001f050       ?Lookup@?$CMap@HHU_tagUSER_DATA@@AAU1@@@QBEHHAAU_tagUSER_DATA@@@Z 00420050 f i Server.obj
 0001:0001f0a0       ??0?$CMap@KKU_tagWAIT_FRESHRESULT@@AAU1@@@QAE@H@Z 004200a0 f i Server.obj
 0001:0001f100       ??0CObject@@IAE@XZ         00420100 f i Server.obj
 0001:0001f120       ??_GCObject@@UAEPAXI@Z     00420120 f i Server.obj
 0001:0001f120       ??_ECObject@@UAEPAXI@Z     00420120 f i Server.obj
 0001:0001f150       ??1CObject@@UAE@XZ         00420150 f i Server.obj
 0001:0001f170       ?Serialize@CObject@@UAEXAAVCArchive@@@Z 00420170 f i Server.obj
 0001:0001f180       ??3CObject@@SGXPAX@Z       00420180 f i Server.obj
 0001:0001f1a0       ?AssertValid@CObject@@UBEXXZ 004201a0 f i Server.obj
 0001:0001f1b0       ?Dump@CObject@@UBEXAAVCDumpContext@@@Z 004201b0 f i Server.obj
 0001:0001f1c0       ?GetCount@?$CMap@KKU_tagWAIT_FRESHRESULT@@AAU1@@@QBEHXZ 004201c0 f i Server.obj
 0001:0001f1e0       ?SetAt@?$CMap@KKU_tagWAIT_FRESHRESULT@@AAU1@@@QAEXKAAU_tagWAIT_FRESHRESULT@@@Z 004201e0 f i Server.obj
 0001:0001f210       ?RemoveKey@?$CMap@KKU_tagWAIT_FRESHRESULT@@AAU1@@@QAEHK@Z 00420210 f i Server.obj
 0001:0001f2a0       ?GetStartPosition@?$CMap@KKU_tagWAIT_FRESHRESULT@@AAU1@@@QBEPAU__POSITION@@XZ 004202a0 f i Server.obj
 0001:0001f2c0       ?GetNextAssoc@?$CMap@KKU_tagWAIT_FRESHRESULT@@AAU1@@@QBEXAAPAU__POSITION@@AAKAAU_tagWAIT_FRESHRESULT@@@Z 004202c0 f i Server.obj
 0001:0001f390       ??1?$CMap@KKU_tagWAIT_FRESHRESULT@@AAU1@@@UAE@XZ 00420390 f i Server.obj
 0001:0001f3f0       ?Serialize@?$CMap@KKU_tagWAIT_FRESHRESULT@@AAU1@@@UAEXAAVCArchive@@@Z 004203f0 f i Server.obj
 0001:0001f4f0       ?IsStoring@CArchive@@QBEHXZ 004204f0 f i Server.obj
 0001:0001f510       ??_E?$CMap@KKU_tagWAIT_FRESHRESULT@@AAU1@@@UAEPAXI@Z 00420510 f i Server.obj
 0001:0001f510       ??_G?$CMap@KKU_tagWAIT_FRESHRESULT@@AAU1@@@UAEPAXI@Z 00420510 f i Server.obj
 0001:0001f540       ?SerializeElements@@YGXAAVCArchive@@PAKH@Z 00420540 f i Server.obj
 0001:0001f580       ?GetAssocAt@?$CMap@HHPAVCTable@@PAV1@@@IBEPAUCAssoc@1@HAAI@Z 00420580 f i Server.obj
 0001:0001f5f0       ?GetAssocAt@?$CMap@HHPAVCRoom@@PAV1@@@IBEPAUCAssoc@1@HAAI@Z 004205f0 f i Server.obj
 0001:0001f660       ?GetAssocAt@?$CMap@HHU_tagUSER_DATA@@AAU1@@@IBEPAUCAssoc@1@HAAI@Z 00420660 f i Server.obj
 0001:0001f6d0       ??A?$CMap@KKU_tagWAIT_FRESHRESULT@@AAU1@@@QAEAAU_tagWAIT_FRESHRESULT@@K@Z 004206d0 f i Server.obj
 0001:0001f760       ?RemoveAll@?$CMap@KKU_tagWAIT_FRESHRESULT@@AAU1@@@QAEXXZ 00420760 f i Server.obj
 0001:0001f820       ?FreeAssoc@?$CMap@KKU_tagWAIT_FRESHRESULT@@AAU1@@@IAEXPAUCAssoc@1@@Z 00420820 f i Server.obj
 0001:0001f880       ?HashKey@@YGIK@Z           00420880 f i Server.obj
 0001:0001f890       ?CompareElements@@YGHPBK0@Z 00420890 f i Server.obj
 0001:0001f8b0       ?SerializeElements@@YGXAAVCArchive@@PAU_tagWAIT_FRESHRESULT@@H@Z 004208b0 f i Server.obj
 0001:0001f8f0       ?DestructElements@@YGXPAKH@Z 004208f0 f i Server.obj
 0001:0001f920       ?HashKey@@YGIH@Z           00420920 f i Server.obj
 0001:0001f930       ?CompareElements@@YGHPBH0@Z 00420930 f i Server.obj
 0001:0001f950       ?InitHashTable@?$CMap@KKU_tagWAIT_FRESHRESULT@@AAU1@@@QAEXIH@Z 00420950 f i Server.obj
 0001:0001f9d0       ?NewAssoc@?$CMap@KKU_tagWAIT_FRESHRESULT@@AAU1@@@IAEPAUCAssoc@1@XZ 004209d0 f i Server.obj
 0001:0001faa0       ?GetAssocAt@?$CMap@KKU_tagWAIT_FRESHRESULT@@AAU1@@@IBEPAUCAssoc@1@KAAI@Z 00420aa0 f i Server.obj
 0001:0001fb10       ?DestructElements@@YGXPAU_tagWAIT_FRESHRESULT@@H@Z 00420b10 f i Server.obj
 0001:0001fb40       ?ConstructElements@@YGXPAKH@Z 00420b40 f i Server.obj
 0001:0001fb90       ?ConstructElements@@YGXPAU_tagWAIT_FRESHRESULT@@H@Z 00420b90 f i Server.obj
 0001:0001fcb1       ?WriteMiniDMP@@YAXPAU_EXCEPTION_POINTERS@@@Z 00420cb1 f   TcSgSvr.obj
 0001:0001fdec       ?ExpFilter@@YGJPAU_EXCEPTION_POINTERS@@@Z 00420dec f   TcSgSvr.obj
 0001:0001fe04       _main                      00420e04 f   TcSgSvr.obj
 0001:0001ff60       ??0CGameService@@QAE@PBD0HH000HHKK@Z 00420f60 f i TcSgSvr.obj
 0001:0001ffb0       ?OnNewServer@CGameService@@UAEPAVCBaseServer@@XZ 00420fb0 f i TcSgSvr.obj
 0001:00020070       ??0CGameServer@@QAE@PBD00HHKK@Z 00421070 f i TcSgSvr.obj
 0001:000201e0       ?CheckBeforeGameStart@CBaseServer@@UAEHPAVCTable@@@Z 004211e0 f i TcSgSvr.obj
 0001:00020200       ?OnSeverAutoPlay@CMainServer@@MAEXPAVCTable@@H@Z 00421200 f i TcSgSvr.obj
 0001:00020210       ??0CSkServer@@QAE@PBD00HHKK@Z 00421210 f i TcSgSvr.obj
 0001:00020250       ??_GCSkServer@@UAEPAXI@Z   00421250 f i TcSgSvr.obj
 0001:00020250       ??_ECSkServer@@UAEPAXI@Z   00421250 f i TcSgSvr.obj
 0001:00020280       ??1CSkServer@@UAE@XZ       00421280 f i TcSgSvr.obj
 0001:000202a0       ??0CMySockClit@@QAE@PAVCBaseServer@@HKK@Z 004212a0 f i TcSgSvr.obj
 0001:000202e0       ??0CSockClient@@QAE@PAVCBaseServer@@HKK@Z 004212e0 f i TcSgSvr.obj
 0001:00020320       ??_GCSockClient@@UAEPAXI@Z 00421320 f i TcSgSvr.obj
 0001:00020320       ??_ECSockClient@@UAEPAXI@Z 00421320 f i TcSgSvr.obj
 0001:00020350       ??1CSockClient@@UAE@XZ     00421350 f i TcSgSvr.obj
 0001:00020370       ??_GCMySockClit@@UAEPAXI@Z 00421370 f i TcSgSvr.obj
 0001:00020370       ??_ECMySockClit@@UAEPAXI@Z 00421370 f i TcSgSvr.obj
 0001:000203a0       ??1CMySockClit@@UAE@XZ     004213a0 f i TcSgSvr.obj
 0001:000203c0       ??_GCGameServer@@UAEPAXI@Z 004213c0 f i TcSgSvr.obj
 0001:000203c0       ??_ECGameServer@@UAEPAXI@Z 004213c0 f i TcSgSvr.obj
 0001:000203f0       ??1CGameServer@@UAE@XZ     004213f0 f i TcSgSvr.obj
 0001:00020450       ??_GCGameService@@UAEPAXI@Z 00421450 f i TcSgSvr.obj
 0001:00020450       ??_ECGameService@@UAEPAXI@Z 00421450 f i TcSgSvr.obj
 0001:00020480       ??1CGameService@@UAE@XZ    00421480 f i TcSgSvr.obj
 0001:000204a0       ?TCSG_CalcCardValue@@YAHH@Z 004214a0 f   TcSgTbl.obj
 0001:000204c3       ?TCSG_CalcCardPoint@@YAHH@Z 004214c3 f   TcSgTbl.obj
 0001:0002053c       ??0CGameTable@@QAE@HHHHKKHHHHHHHHQAHHHHHHHP6AHHK@Z111P6AHHHK@Z2@Z 0042153c f   TcSgTbl.obj
 0001:000206c0       ??1CGameTable@@UAE@XZ      004216c0 f   TcSgTbl.obj
 0001:00020739       ?InitialGameTableInfo@@YAXPAU_tagGAME_TABLE_INFO@@@Z 00421739 f   TcSgTbl.obj
 0001:000207b8       ?My_GetIndexPRI@@YAHHHK@Z  004217b8 f   TcSgTbl.obj
 0001:000207e9       ?GetGameTableInfo@CGameTable@@QAEPAU_tagGAME_TABLE_INFO@@XZ 004217e9 f   TcSgTbl.obj
 0001:00020814       ?GetPublicInfo@CGameTable@@QAEPAU_tagGAME_PUBLIC_INFO@@XZ 00421814 f   TcSgTbl.obj
 0001:00020844       ?GetStartInfo@CGameTable@@QAEPAU_tagGAME_START_INFO@@XZ 00421844 f   TcSgTbl.obj
 0001:0002086f       ?GetPlayerInfo@CGameTable@@QAEPAU_tagGAME_PLAYER_INFO@@H@Z 0042186f f   TcSgTbl.obj
 0001:000208ac       ?ResetMembers@CGameTable@@UAEXH@Z 004218ac f   TcSgTbl.obj
 0001:00020a3b       ?ResetTable@CGameTable@@UAEXXZ 00421a3b f   TcSgTbl.obj
 0001:00020aa3       ?GetGameTableInfoSize@CGameTable@@UAEHXZ 00421aa3 f   TcSgTbl.obj
 0001:00020ab3       ?FillupGameTableInfo@CGameTable@@UAEXPAXHHH@Z 00421ab3 f   TcSgTbl.obj
 0001:00020eff       ?GetEnterGameInfoSize@CGameTable@@UAEHXZ 00421eff f   TcSgTbl.obj
 0001:00020f0f       ?FillupEnterGameInfo@CGameTable@@UAEXPAXHHH@Z 00421f0f f   TcSgTbl.obj
 0001:00020f78       ?GetGameStartSize@CGameTable@@UAEHXZ 00421f78 f   TcSgTbl.obj
 0001:00020f88       ?FillupGameStart@CGameTable@@UAEXPAXHHH@Z 00421f88 f   TcSgTbl.obj
 0001:00021006       ?GetGameWinSize@CGameTable@@UAEHXZ 00422006 f   TcSgTbl.obj
 0001:00021016       ?FillupGameWin@CGameTable@@UAEHPAXHH@Z 00422016 f   TcSgTbl.obj
 0001:00021282       ?FillupStartData@CGameTable@@UAEXPAXH@Z 00422282 f   TcSgTbl.obj
 0001:000213f3       ?CalcBankerChairBefore@CGameTable@@UAEHXZ 004223f3 f   TcSgTbl.obj
 0001:0002148b       ?CalcBankerChairAfter@CGameTable@@UAEHPAXH@Z 0042248b f   TcSgTbl.obj
 0001:000214a1       ?CalcWinPoints@CGameTable@@UAEHPAXHHQAH@Z 004224a1 f   TcSgTbl.obj
 0001:0002163e       ?CalcResultDiffs@CGameTable@@UAEHPAXHQAH1@Z 0042263e f   TcSgTbl.obj
 0001:00021840       ?ConstructGameData@CGameTable@@UAEXXZ 00422840 f   TcSgTbl.obj
 0001:00021887       ?GetRandomBombNum@CGameTable@@QAEHH@Z 00422887 f   TcSgTbl.obj
 0001:0002195a       ?MakeDealCards@CGameTable@@QAEHH@Z 0042295a f   TcSgTbl.obj
 0001:00021b9b       ?MakeCardsLayIn@CGameTable@@QAEXHHAAHQAH@Z 00422b9b f   TcSgTbl.obj
 0001:00021c3a       ?DealCardNormal@CGameTable@@QAEXXZ 00422c3a f   TcSgTbl.obj
 0001:00021c55       ?DealCardNormal_Begin@CGameTable@@QAEXXZ 00422c55 f   TcSgTbl.obj
 0001:00021dcf       ?DealCardNormal_End@CGameTable@@QAEXXZ 00422dcf f   TcSgTbl.obj
 0001:00021fb5       ?CalcCardType@CGameTable@@UAEHHPAU_tagSANGONG_DETAIL@@@Z 00422fb5 f   TcSgTbl.obj
 0001:000220c0       ?IsMakedCard@CGameTable@@QAEHH@Z 004230c0 f   TcSgTbl.obj
 0001:0002214b       ?StartDeal@CGameTable@@UAEXXZ 0042314b f   TcSgTbl.obj
 0001:00022333       ?CheckCards@CGameTable@@UAEHXZ 00423333 f   TcSgTbl.obj
 0001:00022402       ?ReadCardsFromFile@CGameTable@@QAEHXZ 00423402 f   TcSgTbl.obj
 0001:00022715       ?RetrieveFields@CGameTable@@QAEHPADPAPADH1@Z 00423715 f   TcSgTbl.obj
 0001:0002281c       ?GetINIFileName@CGameTable@@QAE?AVCString@@XZ 0042381c f   TcSgTbl.obj
 0001:0002291c       ?CatchOneCard@CGameTable@@UAEHH@Z 0042391c f   TcSgTbl.obj
 0001:00022a1e       ?GiveCard@CGameTable@@UAEHHHH@Z 00423a1e f   TcSgTbl.obj
 0001:00022ad8       ?ValidateThrow@CGameTable@@UAEHPAU_tagCARDS_THROW@@@Z 00423ad8 f   TcSgTbl.obj
 0001:00022ce9       ?ThrowCards@CGameTable@@UAEHPAU_tagCARDS_THROW@@@Z 00423ce9 f   TcSgTbl.obj
 0001:00022eac       ?GetCard@CGameTable@@UAEPAU_tagCARDINFO@@H@Z 00423eac f   TcSgTbl.obj
 0001:00022f11       ?SetCardStatus@CGameTable@@UAEHHHH@Z 00423f11 f   TcSgTbl.obj
 0001:00022f91       ?CalcWinOnThrow@CGameTable@@UAEHPAU_tagCARDS_THROW@@@Z 00423f91 f   TcSgTbl.obj
 0001:00023111       ?CalcWinOnPass@CGameTable@@UAEHPAU_tagCARDS_PASS@@@Z 00424111 f   TcSgTbl.obj
 0001:0002328a       ?PutThrowCardsToCost@CGameTable@@UAEXH@Z 0042428a f   TcSgTbl.obj
 0001:00023302       ?PutAllCardsToCost@CGameTable@@UAEXXZ 00424302 f   TcSgTbl.obj
 0001:00023363       ?GetTributeCard@CGameTable@@UAEHH@Z 00424363 f   TcSgTbl.obj
 0001:00023479       ?GetInHandCard@CGameTable@@UAEHHQAH@Z 00424479 f   TcSgTbl.obj
 0001:00023519       ?SetCurrentRank@CGameTable@@UAEXH@Z 00424519 f   TcSgTbl.obj
 0001:00023537       ?GetCurrentRank@CGameTable@@UAEHXZ 00424537 f   TcSgTbl.obj
 0001:00023550       ?CalcChairThrowTime@CGameTable@@UAEHH@Z 00424550 f   TcSgTbl.obj
 0001:000235c4       ?CalcBombInThrow@CGameTable@@UAEXPAU_tagCARDS_THROW@@@Z 004245c4 f   TcSgTbl.obj
 0001:0002362a       ?IsCardInHand@CGameTable@@UAEHHQAHH@Z 0042462a f   TcSgTbl.obj
 0001:00023696       ?OnPass@CGameTable@@UAEXPAU_tagCARDS_PASS@@@Z 00424696 f   TcSgTbl.obj
 0001:000236b6       ?ValidatePass@CGameTable@@UAEHPAU_tagCARDS_PASS@@@Z 004246b6 f   TcSgTbl.obj
 0001:00023748       ?FillupNextBoutInfo@CGameTable@@UAEXPAXHH@Z 00424748 f   TcSgTbl.obj
 0001:0002383b       ?GetCardType_Bomb@CGameTable@@UAEHQAHH0HHAAU_tagUNITE_TYPE@@H@Z 0042483b f   TcSgTbl.obj
 0001:00023a69       ?GetUniteDetails@CGameTable@@UAEHHQAHHAAU_tagCARD_UNITE@@K@Z 00424a69 f   TcSgTbl.obj
 0001:00023d0c       ?SetStatusOnStart@CGameTable@@UAEKXZ 00424d0c f   TcSgTbl.obj
 0001:00023d2f       ?SetCurrentChairOnStart@CGameTable@@UAEHXZ 00424d2f f   TcSgTbl.obj
 0001:00023d6a       ?CaclCardType_Three_1@CGameTable@@UAEHQAHHHPAU_tagCARD_UNITE@@@Z 00424d6a f   TcSgTbl.obj
 0001:00023e49       ?GetCardType_Three_1@CGameTable@@UAEHQAHH0HHAAU_tagUNITE_TYPE@@@Z 00424e49 f   TcSgTbl.obj
 0001:00023fe8       ?CaclCardType_ABT_Single@CGameTable@@UAEHQAHHHPAU_tagCARD_UNITE@@@Z 00424fe8 f   TcSgTbl.obj
 0001:00024104       ?GetCardType_ABT_Single@CGameTable@@UAEHQAHH0HHAAU_tagUNITE_TYPE@@H@Z 00425104 f   TcSgTbl.obj
 0001:000243e3       ?CaclCardType_ABT_Couple@CGameTable@@UAEHQAHHHPAU_tagCARD_UNITE@@@Z 004253e3 f   TcSgTbl.obj
 0001:000244f0       ?GetCardType_ABT_Couple@CGameTable@@UAEHQAHH0HHAAU_tagUNITE_TYPE@@H@Z 004254f0 f   TcSgTbl.obj
 0001:0002479a       ?CaclCardType_ABT_Three_Couple@CGameTable@@UAEHQAHHHPAU_tagCARD_UNITE@@@Z 0042579a f   TcSgTbl.obj
 0001:000248a5       ?GetCardType_ABT_Three_Couple@CGameTable@@UAEHQAHH0HHAAU_tagUNITE_TYPE@@H@Z 004258a5 f   TcSgTbl.obj
 0001:00024e54       ?GetIndexByIndex@CGameTable@@QAEHQAHHH@Z 00425e54 f   TcSgTbl.obj
 0001:00024ead       ?GetBit1Count@CGameTable@@QAEHI@Z 00425ead f   TcSgTbl.obj
 0001:00024ee5       ?GetLayPri@CGameTable@@QAEHQAHH@Z 00425ee5 f   TcSgTbl.obj
 0001:00024f4b       ?GetLayPriEx@CGameTable@@QAEHQAHH@Z 00425f4b f   TcSgTbl.obj
 0001:00024fb7       ?CaclCardType_ABT_Three_1@CGameTable@@UAEHQAHHHPAU_tagCARD_UNITE@@@Z 00425fb7 f   TcSgTbl.obj
 0001:000250c8       ?GetCardType_ABT_Three_1@CGameTable@@UAEHQAHH0HHAAU_tagUNITE_TYPE@@H@Z 004260c8 f   TcSgTbl.obj
 0001:00025590       ?CalcCardType_Four_2@CGameTable@@UAEHQAHHHPAU_tagCARD_UNITE@@@Z 00426590 f   TcSgTbl.obj
 0001:00025694       ?GetCardType_Four_2@CGameTable@@UAEHQAHH0HHAAU_tagUNITE_TYPE@@@Z 00426694 f   TcSgTbl.obj
 0001:00025af9       ?CalcCardType_Four_2_Couple@CGameTable@@UAEHQAHHHPAU_tagCARD_UNITE@@@Z 00426af9 f   TcSgTbl.obj
 0001:00025bfd       ?GetCardType_Four_2_Couple@CGameTable@@UAEHQAHH0HHAAU_tagUNITE_TYPE@@@Z 00426bfd f   TcSgTbl.obj
 0001:000260de       ?CalcCardType_BOMB_2King@CGameTable@@UAEHQAHHHPAU_tagCARD_UNITE@@@Z 004270de f   TcSgTbl.obj
 0001:000261c7       ?GetCardType_BOMB_2King@CGameTable@@UAEHQAHH0HHAAU_tagUNITE_TYPE@@@Z 004271c7 f   TcSgTbl.obj
 0001:000262f0       ?IsGameMsg@CGameTable@@UAEHI@Z 004272f0 f   TcSgTbl.obj
 0001:0002636c       ?ActuallizeResults@CGameTable@@UAEXPAXH@Z 0042736c f   TcSgTbl.obj
 0001:0002649f       ?OnPlayerPassiveEvent@CGameTable@@QAEXH@Z 0042749f f   TcSgTbl.obj
 0001:000264de       ?OnPlayerActiveEvent@CGameTable@@QAEXH@Z 004274de f   TcSgTbl.obj
 0001:00026511       ?IsTooManyAutoPlay@CGameTable@@QAEHH@Z 00427511 f   TcSgTbl.obj
 0001:0002654e       ?CalcDoubleOfScore@CGameTable@@UAEHHHH@Z 0042754e f   TcSgTbl.obj
 0001:000265a7       ?CalcBreakDeposit@CGameTable@@UAEHHHAAH@Z 004275a7 f   TcSgTbl.obj
 0001:00026600       ?GetBestUnitType@CGameTable@@UAEHAAU_tagUNITE_TYPE@@AAU_tagCARD_UNITE@@@Z 00427600 f   TcSgTbl.obj
 0001:00026837       ?GetBestUnitType@CGameTable@@UAEHAAU_tagCARD_UNITE@@@Z 00427837 f   TcSgTbl.obj
 0001:00026a38       ?OnZuPai@CGameTable@@UAEHPAU_tagZuPai@@@Z 00427a38 f   TcSgTbl.obj
 0001:00026b03       ?AllZuPai@CGameTable@@UAEHXZ 00427b03 f   TcSgTbl.obj
 0001:00026b5a       ?CalcMaxCard@CGameTable@@UAEHQAU_tagCARDINFO@@H@Z 00427b5a f   TcSgTbl.obj
 0001:00026c65       ?CalcMaxCard@CGameTable@@UAEHQAHH@Z 00427c65 f   TcSgTbl.obj
 0001:00026d4f       ?IsNeedCountdown@CGameTable@@UAEHXZ 00427d4f f   TcSgTbl.obj
 0001:00026d5f       ?CalcBetDeposit@CGameTable@@UAEHXZ 00427d5f f   TcSgTbl.obj
 0001:00026e80       ?CalcPlayerBaseDeposit@CGameTable@@QAEHHH@Z 00427e80 f   TcSgTbl.obj
 0001:00026f7c       ?CalcBaseDeposit@CGameTable@@UAEHQAHH@Z 00427f7c f   TcSgTbl.obj
 0001:0002709e       ?CalcOpeTime@CGameTable@@UAEHXZ 0042809e f   TcSgTbl.obj
 0001:00027118       ?IsAllAllowExit@CGameTable@@UAEHH@Z 00428118 f   TcSgTbl.obj
 0001:00027195       ?SetStatusOnFinishQZ@CGameTable@@QAEKXZ 00428195 f   TcSgTbl.obj
 0001:000271d5       ?SetStatusOnFinishYaZhu@CGameTable@@QAEKXZ 004281d5 f   TcSgTbl.obj
 0001:00027215       ?DealCardAfterYaZhu@CGameTable@@QAEXXZ 00428215 f   TcSgTbl.obj
 0001:00027480       ?FillupHandCardAfterYaZhu@CGameTable@@QAEXPAU_tagYAZHU@@@Z 00428480 f   TcSgTbl.obj
 0001:000274fb       ?ValidateBetDbl@CGameTable@@QAEHH@Z 004284fb f   TcSgTbl.obj
 0001:00027523       ?GetWinGains@CGameTable@@QAEHAAU_tagSANGONG_DETAIL@@0@Z 00428523 f   TcSgTbl.obj
 0001:000276e7       ?CompensateDeposits@CGameTable@@UAEHQAH0@Z 004286e7 f   TcSgTbl.obj
 0001:00027be4       ?UpdataGameWin@CGameTable@@UAEHPAU_tagREFRESH_RESULT_EX@@AAV?$CMap@HHU_tagPLAYERLEVEL_EX@@U1@@@@Z 00428be4 f   TcSgTbl.obj
 0001:00027c01       ?OnQiangZhuang@CGameTable@@QAEHPAU_tagQZ@@@Z 00428c01 f   TcSgTbl.obj
 0001:00027c8c       ?AllFinishQZ@CGameTable@@QAEHPAU_tagQZ@@@Z 00428c8c f   TcSgTbl.obj
 0001:00027ef7       ?OnYaZhu@CGameTable@@QAEHPAU_tagYAZHU@@@Z 00428ef7 f   TcSgTbl.obj
 0001:00027f9a       ?AllFinishYaZhu@CGameTable@@QAEHPAU_tagYAZHU@@@Z 00428f9a f   TcSgTbl.obj
 0001:00028015       ?SetResetBanker@CGameTable@@QAEXH@Z 00429015 f   TcSgTbl.obj
 0001:0002802e       ?TellBreakChair@CGameTable@@UAEHHK@Z 0042902e f   TcSgTbl.obj
 0001:0002803e       ?IsOperateTimeOver@CGameTable@@UAEHXZ 0042903e f   TcSgTbl.obj
 0001:00028140       ??_GCGameTable@@UAEPAXI@Z  00429140 f i TcSgTbl.obj
 0001:00028140       ??_ECGameTable@@UAEPAXI@Z  00429140 f i TcSgTbl.obj
 0001:00028170       ?random_shuffle@std@@YAXPAH0@Z 00429170 f i TcSgTbl.obj
 0001:000281a0       ?_Dist_type@std@@YAPAHPBH@Z 004291a0 f i TcSgTbl.obj
 0001:000281b0       ?_Random_shuffle@std@@YAXPAH00@Z 004291b0 f i TcSgTbl.obj
 0001:00028260       ?iter_swap@std@@YAXPAH0@Z  00429260 f i TcSgTbl.obj
 0001:00028290       ?_Val_type@std@@YAPAHPBH@Z 00429290 f i TcSgTbl.obj
 0001:000282a0       ?_Iter_swap@std@@YAXPAH00@Z 004292a0 f i TcSgTbl.obj
 0001:000282d0       ?SvrXygRandomSort@@YAXQAHHH@Z 004292d0 f i TcSgTbl.obj
 0001:00028360       ?SvrReversalMoreByValue@@YAXQAH0H@Z 00429360 f i TcSgTbl.obj
 0001:00028420       _soap_getheader            00429420 f   soapC.obj
 0001:00028474       _soap_putheader            00429474 f   soapC.obj
 0001:000284d8       _soap_serializeheader      004294d8 f   soapC.obj
 0001:0002850a       _soap_header               0042950a f   soapC.obj
 0001:00028554       _soap_fault                00429554 f   soapC.obj
 0001:0002863f       _soap_serializefault       0042963f f   soapC.obj
 0001:00028672       _soap_putfault             00429672 f   soapC.obj
 0001:000286a4       _soap_getfault             004296a4 f   soapC.obj
 0001:000286d6       _soap_faultcode            004296d6 f   soapC.obj
 0001:00028719       _soap_faultsubcode         00429719 f   soapC.obj
 0001:0002879b       _soap_check_faultsubcode   0042979b f   soapC.obj
 0001:0002880d       _soap_faultstring          0042980d f   soapC.obj
 0001:00028844       _soap_faultdetail          00429844 f   soapC.obj
 0001:000288ff       _soap_check_faultdetail    004298ff f   soapC.obj
 0001:0002895c       ?soap_getindependent@@YAHPAUsoap@@@Z 0042995c f   soapC.obj
 0001:000289d2       _soap_getelement           004299d2 f   soapC.obj
 0001:000299de       ?soap_ignore_element@@YAHPAUsoap@@@Z 0042a9de f   soapC.obj
 0001:00029b5f       ?soap_putindependent@@YAHPAUsoap@@@Z 0042ab5f f   soapC.obj
 0001:00029c2b       _soap_putelement           0042ac2b f   soapC.obj
 0001:0002a6e1       _soap_markelement          0042b6e1 f   soapC.obj
 0001:0002afc3       ?soap_instantiate@@YAPAXPAUsoap@@HPBD1PAI@Z 0042bfc3 f   soapC.obj
 0001:0002b82f       ?soap_fdelete@@YAHPAUsoap_clist@@@Z 0042c82f f   soapC.obj
 0001:0002d263       ?soap_class_id_enter@@YAPAXPAUsoap@@PBDPAXHI11@Z 0042e263 f   soapC.obj
 0001:0002d293       ?soap_default_byte@@YAXPAUsoap@@PAD@Z 0042e293 f   soapC.obj
 0001:0002d29e       ?soap_out_byte@@YAHPAUsoap@@PBDH11@Z 0042e29e f   soapC.obj
 0001:0002d2c1       ?soap_in_byte@@YAPADPAUsoap@@PBDPAD1@Z 0042e2c1 f   soapC.obj
 0001:0002d2e9       ?soap_put_byte@@YAHPAUsoap@@PBD11@Z 0042e2e9 f   soapC.obj
 0001:0002d35c       ?soap_get_byte@@YAPADPAUsoap@@PADPBD2@Z 0042e35c f   soapC.obj
 0001:0002d399       ?soap_default_int@@YAXPAUsoap@@PAH@Z 0042e399 f   soapC.obj
 0001:0002d3a7       ?soap_out_int@@YAHPAUsoap@@PBDHPBH1@Z 0042e3a7 f   soapC.obj
 0001:0002d3ca       ?soap_in_int@@YAPAHPAUsoap@@PBDPAH1@Z 0042e3ca f   soapC.obj
 0001:0002d3f2       ?soap_put_int@@YAHPAUsoap@@PBHPBD2@Z 0042e3f2 f   soapC.obj
 0001:0002d465       ?soap_get_int@@YAPAHPAUsoap@@PAHPBD2@Z 0042e465 f   soapC.obj
 0001:0002d4a2       ?soap_default_time@@YAXPAUsoap@@PAJ@Z 0042e4a2 f   soapC.obj
 0001:0002d4b0       ?soap_out_time@@YAHPAUsoap@@PBDHPBJ1@Z 0042e4b0 f   soapC.obj
 0001:0002d4d3       ?soap_in_time@@YAPAJPAUsoap@@PBDPAJ1@Z 0042e4d3 f   soapC.obj
 0001:0002d4fb       ?soap_put_time@@YAHPAUsoap@@PBJPBD2@Z 0042e4fb f   soapC.obj
 0001:0002d56e       ?soap_get_time@@YAPAJPAUsoap@@PAJPBD2@Z 0042e56e f   soapC.obj
 0001:0002d5ab       ?soap_default_bool@@YAXPAUsoap@@PA_N@Z 0042e5ab f   soapC.obj
 0001:0002d5b6       ?soap_bool2s@@YAPBDPAUsoap@@_N@Z 0042e5b6 f   soapC.obj
 0001:0002d5d7       ?soap_out_bool@@YAHPAUsoap@@PBDHPB_N1@Z 0042e5d7 f   soapC.obj
 0001:0002d649       ?soap_s2bool@@YAHPAUsoap@@PBDPA_N@Z 0042e649 f   soapC.obj
 0001:0002d6d8       ?soap_in_bool@@YAPA_NPAUsoap@@PBDPA_N1@Z 0042e6d8 f   soapC.obj
 0001:0002d840       ?soap_put_bool@@YAHPAUsoap@@PB_NPBD2@Z 0042e840 f   soapC.obj
 0001:0002d8b3       ?soap_get_bool@@YAPA_NPAUsoap@@PA_NPBD2@Z 0042e8b3 f   soapC.obj
 0001:0002d8f0       ?soap_default_ns1__ItemTypeEnum@@YAXPAUsoap@@PAW4ns1__ItemTypeEnum@@@Z 0042e8f0 f   soapC.obj
 0001:0002d8fe       ?soap_ns1__ItemTypeEnum2s@@YAPBDPAUsoap@@W4ns1__ItemTypeEnum@@@Z 0042e8fe f   soapC.obj
 0001:0002d918       ?soap_out_ns1__ItemTypeEnum@@YAHPAUsoap@@PBDHPBW4ns1__ItemTypeEnum@@1@Z 0042e918 f   soapC.obj
 0001:0002d98a       ?soap_s2ns1__ItemTypeEnum@@YAHPAUsoap@@PBDPAW4ns1__ItemTypeEnum@@@Z 0042e98a f   soapC.obj
 0001:0002d9a7       ?soap_in_ns1__ItemTypeEnum@@YAPAW4ns1__ItemTypeEnum@@PAUsoap@@PBDPAW41@1@Z 0042e9a7 f   soapC.obj
 0001:0002dab2       ?soap_put_ns1__ItemTypeEnum@@YAHPAUsoap@@PBW4ns1__ItemTypeEnum@@PBD2@Z 0042eab2 f   soapC.obj
 0001:0002db25       ?soap_get_ns1__ItemTypeEnum@@YAPAW4ns1__ItemTypeEnum@@PAUsoap@@PAW41@PBD2@Z 0042eb25 f   soapC.obj
 0001:0002db62       ?soap_default_ns1__KindEnum@@YAXPAUsoap@@PAW4ns1__KindEnum@@@Z 0042eb62 f   soapC.obj
 0001:0002db70       ?soap_ns1__KindEnum2s@@YAPBDPAUsoap@@W4ns1__KindEnum@@@Z 0042eb70 f   soapC.obj
 0001:0002db8a       ?soap_out_ns1__KindEnum@@YAHPAUsoap@@PBDHPBW4ns1__KindEnum@@1@Z 0042eb8a f   soapC.obj
 0001:0002dbfc       ?soap_s2ns1__KindEnum@@YAHPAUsoap@@PBDPAW4ns1__KindEnum@@@Z 0042ebfc f   soapC.obj
 0001:0002dc19       ?soap_in_ns1__KindEnum@@YAPAW4ns1__KindEnum@@PAUsoap@@PBDPAW41@1@Z 0042ec19 f   soapC.obj
 0001:0002dd24       ?soap_put_ns1__KindEnum@@YAHPAUsoap@@PBW4ns1__KindEnum@@PBD2@Z 0042ed24 f   soapC.obj
 0001:0002dd97       ?soap_get_ns1__KindEnum@@YAPAW4ns1__KindEnum@@PAUsoap@@PAW41@PBD2@Z 0042ed97 f   soapC.obj
 0001:0002ddd4       ?soap_default@_ns1__GetLotteryWinningListResponse_GetLotteryWinningListResult@@UAEXPAUsoap@@@Z 0042edd4 f   soapC.obj
 0001:0002ddff       ?soap_serialize@_ns1__GetLotteryWinningListResponse_GetLotteryWinningListResult@@UBEXPAUsoap@@@Z 0042edff f   soapC.obj
 0001:0002de0c       ?soap_out@_ns1__GetLotteryWinningListResponse_GetLotteryWinningListResult@@UBEHPAUsoap@@PBDH1@Z 0042ee0c f   soapC.obj
 0001:0002de35       ?soap_out__ns1__GetLotteryWinningListResponse_GetLotteryWinningListResult@@YAHPAUsoap@@PBDHPBV_ns1__GetLotteryWinningListResponse_GetLotteryWinningListResult@@1@Z 0042ee35 f   soapC.obj
 0001:0002defd       ?soap_in@_ns1__GetLotteryWinningListResponse_GetLotteryWinningListResult@@UAEPAXPAUsoap@@PBD1@Z 0042eefd f   soapC.obj
 0001:0002df22       ?soap_in__ns1__GetLotteryWinningListResponse_GetLotteryWinningListResult@@YAPAV_ns1__GetLotteryWinningListResponse_GetLotteryWinningListResult@@PAUsoap@@PBDPAV1@1@Z 0042ef22 f   soapC.obj
 0001:0002e23e       ?soap_put@_ns1__GetLotteryWinningListResponse_GetLotteryWinningListResult@@UBEHPAUsoap@@PBD1@Z 0042f23e f   soapC.obj
 0001:0002e2b5       ?soap_get@_ns1__GetLotteryWinningListResponse_GetLotteryWinningListResult@@UAEPAXPAUsoap@@PBD1@Z 0042f2b5 f   soapC.obj
 0001:0002e2da       ?soap_get__ns1__GetLotteryWinningListResponse_GetLotteryWinningListResult@@YAPAV_ns1__GetLotteryWinningListResponse_GetLotteryWinningListResult@@PAUsoap@@PAV1@PBD2@Z 0042f2da f   soapC.obj
 0001:0002e317       ?soap_instantiate__ns1__GetLotteryWinningListResponse_GetLotteryWinningListResult@@YAPAV_ns1__GetLotteryWinningListResponse_GetLotteryWinningListResult@@PAUsoap@@HPBD1PAI@Z 0042f317 f   soapC.obj
 0001:0002e42c       ?soap_copy__ns1__GetLotteryWinningListResponse_GetLotteryWinningListResult@@YAXPAUsoap@@HHPAXIPBXI@Z 0042f42c f   soapC.obj
 0001:0002e43d       ?soap_default@_ns1__GetLotteryWinningTopResponse_GetLotteryWinningTopResult@@UAEXPAUsoap@@@Z 0042f43d f   soapC.obj
 0001:0002e468       ?soap_serialize@_ns1__GetLotteryWinningTopResponse_GetLotteryWinningTopResult@@UBEXPAUsoap@@@Z 0042f468 f   soapC.obj
 0001:0002e475       ?soap_out@_ns1__GetLotteryWinningTopResponse_GetLotteryWinningTopResult@@UBEHPAUsoap@@PBDH1@Z 0042f475 f   soapC.obj
 0001:0002e49e       ?soap_out__ns1__GetLotteryWinningTopResponse_GetLotteryWinningTopResult@@YAHPAUsoap@@PBDHPBV_ns1__GetLotteryWinningTopResponse_GetLotteryWinningTopResult@@1@Z 0042f49e f   soapC.obj
 0001:0002e566       ?soap_in@_ns1__GetLotteryWinningTopResponse_GetLotteryWinningTopResult@@UAEPAXPAUsoap@@PBD1@Z 0042f566 f   soapC.obj
 0001:0002e58b       ?soap_in__ns1__GetLotteryWinningTopResponse_GetLotteryWinningTopResult@@YAPAV_ns1__GetLotteryWinningTopResponse_GetLotteryWinningTopResult@@PAUsoap@@PBDPAV1@1@Z 0042f58b f   soapC.obj
 0001:0002e8a7       ?soap_put@_ns1__GetLotteryWinningTopResponse_GetLotteryWinningTopResult@@UBEHPAUsoap@@PBD1@Z 0042f8a7 f   soapC.obj
 0001:0002e91e       ?soap_get@_ns1__GetLotteryWinningTopResponse_GetLotteryWinningTopResult@@UAEPAXPAUsoap@@PBD1@Z 0042f91e f   soapC.obj
 0001:0002e943       ?soap_get__ns1__GetLotteryWinningTopResponse_GetLotteryWinningTopResult@@YAPAV_ns1__GetLotteryWinningTopResponse_GetLotteryWinningTopResult@@PAUsoap@@PAV1@PBD2@Z 0042f943 f   soapC.obj
 0001:0002e980       ?soap_instantiate__ns1__GetLotteryWinningTopResponse_GetLotteryWinningTopResult@@YAPAV_ns1__GetLotteryWinningTopResponse_GetLotteryWinningTopResult@@PAUsoap@@HPBD1PAI@Z 0042f980 f   soapC.obj
 0001:0002ea95       ?soap_copy__ns1__GetLotteryWinningTopResponse_GetLotteryWinningTopResult@@YAXPAUsoap@@HHPAXIPBXI@Z 0042fa95 f   soapC.obj
 0001:0002eaa6       ?soap_default@_ns1__GetLotteryWinningListResponse@@UAEXPAUsoap@@@Z 0042faa6 f   soapC.obj
 0001:0002eaec       ?soap_serialize@_ns1__GetLotteryWinningListResponse@@UBEXPAUsoap@@@Z 0042faec f   soapC.obj
 0001:0002eb1f       ?soap_out@_ns1__GetLotteryWinningListResponse@@UBEHPAUsoap@@PBDH1@Z 0042fb1f f   soapC.obj
 0001:0002eb48       ?soap_out__ns1__GetLotteryWinningListResponse@@YAHPAUsoap@@PBDHPBV_ns1__GetLotteryWinningListResponse@@1@Z 0042fb48 f   soapC.obj
 0001:0002ec3e       ?soap_in@_ns1__GetLotteryWinningListResponse@@UAEPAXPAUsoap@@PBD1@Z 0042fc3e f   soapC.obj
 0001:0002ec63       ?soap_in__ns1__GetLotteryWinningListResponse@@YAPAV_ns1__GetLotteryWinningListResponse@@PAUsoap@@PBDPAV1@1@Z 0042fc63 f   soapC.obj
 0001:0002ef28       ?soap_put@_ns1__GetLotteryWinningListResponse@@UBEHPAUsoap@@PBD1@Z 0042ff28 f   soapC.obj
 0001:0002ef9f       ?soap_get@_ns1__GetLotteryWinningListResponse@@UAEPAXPAUsoap@@PBD1@Z 0042ff9f f   soapC.obj
 0001:0002efc4       ?soap_get__ns1__GetLotteryWinningListResponse@@YAPAV_ns1__GetLotteryWinningListResponse@@PAUsoap@@PAV1@PBD2@Z 0042ffc4 f   soapC.obj
 0001:0002f001       ?soap_instantiate__ns1__GetLotteryWinningListResponse@@YAPAV_ns1__GetLotteryWinningListResponse@@PAUsoap@@HPBD1PAI@Z 00430001 f   soapC.obj
 0001:0002f15d       ?soap_copy__ns1__GetLotteryWinningListResponse@@YAXPAUsoap@@HHPAXIPBXI@Z 0043015d f   soapC.obj
 0001:0002f16e       ?soap_default@_ns1__GetLotteryWinningList@@UAEXPAUsoap@@@Z 0043016e f   soapC.obj
 0001:0002f255       ?soap_serialize@_ns1__GetLotteryWinningList@@UBEXPAUsoap@@@Z 00430255 f   soapC.obj
 0001:0002f2c1       ?soap_out@_ns1__GetLotteryWinningList@@UBEHPAUsoap@@PBDH1@Z 004302c1 f   soapC.obj
 0001:0002f2ea       ?soap_out__ns1__GetLotteryWinningList@@YAHPAUsoap@@PBDHPBV_ns1__GetLotteryWinningList@@1@Z 004302ea f   soapC.obj
 0001:0002f54e       ?soap_in@_ns1__GetLotteryWinningList@@UAEPAXPAUsoap@@PBD1@Z 0043054e f   soapC.obj
 0001:0002f573       ?soap_in__ns1__GetLotteryWinningList@@YAPAV_ns1__GetLotteryWinningList@@PAUsoap@@PBDPAV1@1@Z 00430573 f   soapC.obj
 0001:0002fab7       ?soap_put@_ns1__GetLotteryWinningList@@UBEHPAUsoap@@PBD1@Z 00430ab7 f   soapC.obj
 0001:0002fb2e       ?soap_get@_ns1__GetLotteryWinningList@@UAEPAXPAUsoap@@PBD1@Z 00430b2e f   soapC.obj
 0001:0002fb53       ?soap_get__ns1__GetLotteryWinningList@@YAPAV_ns1__GetLotteryWinningList@@PAUsoap@@PAV1@PBD2@Z 00430b53 f   soapC.obj
 0001:0002fb90       ?soap_instantiate__ns1__GetLotteryWinningList@@YAPAV_ns1__GetLotteryWinningList@@PAUsoap@@HPBD1PAI@Z 00430b90 f   soapC.obj
 0001:0002fcec       ?soap_copy__ns1__GetLotteryWinningList@@YAXPAUsoap@@HHPAXIPBXI@Z 00430cec f   soapC.obj
 0001:0002fcfd       ?soap_default@_ns1__GetLotteryWinningTopResponse@@UAEXPAUsoap@@@Z 00430cfd f   soapC.obj
 0001:0002fd30       ?soap_serialize@_ns1__GetLotteryWinningTopResponse@@UBEXPAUsoap@@@Z 00430d30 f   soapC.obj
 0001:0002fd63       ?soap_out@_ns1__GetLotteryWinningTopResponse@@UBEHPAUsoap@@PBDH1@Z 00430d63 f   soapC.obj
 0001:0002fd8c       ?soap_out__ns1__GetLotteryWinningTopResponse@@YAHPAUsoap@@PBDHPBV_ns1__GetLotteryWinningTopResponse@@1@Z 00430d8c f   soapC.obj
 0001:0002fe54       ?soap_in@_ns1__GetLotteryWinningTopResponse@@UAEPAXPAUsoap@@PBD1@Z 00430e54 f   soapC.obj
 0001:0002fe79       ?soap_in__ns1__GetLotteryWinningTopResponse@@YAPAV_ns1__GetLotteryWinningTopResponse@@PAUsoap@@PBDPAV1@1@Z 00430e79 f   soapC.obj
 0001:000300cc       ?soap_put@_ns1__GetLotteryWinningTopResponse@@UBEHPAUsoap@@PBD1@Z 004310cc f   soapC.obj
 0001:00030143       ?soap_get@_ns1__GetLotteryWinningTopResponse@@UAEPAXPAUsoap@@PBD1@Z 00431143 f   soapC.obj
 0001:00030168       ?soap_get__ns1__GetLotteryWinningTopResponse@@YAPAV_ns1__GetLotteryWinningTopResponse@@PAUsoap@@PAV1@PBD2@Z 00431168 f   soapC.obj
 0001:000301a5       ?soap_instantiate__ns1__GetLotteryWinningTopResponse@@YAPAV_ns1__GetLotteryWinningTopResponse@@PAUsoap@@HPBD1PAI@Z 004311a5 f   soapC.obj
 0001:00030301       ?soap_copy__ns1__GetLotteryWinningTopResponse@@YAXPAUsoap@@HHPAXIPBXI@Z 00431301 f   soapC.obj
 0001:00030312       ?soap_default@_ns1__GetLotteryWinningTop@@UAEXPAUsoap@@@Z 00431312 f   soapC.obj
 0001:000303d3       ?soap_serialize@_ns1__GetLotteryWinningTop@@UBEXPAUsoap@@@Z 004313d3 f   soapC.obj
 0001:00030452       ?soap_out@_ns1__GetLotteryWinningTop@@UBEHPAUsoap@@PBDH1@Z 00431452 f   soapC.obj
 0001:0003047b       ?soap_out__ns1__GetLotteryWinningTop@@YAHPAUsoap@@PBDHPBV_ns1__GetLotteryWinningTop@@1@Z 0043147b f   soapC.obj
 0001:000306ab       ?soap_in@_ns1__GetLotteryWinningTop@@UAEPAXPAUsoap@@PBD1@Z 004316ab f   soapC.obj
 0001:000306d0       ?soap_in__ns1__GetLotteryWinningTop@@YAPAV_ns1__GetLotteryWinningTop@@PAUsoap@@PBDPAV1@1@Z 004316d0 f   soapC.obj
 0001:00030b85       ?soap_put@_ns1__GetLotteryWinningTop@@UBEHPAUsoap@@PBD1@Z 00431b85 f   soapC.obj
 0001:00030bfc       ?soap_get@_ns1__GetLotteryWinningTop@@UAEPAXPAUsoap@@PBD1@Z 00431bfc f   soapC.obj
 0001:00030c21       ?soap_get__ns1__GetLotteryWinningTop@@YAPAV_ns1__GetLotteryWinningTop@@PAUsoap@@PAV1@PBD2@Z 00431c21 f   soapC.obj
 0001:00030c5e       ?soap_instantiate__ns1__GetLotteryWinningTop@@YAPAV_ns1__GetLotteryWinningTop@@PAUsoap@@HPBD1PAI@Z 00431c5e f   soapC.obj
 0001:00030dba       ?soap_copy__ns1__GetLotteryWinningTop@@YAXPAUsoap@@HHPAXIPBXI@Z 00431dba f   soapC.obj
 0001:00030dcb       ?soap_default@_ns1__GetLotteryPrizeResponse@@UAEXPAUsoap@@@Z 00431dcb f   soapC.obj
 0001:00030dfe       ?soap_serialize@_ns1__GetLotteryPrizeResponse@@UBEXPAUsoap@@@Z 00431dfe f   soapC.obj
 0001:00030e31       ?soap_out@_ns1__GetLotteryPrizeResponse@@UBEHPAUsoap@@PBDH1@Z 00431e31 f   soapC.obj
 0001:00030e5a       ?soap_out__ns1__GetLotteryPrizeResponse@@YAHPAUsoap@@PBDHPBV_ns1__GetLotteryPrizeResponse@@1@Z 00431e5a f   soapC.obj
 0001:00030f22       ?soap_in@_ns1__GetLotteryPrizeResponse@@UAEPAXPAUsoap@@PBD1@Z 00431f22 f   soapC.obj
 0001:00030f47       ?soap_in__ns1__GetLotteryPrizeResponse@@YAPAV_ns1__GetLotteryPrizeResponse@@PAUsoap@@PBDPAV1@1@Z 00431f47 f   soapC.obj
 0001:0003119a       ?soap_put@_ns1__GetLotteryPrizeResponse@@UBEHPAUsoap@@PBD1@Z 0043219a f   soapC.obj
 0001:00031211       ?soap_get@_ns1__GetLotteryPrizeResponse@@UAEPAXPAUsoap@@PBD1@Z 00432211 f   soapC.obj
 0001:00031236       ?soap_get__ns1__GetLotteryPrizeResponse@@YAPAV_ns1__GetLotteryPrizeResponse@@PAUsoap@@PAV1@PBD2@Z 00432236 f   soapC.obj
 0001:00031273       ?soap_instantiate__ns1__GetLotteryPrizeResponse@@YAPAV_ns1__GetLotteryPrizeResponse@@PAUsoap@@HPBD1PAI@Z 00432273 f   soapC.obj
 0001:000313cf       ?soap_copy__ns1__GetLotteryPrizeResponse@@YAXPAUsoap@@HHPAXIPBXI@Z 004323cf f   soapC.obj
 0001:000313e0       ?soap_default@_ns1__GetLotteryPrize@@UAEXPAUsoap@@@Z 004323e0 f   soapC.obj
 0001:0003142f       ?soap_serialize@_ns1__GetLotteryPrize@@UBEXPAUsoap@@@Z 0043242f f   soapC.obj
 0001:00031475       ?soap_out@_ns1__GetLotteryPrize@@UBEHPAUsoap@@PBDH1@Z 00432475 f   soapC.obj
 0001:0003149e       ?soap_out__ns1__GetLotteryPrize@@YAHPAUsoap@@PBDHPBV_ns1__GetLotteryPrize@@1@Z 0043249e f   soapC.obj
 0001:0003157a       ?soap_in@_ns1__GetLotteryPrize@@UAEPAXPAUsoap@@PBD1@Z 0043257a f   soapC.obj
 0001:0003159f       ?soap_in__ns1__GetLotteryPrize@@YAPAV_ns1__GetLotteryPrize@@PAUsoap@@PBDPAV1@1@Z 0043259f f   soapC.obj
 0001:00031841       ?soap_put@_ns1__GetLotteryPrize@@UBEHPAUsoap@@PBD1@Z 00432841 f   soapC.obj
 0001:000318b8       ?soap_get@_ns1__GetLotteryPrize@@UAEPAXPAUsoap@@PBD1@Z 004328b8 f   soapC.obj
 0001:000318dd       ?soap_get__ns1__GetLotteryPrize@@YAPAV_ns1__GetLotteryPrize@@PAUsoap@@PAV1@PBD2@Z 004328dd f   soapC.obj
 0001:0003191a       ?soap_instantiate__ns1__GetLotteryPrize@@YAPAV_ns1__GetLotteryPrize@@PAUsoap@@HPBD1PAI@Z 0043291a f   soapC.obj
 0001:00031a76       ?soap_copy__ns1__GetLotteryPrize@@YAXPAUsoap@@HHPAXIPBXI@Z 00432a76 f   soapC.obj
 0001:00031a87       ?soap_default@_ns1__LotteryResponse@@UAEXPAUsoap@@@Z 00432a87 f   soapC.obj
 0001:00031acd       ?soap_serialize@_ns1__LotteryResponse@@UBEXPAUsoap@@@Z 00432acd f   soapC.obj
 0001:00031b00       ?soap_out@_ns1__LotteryResponse@@UBEHPAUsoap@@PBDH1@Z 00432b00 f   soapC.obj
 0001:00031b29       ?soap_out__ns1__LotteryResponse@@YAHPAUsoap@@PBDHPBV_ns1__LotteryResponse@@1@Z 00432b29 f   soapC.obj
 0001:00031c16       ?soap_in@_ns1__LotteryResponse@@UAEPAXPAUsoap@@PBD1@Z 00432c16 f   soapC.obj
 0001:00031c3b       ?soap_in__ns1__LotteryResponse@@YAPAV_ns1__LotteryResponse@@PAUsoap@@PBDPAV1@1@Z 00432c3b f   soapC.obj
 0001:00031f00       ?soap_put@_ns1__LotteryResponse@@UBEHPAUsoap@@PBD1@Z 00432f00 f   soapC.obj
 0001:00031f77       ?soap_get@_ns1__LotteryResponse@@UAEPAXPAUsoap@@PBD1@Z 00432f77 f   soapC.obj
 0001:00031f9c       ?soap_get__ns1__LotteryResponse@@YAPAV_ns1__LotteryResponse@@PAUsoap@@PAV1@PBD2@Z 00432f9c f   soapC.obj
 0001:00031fd9       ?soap_instantiate__ns1__LotteryResponse@@YAPAV_ns1__LotteryResponse@@PAUsoap@@HPBD1PAI@Z 00432fd9 f   soapC.obj
 0001:00032135       ?soap_copy__ns1__LotteryResponse@@YAXPAUsoap@@HHPAXIPBXI@Z 00433135 f   soapC.obj
 0001:00032146       ?soap_default@_ns1__Lottery@@UAEXPAUsoap@@@Z 00433146 f   soapC.obj
 0001:000321f4       ?soap_serialize@_ns1__Lottery@@UBEXPAUsoap@@@Z 004331f4 f   soapC.obj
 0001:00032286       ?soap_out@_ns1__Lottery@@UBEHPAUsoap@@PBDH1@Z 00433286 f   soapC.obj
 0001:000322af       ?soap_out__ns1__Lottery@@YAHPAUsoap@@PBDHPBV_ns1__Lottery@@1@Z 004332af f   soapC.obj
 0001:00032480       ?soap_in@_ns1__Lottery@@UAEPAXPAUsoap@@PBD1@Z 00433480 f   soapC.obj
 0001:000324a5       ?soap_in__ns1__Lottery@@YAPAV_ns1__Lottery@@PAUsoap@@PBDPAV1@1@Z 004334a5 f   soapC.obj
 0001:00032909       ?soap_put@_ns1__Lottery@@UBEHPAUsoap@@PBD1@Z 00433909 f   soapC.obj
 0001:00032980       ?soap_get@_ns1__Lottery@@UAEPAXPAUsoap@@PBD1@Z 00433980 f   soapC.obj
 0001:000329a5       ?soap_get__ns1__Lottery@@YAPAV_ns1__Lottery@@PAUsoap@@PAV1@PBD2@Z 004339a5 f   soapC.obj
 0001:000329e2       ?soap_instantiate__ns1__Lottery@@YAPAV_ns1__Lottery@@PAUsoap@@HPBD1PAI@Z 004339e2 f   soapC.obj
 0001:00032b3e       ?soap_copy__ns1__Lottery@@YAXPAUsoap@@HHPAXIPBXI@Z 00433b3e f   soapC.obj
 0001:00032b4f       ?soap_default@_ns1__GetAwardInfoResponse@@UAEXPAUsoap@@@Z 00433b4f f   soapC.obj
 0001:00032b6f       ?soap_serialize@_ns1__GetAwardInfoResponse@@UBEXPAUsoap@@@Z 00433b6f f   soapC.obj
 0001:00032b8f       ?soap_out@_ns1__GetAwardInfoResponse@@UBEHPAUsoap@@PBDH1@Z 00433b8f f   soapC.obj
 0001:00032bb8       ?soap_out__ns1__GetAwardInfoResponse@@YAHPAUsoap@@PBDHPBV_ns1__GetAwardInfoResponse@@1@Z 00433bb8 f   soapC.obj
 0001:00032c4f       ?soap_in@_ns1__GetAwardInfoResponse@@UAEPAXPAUsoap@@PBD1@Z 00433c4f f   soapC.obj
 0001:00032c74       ?soap_in__ns1__GetAwardInfoResponse@@YAPAV_ns1__GetAwardInfoResponse@@PAUsoap@@PBDPAV1@1@Z 00433c74 f   soapC.obj
 0001:00032e71       ?soap_put@_ns1__GetAwardInfoResponse@@UBEHPAUsoap@@PBD1@Z 00433e71 f   soapC.obj
 0001:00032ee8       ?soap_get@_ns1__GetAwardInfoResponse@@UAEPAXPAUsoap@@PBD1@Z 00433ee8 f   soapC.obj
 0001:00032f0d       ?soap_get__ns1__GetAwardInfoResponse@@YAPAV_ns1__GetAwardInfoResponse@@PAUsoap@@PAV1@PBD2@Z 00433f0d f   soapC.obj
 0001:00032f4a       ?soap_instantiate__ns1__GetAwardInfoResponse@@YAPAV_ns1__GetAwardInfoResponse@@PAUsoap@@HPBD1PAI@Z 00433f4a f   soapC.obj
 0001:000330a6       ?soap_copy__ns1__GetAwardInfoResponse@@YAXPAUsoap@@HHPAXIPBXI@Z 004340a6 f   soapC.obj
 0001:000330b7       ?soap_default@_ns1__GetAwardInfo@@UAEXPAUsoap@@@Z 004340b7 f   soapC.obj
 0001:000330e0       ?soap_serialize@_ns1__GetAwardInfo@@UBEXPAUsoap@@@Z 004340e0 f   soapC.obj
 0001:00033100       ?soap_out@_ns1__GetAwardInfo@@UBEHPAUsoap@@PBDH1@Z 00434100 f   soapC.obj
 0001:00033129       ?soap_out__ns1__GetAwardInfo@@YAHPAUsoap@@PBDHPBV_ns1__GetAwardInfo@@1@Z 00434129 f   soapC.obj
 0001:000331a6       ?soap_in@_ns1__GetAwardInfo@@UAEPAXPAUsoap@@PBD1@Z 004341a6 f   soapC.obj
 0001:000331cb       ?soap_in__ns1__GetAwardInfo@@YAPAV_ns1__GetAwardInfo@@PAUsoap@@PBDPAV1@1@Z 004341cb f   soapC.obj
 0001:000333c3       ?soap_put@_ns1__GetAwardInfo@@UBEHPAUsoap@@PBD1@Z 004343c3 f   soapC.obj
 0001:0003343a       ?soap_get@_ns1__GetAwardInfo@@UAEPAXPAUsoap@@PBD1@Z 0043443a f   soapC.obj
 0001:0003345f       ?soap_get__ns1__GetAwardInfo@@YAPAV_ns1__GetAwardInfo@@PAUsoap@@PAV1@PBD2@Z 0043445f f   soapC.obj
 0001:0003349c       ?soap_instantiate__ns1__GetAwardInfo@@YAPAV_ns1__GetAwardInfo@@PAUsoap@@HPBD1PAI@Z 0043449c f   soapC.obj
 0001:000335f8       ?soap_copy__ns1__GetAwardInfo@@YAXPAUsoap@@HHPAXIPBXI@Z 004345f8 f   soapC.obj
 0001:00033609       ?soap_default@_ns1__GetAwardItemResponse@@UAEXPAUsoap@@@Z 00434609 f   soapC.obj
 0001:00033629       ?soap_serialize@_ns1__GetAwardItemResponse@@UBEXPAUsoap@@@Z 00434629 f   soapC.obj
 0001:00033649       ?soap_out@_ns1__GetAwardItemResponse@@UBEHPAUsoap@@PBDH1@Z 00434649 f   soapC.obj
 0001:00033672       ?soap_out__ns1__GetAwardItemResponse@@YAHPAUsoap@@PBDHPBV_ns1__GetAwardItemResponse@@1@Z 00434672 f   soapC.obj
 0001:00033709       ?soap_in@_ns1__GetAwardItemResponse@@UAEPAXPAUsoap@@PBD1@Z 00434709 f   soapC.obj
 0001:0003372e       ?soap_in__ns1__GetAwardItemResponse@@YAPAV_ns1__GetAwardItemResponse@@PAUsoap@@PBDPAV1@1@Z 0043472e f   soapC.obj
 0001:0003392b       ?soap_put@_ns1__GetAwardItemResponse@@UBEHPAUsoap@@PBD1@Z 0043492b f   soapC.obj
 0001:000339a2       ?soap_get@_ns1__GetAwardItemResponse@@UAEPAXPAUsoap@@PBD1@Z 004349a2 f   soapC.obj
 0001:000339c7       ?soap_get__ns1__GetAwardItemResponse@@YAPAV_ns1__GetAwardItemResponse@@PAUsoap@@PAV1@PBD2@Z 004349c7 f   soapC.obj
 0001:00033a04       ?soap_instantiate__ns1__GetAwardItemResponse@@YAPAV_ns1__GetAwardItemResponse@@PAUsoap@@HPBD1PAI@Z 00434a04 f   soapC.obj
 0001:00033b60       ?soap_copy__ns1__GetAwardItemResponse@@YAXPAUsoap@@HHPAXIPBXI@Z 00434b60 f   soapC.obj
 0001:00033b71       ?soap_default@_ns1__GetAwardItem@@UAEXPAUsoap@@@Z 00434b71 f   soapC.obj
 0001:00033b9a       ?soap_serialize@_ns1__GetAwardItem@@UBEXPAUsoap@@@Z 00434b9a f   soapC.obj
 0001:00033bba       ?soap_out@_ns1__GetAwardItem@@UBEHPAUsoap@@PBDH1@Z 00434bba f   soapC.obj
 0001:00033be3       ?soap_out__ns1__GetAwardItem@@YAHPAUsoap@@PBDHPBV_ns1__GetAwardItem@@1@Z 00434be3 f   soapC.obj
 0001:00033c60       ?soap_in@_ns1__GetAwardItem@@UAEPAXPAUsoap@@PBD1@Z 00434c60 f   soapC.obj
 0001:00033c85       ?soap_in__ns1__GetAwardItem@@YAPAV_ns1__GetAwardItem@@PAUsoap@@PBDPAV1@1@Z 00434c85 f   soapC.obj
 0001:00033e7d       ?soap_put@_ns1__GetAwardItem@@UBEHPAUsoap@@PBD1@Z 00434e7d f   soapC.obj
 0001:00033ef4       ?soap_get@_ns1__GetAwardItem@@UAEPAXPAUsoap@@PBD1@Z 00434ef4 f   soapC.obj
 0001:00033f19       ?soap_get__ns1__GetAwardItem@@YAPAV_ns1__GetAwardItem@@PAUsoap@@PAV1@PBD2@Z 00434f19 f   soapC.obj
 0001:00033f56       ?soap_instantiate__ns1__GetAwardItem@@YAPAV_ns1__GetAwardItem@@PAUsoap@@HPBD1PAI@Z 00434f56 f   soapC.obj
 0001:000340b2       ?soap_copy__ns1__GetAwardItem@@YAXPAUsoap@@HHPAXIPBXI@Z 004350b2 f   soapC.obj
 0001:000340c3       ?soap_default@_ns1__AwardItemResponse@@UAEXPAUsoap@@@Z 004350c3 f   soapC.obj
 0001:000340ff       ?soap_serialize@_ns1__AwardItemResponse@@UBEXPAUsoap@@@Z 004350ff f   soapC.obj
 0001:0003411f       ?soap_out@_ns1__AwardItemResponse@@UBEHPAUsoap@@PBDH1@Z 0043511f f   soapC.obj
 0001:00034148       ?soap_out__ns1__AwardItemResponse@@YAHPAUsoap@@PBDHPBV_ns1__AwardItemResponse@@1@Z 00435148 f   soapC.obj
 0001:00034204       ?soap_in@_ns1__AwardItemResponse@@UAEPAXPAUsoap@@PBD1@Z 00435204 f   soapC.obj
 0001:00034229       ?soap_in__ns1__AwardItemResponse@@YAPAV_ns1__AwardItemResponse@@PAUsoap@@PBDPAV1@1@Z 00435229 f   soapC.obj
 0001:000344a5       ?soap_put@_ns1__AwardItemResponse@@UBEHPAUsoap@@PBD1@Z 004354a5 f   soapC.obj
 0001:0003451c       ?soap_get@_ns1__AwardItemResponse@@UAEPAXPAUsoap@@PBD1@Z 0043551c f   soapC.obj
 0001:00034541       ?soap_get__ns1__AwardItemResponse@@YAPAV_ns1__AwardItemResponse@@PAUsoap@@PAV1@PBD2@Z 00435541 f   soapC.obj
 0001:0003457e       ?soap_instantiate__ns1__AwardItemResponse@@YAPAV_ns1__AwardItemResponse@@PAUsoap@@HPBD1PAI@Z 0043557e f   soapC.obj
 0001:000346da       ?soap_copy__ns1__AwardItemResponse@@YAXPAUsoap@@HHPAXIPBXI@Z 004356da f   soapC.obj
 0001:000346eb       ?soap_default@_ns1__AwardItem@@UAEXPAUsoap@@@Z 004356eb f   soapC.obj
 0001:00034786       ?soap_serialize@_ns1__AwardItem@@UBEXPAUsoap@@@Z 00435786 f   soapC.obj
 0001:00034805       ?soap_out@_ns1__AwardItem@@UBEHPAUsoap@@PBDH1@Z 00435805 f   soapC.obj
 0001:0003482e       ?soap_out__ns1__AwardItem@@YAHPAUsoap@@PBDHPBV_ns1__AwardItem@@1@Z 0043582e f   soapC.obj
 0001:000349ce       ?soap_in@_ns1__AwardItem@@UAEPAXPAUsoap@@PBD1@Z 004359ce f   soapC.obj
 0001:000349f3       ?soap_in__ns1__AwardItem@@YAPAV_ns1__AwardItem@@PAUsoap@@PBDPAV1@1@Z 004359f3 f   soapC.obj
 0001:00034e02       ?soap_put@_ns1__AwardItem@@UBEHPAUsoap@@PBD1@Z 00435e02 f   soapC.obj
 0001:00034e79       ?soap_get@_ns1__AwardItem@@UAEPAXPAUsoap@@PBD1@Z 00435e79 f   soapC.obj
 0001:00034e9e       ?soap_get__ns1__AwardItem@@YAPAV_ns1__AwardItem@@PAUsoap@@PAV1@PBD2@Z 00435e9e f   soapC.obj
 0001:00034edb       ?soap_instantiate__ns1__AwardItem@@YAPAV_ns1__AwardItem@@PAUsoap@@HPBD1PAI@Z 00435edb f   soapC.obj
 0001:00035037       ?soap_copy__ns1__AwardItem@@YAXPAUsoap@@HHPAXIPBXI@Z 00436037 f   soapC.obj
 0001:00035048       ?soap_default@_ns1__GetClothingIDResponse@@UAEXPAUsoap@@@Z 00436048 f   soapC.obj
 0001:00035071       ?soap_serialize@_ns1__GetClothingIDResponse@@UBEXPAUsoap@@@Z 00436071 f   soapC.obj
 0001:0003507e       ?soap_out@_ns1__GetClothingIDResponse@@UBEHPAUsoap@@PBDH1@Z 0043607e f   soapC.obj
 0001:000350a7       ?soap_out__ns1__GetClothingIDResponse@@YAHPAUsoap@@PBDHPBV_ns1__GetClothingIDResponse@@1@Z 004360a7 f   soapC.obj
 0001:00035135       ?soap_in@_ns1__GetClothingIDResponse@@UAEPAXPAUsoap@@PBD1@Z 00436135 f   soapC.obj
 0001:0003515a       ?soap_in__ns1__GetClothingIDResponse@@YAPAV_ns1__GetClothingIDResponse@@PAUsoap@@PBDPAV1@1@Z 0043615a f   soapC.obj
 0001:00035381       ?soap_put@_ns1__GetClothingIDResponse@@UBEHPAUsoap@@PBD1@Z 00436381 f   soapC.obj
 0001:000353f8       ?soap_get@_ns1__GetClothingIDResponse@@UAEPAXPAUsoap@@PBD1@Z 004363f8 f   soapC.obj
 0001:0003541d       ?soap_get__ns1__GetClothingIDResponse@@YAPAV_ns1__GetClothingIDResponse@@PAUsoap@@PAV1@PBD2@Z 0043641d f   soapC.obj
 0001:0003545a       ?soap_instantiate__ns1__GetClothingIDResponse@@YAPAV_ns1__GetClothingIDResponse@@PAUsoap@@HPBD1PAI@Z 0043645a f   soapC.obj
 0001:000355b6       ?soap_copy__ns1__GetClothingIDResponse@@YAXPAUsoap@@HHPAXIPBXI@Z 004365b6 f   soapC.obj
 0001:000355c7       ?soap_default@_ns1__GetClothingID@@UAEXPAUsoap@@@Z 004365c7 f   soapC.obj
 0001:000355f0       ?soap_serialize@_ns1__GetClothingID@@UBEXPAUsoap@@@Z 004365f0 f   soapC.obj
 0001:000355fd       ?soap_out@_ns1__GetClothingID@@UBEHPAUsoap@@PBDH1@Z 004365fd f   soapC.obj
 0001:00035626       ?soap_out__ns1__GetClothingID@@YAHPAUsoap@@PBDHPBV_ns1__GetClothingID@@1@Z 00436626 f   soapC.obj
 0001:000356a3       ?soap_in@_ns1__GetClothingID@@UAEPAXPAUsoap@@PBD1@Z 004366a3 f   soapC.obj
 0001:000356c8       ?soap_in__ns1__GetClothingID@@YAPAV_ns1__GetClothingID@@PAUsoap@@PBDPAV1@1@Z 004366c8 f   soapC.obj
 0001:000358dd       ?soap_put@_ns1__GetClothingID@@UBEHPAUsoap@@PBD1@Z 004368dd f   soapC.obj
 0001:00035954       ?soap_get@_ns1__GetClothingID@@UAEPAXPAUsoap@@PBD1@Z 00436954 f   soapC.obj
 0001:00035979       ?soap_get__ns1__GetClothingID@@YAPAV_ns1__GetClothingID@@PAUsoap@@PAV1@PBD2@Z 00436979 f   soapC.obj
 0001:000359b6       ?soap_instantiate__ns1__GetClothingID@@YAPAV_ns1__GetClothingID@@PAUsoap@@HPBD1PAI@Z 004369b6 f   soapC.obj
 0001:00035b12       ?soap_copy__ns1__GetClothingID@@YAXPAUsoap@@HHPAXIPBXI@Z 00436b12 f   soapC.obj
 0001:00035b23       ?soap_default@_ns1__GetItemValueResponse@@UAEXPAUsoap@@@Z 00436b23 f   soapC.obj
 0001:00035b4c       ?soap_serialize@_ns1__GetItemValueResponse@@UBEXPAUsoap@@@Z 00436b4c f   soapC.obj
 0001:00035b6c       ?soap_out@_ns1__GetItemValueResponse@@UBEHPAUsoap@@PBDH1@Z 00436b6c f   soapC.obj
 0001:00035b95       ?soap_out__ns1__GetItemValueResponse@@YAHPAUsoap@@PBDHPBV_ns1__GetItemValueResponse@@1@Z 00436b95 f   soapC.obj
 0001:00035c5a       ?soap_in@_ns1__GetItemValueResponse@@UAEPAXPAUsoap@@PBD1@Z 00436c5a f   soapC.obj
 0001:00035c7f       ?soap_in__ns1__GetItemValueResponse@@YAPAV_ns1__GetItemValueResponse@@PAUsoap@@PBDPAV1@1@Z 00436c7f f   soapC.obj
 0001:00035eb2       ?soap_put@_ns1__GetItemValueResponse@@UBEHPAUsoap@@PBD1@Z 00436eb2 f   soapC.obj
 0001:00035f29       ?soap_get@_ns1__GetItemValueResponse@@UAEPAXPAUsoap@@PBD1@Z 00436f29 f   soapC.obj
 0001:00035f4e       ?soap_get__ns1__GetItemValueResponse@@YAPAV_ns1__GetItemValueResponse@@PAUsoap@@PAV1@PBD2@Z 00436f4e f   soapC.obj
 0001:00035f8b       ?soap_instantiate__ns1__GetItemValueResponse@@YAPAV_ns1__GetItemValueResponse@@PAUsoap@@HPBD1PAI@Z 00436f8b f   soapC.obj
 0001:000360e7       ?soap_copy__ns1__GetItemValueResponse@@YAXPAUsoap@@HHPAXIPBXI@Z 004370e7 f   soapC.obj
 0001:000360f8       ?soap_default@_ns1__GetItemValue@@UAEXPAUsoap@@@Z 004370f8 f   soapC.obj
 0001:00036134       ?soap_serialize@_ns1__GetItemValue@@UBEXPAUsoap@@@Z 00437134 f   soapC.obj
 0001:00036141       ?soap_out@_ns1__GetItemValue@@UBEHPAUsoap@@PBDH1@Z 00437141 f   soapC.obj
 0001:0003616a       ?soap_out__ns1__GetItemValue@@YAHPAUsoap@@PBDHPBV_ns1__GetItemValue@@1@Z 0043716a f   soapC.obj
 0001:00036215       ?soap_in@_ns1__GetItemValue@@UAEPAXPAUsoap@@PBD1@Z 00437215 f   soapC.obj
 0001:0003623a       ?soap_in__ns1__GetItemValue@@YAPAV_ns1__GetItemValue@@PAUsoap@@PBDPAV1@1@Z 0043723a f   soapC.obj
 0001:000364a3       ?soap_put@_ns1__GetItemValue@@UBEHPAUsoap@@PBD1@Z 004374a3 f   soapC.obj
 0001:0003651a       ?soap_get@_ns1__GetItemValue@@UAEPAXPAUsoap@@PBD1@Z 0043751a f   soapC.obj
 0001:0003653f       ?soap_get__ns1__GetItemValue@@YAPAV_ns1__GetItemValue@@PAUsoap@@PAV1@PBD2@Z 0043753f f   soapC.obj
 0001:0003657c       ?soap_instantiate__ns1__GetItemValue@@YAPAV_ns1__GetItemValue@@PAUsoap@@HPBD1PAI@Z 0043757c f   soapC.obj
 0001:000366d8       ?soap_copy__ns1__GetItemValue@@YAXPAUsoap@@HHPAXIPBXI@Z 004376d8 f   soapC.obj
 0001:000366e9       ?soap_default@_ns1__GetItemByItemIDResponse@@UAEXPAUsoap@@@Z 004376e9 f   soapC.obj
 0001:00036709       ?soap_serialize@_ns1__GetItemByItemIDResponse@@UBEXPAUsoap@@@Z 00437709 f   soapC.obj
 0001:00036729       ?soap_out@_ns1__GetItemByItemIDResponse@@UBEHPAUsoap@@PBDH1@Z 00437729 f   soapC.obj
 0001:00036752       ?soap_out__ns1__GetItemByItemIDResponse@@YAHPAUsoap@@PBDHPBV_ns1__GetItemByItemIDResponse@@1@Z 00437752 f   soapC.obj
 0001:000367e9       ?soap_in@_ns1__GetItemByItemIDResponse@@UAEPAXPAUsoap@@PBD1@Z 004377e9 f   soapC.obj
 0001:0003680e       ?soap_in__ns1__GetItemByItemIDResponse@@YAPAV_ns1__GetItemByItemIDResponse@@PAUsoap@@PBDPAV1@1@Z 0043780e f   soapC.obj
 0001:00036a0b       ?soap_put@_ns1__GetItemByItemIDResponse@@UBEHPAUsoap@@PBD1@Z 00437a0b f   soapC.obj
 0001:00036a82       ?soap_get@_ns1__GetItemByItemIDResponse@@UAEPAXPAUsoap@@PBD1@Z 00437a82 f   soapC.obj
 0001:00036aa7       ?soap_get__ns1__GetItemByItemIDResponse@@YAPAV_ns1__GetItemByItemIDResponse@@PAUsoap@@PAV1@PBD2@Z 00437aa7 f   soapC.obj
 0001:00036ae4       ?soap_instantiate__ns1__GetItemByItemIDResponse@@YAPAV_ns1__GetItemByItemIDResponse@@PAUsoap@@HPBD1PAI@Z 00437ae4 f   soapC.obj
 0001:00036c40       ?soap_copy__ns1__GetItemByItemIDResponse@@YAXPAUsoap@@HHPAXIPBXI@Z 00437c40 f   soapC.obj
 0001:00036c51       ?soap_default@_ns1__GetItemByItemID@@UAEXPAUsoap@@@Z 00437c51 f   soapC.obj
 0001:00036c7a       ?soap_serialize@_ns1__GetItemByItemID@@UBEXPAUsoap@@@Z 00437c7a f   soapC.obj
 0001:00036c87       ?soap_out@_ns1__GetItemByItemID@@UBEHPAUsoap@@PBDH1@Z 00437c87 f   soapC.obj
 0001:00036cb0       ?soap_out__ns1__GetItemByItemID@@YAHPAUsoap@@PBDHPBV_ns1__GetItemByItemID@@1@Z 00437cb0 f   soapC.obj
 0001:00036d2d       ?soap_in@_ns1__GetItemByItemID@@UAEPAXPAUsoap@@PBD1@Z 00437d2d f   soapC.obj
 0001:00036d52       ?soap_in__ns1__GetItemByItemID@@YAPAV_ns1__GetItemByItemID@@PAUsoap@@PBDPAV1@1@Z 00437d52 f   soapC.obj
 0001:00036f67       ?soap_put@_ns1__GetItemByItemID@@UBEHPAUsoap@@PBD1@Z 00437f67 f   soapC.obj
 0001:00036fde       ?soap_get@_ns1__GetItemByItemID@@UAEPAXPAUsoap@@PBD1@Z 00437fde f   soapC.obj
 0001:00037003       ?soap_get__ns1__GetItemByItemID@@YAPAV_ns1__GetItemByItemID@@PAUsoap@@PAV1@PBD2@Z 00438003 f   soapC.obj
 0001:00037040       ?soap_instantiate__ns1__GetItemByItemID@@YAPAV_ns1__GetItemByItemID@@PAUsoap@@HPBD1PAI@Z 00438040 f   soapC.obj
 0001:0003719c       ?soap_copy__ns1__GetItemByItemID@@YAXPAUsoap@@HHPAXIPBXI@Z 0043819c f   soapC.obj
 0001:000371ad       ?soap_default@_ns1__GetItemByCodeResponse@@UAEXPAUsoap@@@Z 004381ad f   soapC.obj
 0001:000371cd       ?soap_serialize@_ns1__GetItemByCodeResponse@@UBEXPAUsoap@@@Z 004381cd f   soapC.obj
 0001:000371ed       ?soap_out@_ns1__GetItemByCodeResponse@@UBEHPAUsoap@@PBDH1@Z 004381ed f   soapC.obj
 0001:00037216       ?soap_out__ns1__GetItemByCodeResponse@@YAHPAUsoap@@PBDHPBV_ns1__GetItemByCodeResponse@@1@Z 00438216 f   soapC.obj
 0001:000372ad       ?soap_in@_ns1__GetItemByCodeResponse@@UAEPAXPAUsoap@@PBD1@Z 004382ad f   soapC.obj
 0001:000372d2       ?soap_in__ns1__GetItemByCodeResponse@@YAPAV_ns1__GetItemByCodeResponse@@PAUsoap@@PBDPAV1@1@Z 004382d2 f   soapC.obj
 0001:000374cf       ?soap_put@_ns1__GetItemByCodeResponse@@UBEHPAUsoap@@PBD1@Z 004384cf f   soapC.obj
 0001:00037546       ?soap_get@_ns1__GetItemByCodeResponse@@UAEPAXPAUsoap@@PBD1@Z 00438546 f   soapC.obj
 0001:0003756b       ?soap_get__ns1__GetItemByCodeResponse@@YAPAV_ns1__GetItemByCodeResponse@@PAUsoap@@PAV1@PBD2@Z 0043856b f   soapC.obj
 0001:000375a8       ?soap_instantiate__ns1__GetItemByCodeResponse@@YAPAV_ns1__GetItemByCodeResponse@@PAUsoap@@HPBD1PAI@Z 004385a8 f   soapC.obj
 0001:00037704       ?soap_copy__ns1__GetItemByCodeResponse@@YAXPAUsoap@@HHPAXIPBXI@Z 00438704 f   soapC.obj
 0001:00037715       ?soap_default@_ns1__GetItemByCode@@UAEXPAUsoap@@@Z 00438715 f   soapC.obj
 0001:0003773e       ?soap_serialize@_ns1__GetItemByCode@@UBEXPAUsoap@@@Z 0043873e f   soapC.obj
 0001:0003775e       ?soap_out@_ns1__GetItemByCode@@UBEHPAUsoap@@PBDH1@Z 0043875e f   soapC.obj
 0001:00037787       ?soap_out__ns1__GetItemByCode@@YAHPAUsoap@@PBDHPBV_ns1__GetItemByCode@@1@Z 00438787 f   soapC.obj
 0001:00037804       ?soap_in@_ns1__GetItemByCode@@UAEPAXPAUsoap@@PBD1@Z 00438804 f   soapC.obj
 0001:00037829       ?soap_in__ns1__GetItemByCode@@YAPAV_ns1__GetItemByCode@@PAUsoap@@PBDPAV1@1@Z 00438829 f   soapC.obj
 0001:00037a21       ?soap_put@_ns1__GetItemByCode@@UBEHPAUsoap@@PBD1@Z 00438a21 f   soapC.obj
 0001:00037a98       ?soap_get@_ns1__GetItemByCode@@UAEPAXPAUsoap@@PBD1@Z 00438a98 f   soapC.obj
 0001:00037abd       ?soap_get__ns1__GetItemByCode@@YAPAV_ns1__GetItemByCode@@PAUsoap@@PAV1@PBD2@Z 00438abd f   soapC.obj
 0001:00037afa       ?soap_instantiate__ns1__GetItemByCode@@YAPAV_ns1__GetItemByCode@@PAUsoap@@HPBD1PAI@Z 00438afa f   soapC.obj
 0001:00037c56       ?soap_copy__ns1__GetItemByCode@@YAXPAUsoap@@HHPAXIPBXI@Z 00438c56 f   soapC.obj
 0001:00037c67       ?soap_default@ns1__ArrayOfAwardLotteryPrizeInfo@@UAEXPAUsoap@@@Z 00438c67 f   soapC.obj
 0001:00037c91       ?soap_serialize@ns1__ArrayOfAwardLotteryPrizeInfo@@UBEXPAUsoap@@@Z 00438c91 f   soapC.obj
 0001:00037ce1       ?soap_out@ns1__ArrayOfAwardLotteryPrizeInfo@@UBEHPAUsoap@@PBDH1@Z 00438ce1 f   soapC.obj
 0001:00037d0a       ?soap_out_ns1__ArrayOfAwardLotteryPrizeInfo@@YAHPAUsoap@@PBDHPBVns1__ArrayOfAwardLotteryPrizeInfo@@1@Z 00438d0a f   soapC.obj
 0001:00037db8       ?soap_in@ns1__ArrayOfAwardLotteryPrizeInfo@@UAEPAXPAUsoap@@PBD1@Z 00438db8 f   soapC.obj
 0001:00037ddd       ?soap_in_ns1__ArrayOfAwardLotteryPrizeInfo@@YAPAVns1__ArrayOfAwardLotteryPrizeInfo@@PAUsoap@@PBDPAV1@1@Z 00438ddd f   soapC.obj
 0001:000380b6       ?soap_put@ns1__ArrayOfAwardLotteryPrizeInfo@@UBEHPAUsoap@@PBD1@Z 004390b6 f   soapC.obj
 0001:0003812d       ?soap_get@ns1__ArrayOfAwardLotteryPrizeInfo@@UAEPAXPAUsoap@@PBD1@Z 0043912d f   soapC.obj
 0001:00038152       ?soap_get_ns1__ArrayOfAwardLotteryPrizeInfo@@YAPAVns1__ArrayOfAwardLotteryPrizeInfo@@PAUsoap@@PAV1@PBD2@Z 00439152 f   soapC.obj
 0001:0003818f       ?soap_instantiate_ns1__ArrayOfAwardLotteryPrizeInfo@@YAPAVns1__ArrayOfAwardLotteryPrizeInfo@@PAUsoap@@HPBD1PAI@Z 0043918f f   soapC.obj
 0001:000382eb       ?soap_copy_ns1__ArrayOfAwardLotteryPrizeInfo@@YAXPAUsoap@@HHPAXIPBXI@Z 004392eb f   soapC.obj
 0001:000382fc       ?soap_default@ns1__AwardLotteryPrizeInfo@@UAEXPAUsoap@@@Z 004392fc f   soapC.obj
 0001:00038397       ?soap_serialize@ns1__AwardLotteryPrizeInfo@@UBEXPAUsoap@@@Z 00439397 f   soapC.obj
 0001:000383f0       ?soap_out@ns1__AwardLotteryPrizeInfo@@UBEHPAUsoap@@PBDH1@Z 004393f0 f   soapC.obj
 0001:00038419       ?soap_out_ns1__AwardLotteryPrizeInfo@@YAHPAUsoap@@PBDHPBVns1__AwardLotteryPrizeInfo@@1@Z 00439419 f   soapC.obj
 0001:00038615       ?soap_in@ns1__AwardLotteryPrizeInfo@@UAEPAXPAUsoap@@PBD1@Z 00439615 f   soapC.obj
 0001:0003863a       ?soap_in_ns1__AwardLotteryPrizeInfo@@YAPAVns1__AwardLotteryPrizeInfo@@PAUsoap@@PBDPAV1@1@Z 0043963a f   soapC.obj
 0001:00038a4d       ?soap_put@ns1__AwardLotteryPrizeInfo@@UBEHPAUsoap@@PBD1@Z 00439a4d f   soapC.obj
 0001:00038ac4       ?soap_get@ns1__AwardLotteryPrizeInfo@@UAEPAXPAUsoap@@PBD1@Z 00439ac4 f   soapC.obj
 0001:00038ae9       ?soap_get_ns1__AwardLotteryPrizeInfo@@YAPAVns1__AwardLotteryPrizeInfo@@PAUsoap@@PAV1@PBD2@Z 00439ae9 f   soapC.obj
 0001:00038b26       ?soap_instantiate_ns1__AwardLotteryPrizeInfo@@YAPAVns1__AwardLotteryPrizeInfo@@PAUsoap@@HPBD1PAI@Z 00439b26 f   soapC.obj
 0001:00038c82       ?soap_copy_ns1__AwardLotteryPrizeInfo@@YAXPAUsoap@@HHPAXIPBXI@Z 00439c82 f   soapC.obj
 0001:00038c93       ?soap_default@ns1__AwardInfo@@UAEXPAUsoap@@@Z 00439c93 f   soapC.obj
 0001:00038dd9       ?soap_serialize@ns1__AwardInfo@@UBEXPAUsoap@@@Z 00439dd9 f   soapC.obj
 0001:00038e45       ?soap_out@ns1__AwardInfo@@UBEHPAUsoap@@PBDH1@Z 00439e45 f   soapC.obj
 0001:00038e6e       ?soap_out_ns1__AwardInfo@@YAHPAUsoap@@PBDHPBVns1__AwardInfo@@1@Z 00439e6e f   soapC.obj
 0001:000391f5       ?soap_in@ns1__AwardInfo@@UAEPAXPAUsoap@@PBD1@Z 0043a1f5 f   soapC.obj
 0001:0003921a       ?soap_in_ns1__AwardInfo@@YAPAVns1__AwardInfo@@PAUsoap@@PBDPAV1@1@Z 0043a21a f   soapC.obj
 0001:000398eb       ?soap_put@ns1__AwardInfo@@UBEHPAUsoap@@PBD1@Z 0043a8eb f   soapC.obj
 0001:00039962       ?soap_get@ns1__AwardInfo@@UAEPAXPAUsoap@@PBD1@Z 0043a962 f   soapC.obj
 0001:00039987       ?soap_get_ns1__AwardInfo@@YAPAVns1__AwardInfo@@PAUsoap@@PAV1@PBD2@Z 0043a987 f   soapC.obj
 0001:000399c4       ?soap_instantiate_ns1__AwardInfo@@YAPAVns1__AwardInfo@@PAUsoap@@HPBD1PAI@Z 0043a9c4 f   soapC.obj
 0001:00039b20       ?soap_copy_ns1__AwardInfo@@YAXPAUsoap@@HHPAXIPBXI@Z 0043ab20 f   soapC.obj
 0001:00039b31       ?soap_default@ns1__AwardItemInfo@@UAEXPAUsoap@@@Z 0043ab31 f   soapC.obj
 0001:00039c64       ?soap_serialize@ns1__AwardItemInfo@@UBEXPAUsoap@@@Z 0043ac64 f   soapC.obj
 0001:00039cd0       ?soap_out@ns1__AwardItemInfo@@UBEHPAUsoap@@PBDH1@Z 0043acd0 f   soapC.obj
 0001:00039cf9       ?soap_out_ns1__AwardItemInfo@@YAHPAUsoap@@PBDHPBVns1__AwardItemInfo@@1@Z 0043acf9 f   soapC.obj
 0001:0003a04f       ?soap_in@ns1__AwardItemInfo@@UAEPAXPAUsoap@@PBD1@Z 0043b04f f   soapC.obj
 0001:0003a074       ?soap_in_ns1__AwardItemInfo@@YAPAVns1__AwardItemInfo@@PAUsoap@@PBDPAV1@1@Z 0043b074 f   soapC.obj
 0001:0003a6f7       ?soap_put@ns1__AwardItemInfo@@UBEHPAUsoap@@PBD1@Z 0043b6f7 f   soapC.obj
 0001:0003a76e       ?soap_get@ns1__AwardItemInfo@@UAEPAXPAUsoap@@PBD1@Z 0043b76e f   soapC.obj
 0001:0003a793       ?soap_get_ns1__AwardItemInfo@@YAPAVns1__AwardItemInfo@@PAUsoap@@PAV1@PBD2@Z 0043b793 f   soapC.obj
 0001:0003a7d0       ?soap_instantiate_ns1__AwardItemInfo@@YAPAVns1__AwardItemInfo@@PAUsoap@@HPBD1PAI@Z 0043b7d0 f   soapC.obj
 0001:0003a92c       ?soap_copy_ns1__AwardItemInfo@@YAXPAUsoap@@HHPAXIPBXI@Z 0043b92c f   soapC.obj
 0001:0003a93d       ?soap_default@ns1__ArrayOfAwardItemInfo@@UAEXPAUsoap@@@Z 0043b93d f   soapC.obj
 0001:0003a967       ?soap_serialize@ns1__ArrayOfAwardItemInfo@@UBEXPAUsoap@@@Z 0043b967 f   soapC.obj
 0001:0003a9b7       ?soap_out@ns1__ArrayOfAwardItemInfo@@UBEHPAUsoap@@PBDH1@Z 0043b9b7 f   soapC.obj
 0001:0003a9e0       ?soap_out_ns1__ArrayOfAwardItemInfo@@YAHPAUsoap@@PBDHPBVns1__ArrayOfAwardItemInfo@@1@Z 0043b9e0 f   soapC.obj
 0001:0003aa8e       ?soap_in@ns1__ArrayOfAwardItemInfo@@UAEPAXPAUsoap@@PBD1@Z 0043ba8e f   soapC.obj
 0001:0003aab3       ?soap_in_ns1__ArrayOfAwardItemInfo@@YAPAVns1__ArrayOfAwardItemInfo@@PAUsoap@@PBDPAV1@1@Z 0043bab3 f   soapC.obj
 0001:0003ad8c       ?soap_put@ns1__ArrayOfAwardItemInfo@@UBEHPAUsoap@@PBD1@Z 0043bd8c f   soapC.obj
 0001:0003ae03       ?soap_get@ns1__ArrayOfAwardItemInfo@@UAEPAXPAUsoap@@PBD1@Z 0043be03 f   soapC.obj
 0001:0003ae28       ?soap_get_ns1__ArrayOfAwardItemInfo@@YAPAVns1__ArrayOfAwardItemInfo@@PAUsoap@@PAV1@PBD2@Z 0043be28 f   soapC.obj
 0001:0003ae65       ?soap_instantiate_ns1__ArrayOfAwardItemInfo@@YAPAVns1__ArrayOfAwardItemInfo@@PAUsoap@@HPBD1PAI@Z 0043be65 f   soapC.obj
 0001:0003afc1       ?soap_copy_ns1__ArrayOfAwardItemInfo@@YAXPAUsoap@@HHPAXIPBXI@Z 0043bfc1 f   soapC.obj
 0001:0003afd2       ?soap_default@ns1__ItemInfo@@UAEXPAUsoap@@@Z 0043bfd2 f   soapC.obj
 0001:0003b297       ?soap_serialize@ns1__ItemInfo@@UBEXPAUsoap@@@Z 0043c297 f   soapC.obj
 0001:0003b39b       ?soap_out@ns1__ItemInfo@@UBEHPAUsoap@@PBDH1@Z 0043c39b f   soapC.obj
 0001:0003b3c4       ?soap_out_ns1__ItemInfo@@YAHPAUsoap@@PBDHPBVns1__ItemInfo@@1@Z 0043c3c4 f   soapC.obj
 0001:0003bb1f       ?soap_in@ns1__ItemInfo@@UAEPAXPAUsoap@@PBD1@Z 0043cb1f f   soapC.obj
 0001:0003bb44       ?soap_in_ns1__ItemInfo@@YAPAVns1__ItemInfo@@PAUsoap@@PBDPAV1@1@Z 0043cb44 f   soapC.obj
 0001:0003c8b1       ?soap_put@ns1__ItemInfo@@UBEHPAUsoap@@PBD1@Z 0043d8b1 f   soapC.obj
 0001:0003c928       ?soap_get@ns1__ItemInfo@@UAEPAXPAUsoap@@PBD1@Z 0043d928 f   soapC.obj
 0001:0003c94d       ?soap_get_ns1__ItemInfo@@YAPAVns1__ItemInfo@@PAUsoap@@PAV1@PBD2@Z 0043d94d f   soapC.obj
 0001:0003c98a       ?soap_instantiate_ns1__ItemInfo@@YAPAVns1__ItemInfo@@PAUsoap@@HPBD1PAI@Z 0043d98a f   soapC.obj
 0001:0003cafb       ?soap_copy_ns1__ItemInfo@@YAXPAUsoap@@HHPAXIPBXI@Z 0043dafb f   soapC.obj
 0001:0003cb0c       ?soap_default_SOAP_ENV__Fault@@YAXPAUsoap@@PAUSOAP_ENV__Fault@@@Z 0043db0c f   soapC.obj
 0001:0003cb95       ?soap_serialize_SOAP_ENV__Fault@@YAXPAUsoap@@PBUSOAP_ENV__Fault@@@Z 0043db95 f   soapC.obj
 0001:0003cc42       ?soap_out_SOAP_ENV__Fault@@YAHPAUsoap@@PBDHPBUSOAP_ENV__Fault@@1@Z 0043dc42 f   soapC.obj
 0001:0003ce59       ?soap_in_SOAP_ENV__Fault@@YAPAUSOAP_ENV__Fault@@PAUsoap@@PBDPAU1@1@Z 0043de59 f   soapC.obj
 0001:0003d269       ?soap_put_SOAP_ENV__Fault@@YAHPAUsoap@@PBUSOAP_ENV__Fault@@PBD2@Z 0043e269 f   soapC.obj
 0001:0003d2dc       ?soap_get_SOAP_ENV__Fault@@YAPAUSOAP_ENV__Fault@@PAUsoap@@PAU1@PBD2@Z 0043e2dc f   soapC.obj
 0001:0003d319       ?soap_instantiate_SOAP_ENV__Fault@@YAPAUSOAP_ENV__Fault@@PAUsoap@@HPBD1PAI@Z 0043e319 f   soapC.obj
 0001:0003d3ce       ?soap_copy_SOAP_ENV__Fault@@YAXPAUsoap@@HHPAXIPBXI@Z 0043e3ce f   soapC.obj
 0001:0003d3e4       ?soap_default_SOAP_ENV__Reason@@YAXPAUsoap@@PAUSOAP_ENV__Reason@@@Z 0043e3e4 f   soapC.obj
 0001:0003d3f9       ?soap_serialize_SOAP_ENV__Reason@@YAXPAUsoap@@PBUSOAP_ENV__Reason@@@Z 0043e3f9 f   soapC.obj
 0001:0003d40e       ?soap_out_SOAP_ENV__Reason@@YAHPAUsoap@@PBDHPBUSOAP_ENV__Reason@@1@Z 0043e40e f   soapC.obj
 0001:0003d4ab       ?soap_in_SOAP_ENV__Reason@@YAPAUSOAP_ENV__Reason@@PAUsoap@@PBDPAU1@1@Z 0043e4ab f   soapC.obj
 0001:0003d649       ?soap_put_SOAP_ENV__Reason@@YAHPAUsoap@@PBUSOAP_ENV__Reason@@PBD2@Z 0043e649 f   soapC.obj
 0001:0003d6bc       ?soap_get_SOAP_ENV__Reason@@YAPAUSOAP_ENV__Reason@@PAUsoap@@PAU1@PBD2@Z 0043e6bc f   soapC.obj
 0001:0003d6f9       ?soap_instantiate_SOAP_ENV__Reason@@YAPAUSOAP_ENV__Reason@@PAUsoap@@HPBD1PAI@Z 0043e6f9 f   soapC.obj
 0001:0003d7ae       ?soap_copy_SOAP_ENV__Reason@@YAXPAUsoap@@HHPAXIPBXI@Z 0043e7ae f   soapC.obj
 0001:0003d7bd       ?soap_default_SOAP_ENV__Detail@@YAXPAUsoap@@PAUSOAP_ENV__Detail@@@Z 0043e7bd f   soapC.obj
 0001:0003d7df       ?soap_serialize_SOAP_ENV__Detail@@YAXPAUsoap@@PBUSOAP_ENV__Detail@@@Z 0043e7df f   soapC.obj
 0001:0003d7fe       ?soap_out_SOAP_ENV__Detail@@YAHPAUsoap@@PBDHPBUSOAP_ENV__Detail@@1@Z 0043e7fe f   soapC.obj
 0001:0003d894       ?soap_in_SOAP_ENV__Detail@@YAPAUSOAP_ENV__Detail@@PAUsoap@@PBDPAU1@1@Z 0043e894 f   soapC.obj
 0001:0003da76       ?soap_put_SOAP_ENV__Detail@@YAHPAUsoap@@PBUSOAP_ENV__Detail@@PBD2@Z 0043ea76 f   soapC.obj
 0001:0003dae9       ?soap_get_SOAP_ENV__Detail@@YAPAUSOAP_ENV__Detail@@PAUsoap@@PAU1@PBD2@Z 0043eae9 f   soapC.obj
 0001:0003db26       ?soap_instantiate_SOAP_ENV__Detail@@YAPAUSOAP_ENV__Detail@@PAUsoap@@HPBD1PAI@Z 0043eb26 f   soapC.obj
 0001:0003dbdb       ?soap_copy_SOAP_ENV__Detail@@YAXPAUsoap@@HHPAXIPBXI@Z 0043ebdb f   soapC.obj
 0001:0003dbf6       ?soap_default_SOAP_ENV__Code@@YAXPAUsoap@@PAUSOAP_ENV__Code@@@Z 0043ebf6 f   soapC.obj
 0001:0003dc15       ?soap_serialize_SOAP_ENV__Code@@YAXPAUsoap@@PBUSOAP_ENV__Code@@@Z 0043ec15 f   soapC.obj
 0001:0003dc3d       ?soap_out_SOAP_ENV__Code@@YAHPAUsoap@@PBDHPBUSOAP_ENV__Code@@1@Z 0043ec3d f   soapC.obj
 0001:0003dcfd       ?soap_in_SOAP_ENV__Code@@YAPAUSOAP_ENV__Code@@PAUsoap@@PBDPAU1@1@Z 0043ecfd f   soapC.obj
 0001:0003dee5       ?soap_put_SOAP_ENV__Code@@YAHPAUsoap@@PBUSOAP_ENV__Code@@PBD2@Z 0043eee5 f   soapC.obj
 0001:0003df58       ?soap_get_SOAP_ENV__Code@@YAPAUSOAP_ENV__Code@@PAUsoap@@PAU1@PBD2@Z 0043ef58 f   soapC.obj
 0001:0003df95       ?soap_instantiate_SOAP_ENV__Code@@YAPAUSOAP_ENV__Code@@PAUsoap@@HPBD1PAI@Z 0043ef95 f   soapC.obj
 0001:0003e04a       ?soap_copy_SOAP_ENV__Code@@YAXPAUsoap@@HHPAXIPBXI@Z 0043f04a f   soapC.obj
 0001:0003e05f       ?soap_default_SOAP_ENV__Header@@YAXPAUsoap@@PAUSOAP_ENV__Header@@@Z 0043f05f f   soapC.obj
 0001:0003e064       ?soap_serialize_SOAP_ENV__Header@@YAXPAUsoap@@PBUSOAP_ENV__Header@@@Z 0043f064 f   soapC.obj
 0001:0003e069       ?soap_out_SOAP_ENV__Header@@YAHPAUsoap@@PBDHPBUSOAP_ENV__Header@@1@Z 0043f069 f   soapC.obj
 0001:0003e0b8       ?soap_in_SOAP_ENV__Header@@YAPAUSOAP_ENV__Header@@PAUsoap@@PBDPAU1@1@Z 0043f0b8 f   soapC.obj
 0001:0003e1fa       ?soap_put_SOAP_ENV__Header@@YAHPAUsoap@@PBUSOAP_ENV__Header@@PBD2@Z 0043f1fa f   soapC.obj
 0001:0003e26d       ?soap_get_SOAP_ENV__Header@@YAPAUSOAP_ENV__Header@@PAUsoap@@PAU1@PBD2@Z 0043f26d f   soapC.obj
 0001:0003e2aa       ?soap_instantiate_SOAP_ENV__Header@@YAPAUSOAP_ENV__Header@@PAUsoap@@HPBD1PAI@Z 0043f2aa f   soapC.obj
 0001:0003e356       ?soap_copy_SOAP_ENV__Header@@YAXPAUsoap@@HHPAXIPBXI@Z 0043f356 f   soapC.obj
 0001:0003e365       ?soap_default___ns1__GetLotteryWinningList_@@YAXPAUsoap@@PAU__ns1__GetLotteryWinningList_@@@Z 0043f365 f   soapC.obj
 0001:0003e373       ?soap_serialize___ns1__GetLotteryWinningList_@@YAXPAUsoap@@PBU__ns1__GetLotteryWinningList_@@@Z 0043f373 f   soapC.obj
 0001:0003e388       ?soap_out___ns1__GetLotteryWinningList_@@YAHPAUsoap@@PBDHPBU__ns1__GetLotteryWinningList_@@1@Z 0043f388 f   soapC.obj
 0001:0003e3ba       ?soap_in___ns1__GetLotteryWinningList_@@YAPAU__ns1__GetLotteryWinningList_@@PAUsoap@@PBDPAU1@1@Z 0043f3ba f   soapC.obj
 0001:0003e4b3       ?soap_put___ns1__GetLotteryWinningList_@@YAHPAUsoap@@PBU__ns1__GetLotteryWinningList_@@PBD2@Z 0043f4b3 f   soapC.obj
 0001:0003e506       ?soap_get___ns1__GetLotteryWinningList_@@YAPAU__ns1__GetLotteryWinningList_@@PAUsoap@@PAU1@PBD2@Z 0043f506 f   soapC.obj
 0001:0003e543       ?soap_instantiate___ns1__GetLotteryWinningList_@@YAPAU__ns1__GetLotteryWinningList_@@PAUsoap@@HPBD1PAI@Z 0043f543 f   soapC.obj
 0001:0003e5f8       ?soap_copy___ns1__GetLotteryWinningList_@@YAXPAUsoap@@HHPAXIPBXI@Z 0043f5f8 f   soapC.obj
 0001:0003e607       ?soap_default___ns1__GetLotteryWinningTop_@@YAXPAUsoap@@PAU__ns1__GetLotteryWinningTop_@@@Z 0043f607 f   soapC.obj
 0001:0003e615       ?soap_serialize___ns1__GetLotteryWinningTop_@@YAXPAUsoap@@PBU__ns1__GetLotteryWinningTop_@@@Z 0043f615 f   soapC.obj
 0001:0003e62a       ?soap_out___ns1__GetLotteryWinningTop_@@YAHPAUsoap@@PBDHPBU__ns1__GetLotteryWinningTop_@@1@Z 0043f62a f   soapC.obj
 0001:0003e65c       ?soap_in___ns1__GetLotteryWinningTop_@@YAPAU__ns1__GetLotteryWinningTop_@@PAUsoap@@PBDPAU1@1@Z 0043f65c f   soapC.obj
 0001:0003e755       ?soap_put___ns1__GetLotteryWinningTop_@@YAHPAUsoap@@PBU__ns1__GetLotteryWinningTop_@@PBD2@Z 0043f755 f   soapC.obj
 0001:0003e7a8       ?soap_get___ns1__GetLotteryWinningTop_@@YAPAU__ns1__GetLotteryWinningTop_@@PAUsoap@@PAU1@PBD2@Z 0043f7a8 f   soapC.obj
 0001:0003e7e5       ?soap_instantiate___ns1__GetLotteryWinningTop_@@YAPAU__ns1__GetLotteryWinningTop_@@PAUsoap@@HPBD1PAI@Z 0043f7e5 f   soapC.obj
 0001:0003e89a       ?soap_copy___ns1__GetLotteryWinningTop_@@YAXPAUsoap@@HHPAXIPBXI@Z 0043f89a f   soapC.obj
 0001:0003e8a9       ?soap_default___ns1__GetLotteryPrize_@@YAXPAUsoap@@PAU__ns1__GetLotteryPrize_@@@Z 0043f8a9 f   soapC.obj
 0001:0003e8b7       ?soap_serialize___ns1__GetLotteryPrize_@@YAXPAUsoap@@PBU__ns1__GetLotteryPrize_@@@Z 0043f8b7 f   soapC.obj
 0001:0003e8cc       ?soap_out___ns1__GetLotteryPrize_@@YAHPAUsoap@@PBDHPBU__ns1__GetLotteryPrize_@@1@Z 0043f8cc f   soapC.obj
 0001:0003e8fe       ?soap_in___ns1__GetLotteryPrize_@@YAPAU__ns1__GetLotteryPrize_@@PAUsoap@@PBDPAU1@1@Z 0043f8fe f   soapC.obj
 0001:0003e9f7       ?soap_put___ns1__GetLotteryPrize_@@YAHPAUsoap@@PBU__ns1__GetLotteryPrize_@@PBD2@Z 0043f9f7 f   soapC.obj
 0001:0003ea4a       ?soap_get___ns1__GetLotteryPrize_@@YAPAU__ns1__GetLotteryPrize_@@PAUsoap@@PAU1@PBD2@Z 0043fa4a f   soapC.obj
 0001:0003ea87       ?soap_instantiate___ns1__GetLotteryPrize_@@YAPAU__ns1__GetLotteryPrize_@@PAUsoap@@HPBD1PAI@Z 0043fa87 f   soapC.obj
 0001:0003eb3c       ?soap_copy___ns1__GetLotteryPrize_@@YAXPAUsoap@@HHPAXIPBXI@Z 0043fb3c f   soapC.obj
 0001:0003eb4b       ?soap_default___ns1__Lottery_@@YAXPAUsoap@@PAU__ns1__Lottery_@@@Z 0043fb4b f   soapC.obj
 0001:0003eb59       ?soap_serialize___ns1__Lottery_@@YAXPAUsoap@@PBU__ns1__Lottery_@@@Z 0043fb59 f   soapC.obj
 0001:0003eb6e       ?soap_out___ns1__Lottery_@@YAHPAUsoap@@PBDHPBU__ns1__Lottery_@@1@Z 0043fb6e f   soapC.obj
 0001:0003eba0       ?soap_in___ns1__Lottery_@@YAPAU__ns1__Lottery_@@PAUsoap@@PBDPAU1@1@Z 0043fba0 f   soapC.obj
 0001:0003ec99       ?soap_put___ns1__Lottery_@@YAHPAUsoap@@PBU__ns1__Lottery_@@PBD2@Z 0043fc99 f   soapC.obj
 0001:0003ecec       ?soap_get___ns1__Lottery_@@YAPAU__ns1__Lottery_@@PAUsoap@@PAU1@PBD2@Z 0043fcec f   soapC.obj
 0001:0003ed29       ?soap_instantiate___ns1__Lottery_@@YAPAU__ns1__Lottery_@@PAUsoap@@HPBD1PAI@Z 0043fd29 f   soapC.obj
 0001:0003edde       ?soap_copy___ns1__Lottery_@@YAXPAUsoap@@HHPAXIPBXI@Z 0043fdde f   soapC.obj
 0001:0003eded       ?soap_default___ns1__GetAwardInfo_@@YAXPAUsoap@@PAU__ns1__GetAwardInfo_@@@Z 0043fded f   soapC.obj
 0001:0003edfb       ?soap_serialize___ns1__GetAwardInfo_@@YAXPAUsoap@@PBU__ns1__GetAwardInfo_@@@Z 0043fdfb f   soapC.obj
 0001:0003ee10       ?soap_out___ns1__GetAwardInfo_@@YAHPAUsoap@@PBDHPBU__ns1__GetAwardInfo_@@1@Z 0043fe10 f   soapC.obj
 0001:0003ee42       ?soap_in___ns1__GetAwardInfo_@@YAPAU__ns1__GetAwardInfo_@@PAUsoap@@PBDPAU1@1@Z 0043fe42 f   soapC.obj
 0001:0003ef3b       ?soap_put___ns1__GetAwardInfo_@@YAHPAUsoap@@PBU__ns1__GetAwardInfo_@@PBD2@Z 0043ff3b f   soapC.obj
 0001:0003ef8e       ?soap_get___ns1__GetAwardInfo_@@YAPAU__ns1__GetAwardInfo_@@PAUsoap@@PAU1@PBD2@Z 0043ff8e f   soapC.obj
 0001:0003efcb       ?soap_instantiate___ns1__GetAwardInfo_@@YAPAU__ns1__GetAwardInfo_@@PAUsoap@@HPBD1PAI@Z 0043ffcb f   soapC.obj
 0001:0003f080       ?soap_copy___ns1__GetAwardInfo_@@YAXPAUsoap@@HHPAXIPBXI@Z 00440080 f   soapC.obj
 0001:0003f08f       ?soap_default___ns1__GetAwardItem_@@YAXPAUsoap@@PAU__ns1__GetAwardItem_@@@Z 0044008f f   soapC.obj
 0001:0003f09d       ?soap_serialize___ns1__GetAwardItem_@@YAXPAUsoap@@PBU__ns1__GetAwardItem_@@@Z 0044009d f   soapC.obj
 0001:0003f0b2       ?soap_out___ns1__GetAwardItem_@@YAHPAUsoap@@PBDHPBU__ns1__GetAwardItem_@@1@Z 004400b2 f   soapC.obj
 0001:0003f0e4       ?soap_in___ns1__GetAwardItem_@@YAPAU__ns1__GetAwardItem_@@PAUsoap@@PBDPAU1@1@Z 004400e4 f   soapC.obj
 0001:0003f1dd       ?soap_put___ns1__GetAwardItem_@@YAHPAUsoap@@PBU__ns1__GetAwardItem_@@PBD2@Z 004401dd f   soapC.obj
 0001:0003f230       ?soap_get___ns1__GetAwardItem_@@YAPAU__ns1__GetAwardItem_@@PAUsoap@@PAU1@PBD2@Z 00440230 f   soapC.obj
 0001:0003f26d       ?soap_instantiate___ns1__GetAwardItem_@@YAPAU__ns1__GetAwardItem_@@PAUsoap@@HPBD1PAI@Z 0044026d f   soapC.obj
 0001:0003f322       ?soap_copy___ns1__GetAwardItem_@@YAXPAUsoap@@HHPAXIPBXI@Z 00440322 f   soapC.obj
 0001:0003f331       ?soap_default___ns1__AwardItem_@@YAXPAUsoap@@PAU__ns1__AwardItem_@@@Z 00440331 f   soapC.obj
 0001:0003f33f       ?soap_serialize___ns1__AwardItem_@@YAXPAUsoap@@PBU__ns1__AwardItem_@@@Z 0044033f f   soapC.obj
 0001:0003f354       ?soap_out___ns1__AwardItem_@@YAHPAUsoap@@PBDHPBU__ns1__AwardItem_@@1@Z 00440354 f   soapC.obj
 0001:0003f386       ?soap_in___ns1__AwardItem_@@YAPAU__ns1__AwardItem_@@PAUsoap@@PBDPAU1@1@Z 00440386 f   soapC.obj
 0001:0003f47f       ?soap_put___ns1__AwardItem_@@YAHPAUsoap@@PBU__ns1__AwardItem_@@PBD2@Z 0044047f f   soapC.obj
 0001:0003f4d2       ?soap_get___ns1__AwardItem_@@YAPAU__ns1__AwardItem_@@PAUsoap@@PAU1@PBD2@Z 004404d2 f   soapC.obj
 0001:0003f50f       ?soap_instantiate___ns1__AwardItem_@@YAPAU__ns1__AwardItem_@@PAUsoap@@HPBD1PAI@Z 0044050f f   soapC.obj
 0001:0003f5c4       ?soap_copy___ns1__AwardItem_@@YAXPAUsoap@@HHPAXIPBXI@Z 004405c4 f   soapC.obj
 0001:0003f5d3       ?soap_default___ns1__GetClothingID_@@YAXPAUsoap@@PAU__ns1__GetClothingID_@@@Z 004405d3 f   soapC.obj
 0001:0003f5e1       ?soap_serialize___ns1__GetClothingID_@@YAXPAUsoap@@PBU__ns1__GetClothingID_@@@Z 004405e1 f   soapC.obj
 0001:0003f5f6       ?soap_out___ns1__GetClothingID_@@YAHPAUsoap@@PBDHPBU__ns1__GetClothingID_@@1@Z 004405f6 f   soapC.obj
 0001:0003f628       ?soap_in___ns1__GetClothingID_@@YAPAU__ns1__GetClothingID_@@PAUsoap@@PBDPAU1@1@Z 00440628 f   soapC.obj
 0001:0003f721       ?soap_put___ns1__GetClothingID_@@YAHPAUsoap@@PBU__ns1__GetClothingID_@@PBD2@Z 00440721 f   soapC.obj
 0001:0003f774       ?soap_get___ns1__GetClothingID_@@YAPAU__ns1__GetClothingID_@@PAUsoap@@PAU1@PBD2@Z 00440774 f   soapC.obj
 0001:0003f7b1       ?soap_instantiate___ns1__GetClothingID_@@YAPAU__ns1__GetClothingID_@@PAUsoap@@HPBD1PAI@Z 004407b1 f   soapC.obj
 0001:0003f866       ?soap_copy___ns1__GetClothingID_@@YAXPAUsoap@@HHPAXIPBXI@Z 00440866 f   soapC.obj
 0001:0003f875       ?soap_default___ns1__GetItemValue_@@YAXPAUsoap@@PAU__ns1__GetItemValue_@@@Z 00440875 f   soapC.obj
 0001:0003f883       ?soap_serialize___ns1__GetItemValue_@@YAXPAUsoap@@PBU__ns1__GetItemValue_@@@Z 00440883 f   soapC.obj
 0001:0003f898       ?soap_out___ns1__GetItemValue_@@YAHPAUsoap@@PBDHPBU__ns1__GetItemValue_@@1@Z 00440898 f   soapC.obj
 0001:0003f8ca       ?soap_in___ns1__GetItemValue_@@YAPAU__ns1__GetItemValue_@@PAUsoap@@PBDPAU1@1@Z 004408ca f   soapC.obj
 0001:0003f9c3       ?soap_put___ns1__GetItemValue_@@YAHPAUsoap@@PBU__ns1__GetItemValue_@@PBD2@Z 004409c3 f   soapC.obj
 0001:0003fa16       ?soap_get___ns1__GetItemValue_@@YAPAU__ns1__GetItemValue_@@PAUsoap@@PAU1@PBD2@Z 00440a16 f   soapC.obj
 0001:0003fa53       ?soap_instantiate___ns1__GetItemValue_@@YAPAU__ns1__GetItemValue_@@PAUsoap@@HPBD1PAI@Z 00440a53 f   soapC.obj
 0001:0003fb08       ?soap_copy___ns1__GetItemValue_@@YAXPAUsoap@@HHPAXIPBXI@Z 00440b08 f   soapC.obj
 0001:0003fb17       ?soap_default___ns1__GetItemByItemID_@@YAXPAUsoap@@PAU__ns1__GetItemByItemID_@@@Z 00440b17 f   soapC.obj
 0001:0003fb25       ?soap_serialize___ns1__GetItemByItemID_@@YAXPAUsoap@@PBU__ns1__GetItemByItemID_@@@Z 00440b25 f   soapC.obj
 0001:0003fb3a       ?soap_out___ns1__GetItemByItemID_@@YAHPAUsoap@@PBDHPBU__ns1__GetItemByItemID_@@1@Z 00440b3a f   soapC.obj
 0001:0003fb6c       ?soap_in___ns1__GetItemByItemID_@@YAPAU__ns1__GetItemByItemID_@@PAUsoap@@PBDPAU1@1@Z 00440b6c f   soapC.obj
 0001:0003fc65       ?soap_put___ns1__GetItemByItemID_@@YAHPAUsoap@@PBU__ns1__GetItemByItemID_@@PBD2@Z 00440c65 f   soapC.obj
 0001:0003fcb8       ?soap_get___ns1__GetItemByItemID_@@YAPAU__ns1__GetItemByItemID_@@PAUsoap@@PAU1@PBD2@Z 00440cb8 f   soapC.obj
 0001:0003fcf5       ?soap_instantiate___ns1__GetItemByItemID_@@YAPAU__ns1__GetItemByItemID_@@PAUsoap@@HPBD1PAI@Z 00440cf5 f   soapC.obj
 0001:0003fdaa       ?soap_copy___ns1__GetItemByItemID_@@YAXPAUsoap@@HHPAXIPBXI@Z 00440daa f   soapC.obj
 0001:0003fdb9       ?soap_default___ns1__GetItemByCode_@@YAXPAUsoap@@PAU__ns1__GetItemByCode_@@@Z 00440db9 f   soapC.obj
 0001:0003fdc7       ?soap_serialize___ns1__GetItemByCode_@@YAXPAUsoap@@PBU__ns1__GetItemByCode_@@@Z 00440dc7 f   soapC.obj
 0001:0003fddc       ?soap_out___ns1__GetItemByCode_@@YAHPAUsoap@@PBDHPBU__ns1__GetItemByCode_@@1@Z 00440ddc f   soapC.obj
 0001:0003fe0e       ?soap_in___ns1__GetItemByCode_@@YAPAU__ns1__GetItemByCode_@@PAUsoap@@PBDPAU1@1@Z 00440e0e f   soapC.obj
 0001:0003ff07       ?soap_put___ns1__GetItemByCode_@@YAHPAUsoap@@PBU__ns1__GetItemByCode_@@PBD2@Z 00440f07 f   soapC.obj
 0001:0003ff5a       ?soap_get___ns1__GetItemByCode_@@YAPAU__ns1__GetItemByCode_@@PAUsoap@@PAU1@PBD2@Z 00440f5a f   soapC.obj
 0001:0003ff97       ?soap_instantiate___ns1__GetItemByCode_@@YAPAU__ns1__GetItemByCode_@@PAUsoap@@HPBD1PAI@Z 00440f97 f   soapC.obj
 0001:0004004c       ?soap_copy___ns1__GetItemByCode_@@YAXPAUsoap@@HHPAXIPBXI@Z 0044104c f   soapC.obj
 0001:0004005b       ?soap_default___ns1__GetLotteryWinningList@@YAXPAUsoap@@PAU__ns1__GetLotteryWinningList@@@Z 0044105b f   soapC.obj
 0001:00040069       ?soap_serialize___ns1__GetLotteryWinningList@@YAXPAUsoap@@PBU__ns1__GetLotteryWinningList@@@Z 00441069 f   soapC.obj
 0001:0004007e       ?soap_out___ns1__GetLotteryWinningList@@YAHPAUsoap@@PBDHPBU__ns1__GetLotteryWinningList@@1@Z 0044107e f   soapC.obj
 0001:000400b0       ?soap_in___ns1__GetLotteryWinningList@@YAPAU__ns1__GetLotteryWinningList@@PAUsoap@@PBDPAU1@1@Z 004410b0 f   soapC.obj
 0001:000401a9       ?soap_put___ns1__GetLotteryWinningList@@YAHPAUsoap@@PBU__ns1__GetLotteryWinningList@@PBD2@Z 004411a9 f   soapC.obj
 0001:000401fc       ?soap_get___ns1__GetLotteryWinningList@@YAPAU__ns1__GetLotteryWinningList@@PAUsoap@@PAU1@PBD2@Z 004411fc f   soapC.obj
 0001:00040239       ?soap_instantiate___ns1__GetLotteryWinningList@@YAPAU__ns1__GetLotteryWinningList@@PAUsoap@@HPBD1PAI@Z 00441239 f   soapC.obj
 0001:000402ee       ?soap_copy___ns1__GetLotteryWinningList@@YAXPAUsoap@@HHPAXIPBXI@Z 004412ee f   soapC.obj
 0001:000402fd       ?soap_default___ns1__GetLotteryWinningTop@@YAXPAUsoap@@PAU__ns1__GetLotteryWinningTop@@@Z 004412fd f   soapC.obj
 0001:0004030b       ?soap_serialize___ns1__GetLotteryWinningTop@@YAXPAUsoap@@PBU__ns1__GetLotteryWinningTop@@@Z 0044130b f   soapC.obj
 0001:00040320       ?soap_out___ns1__GetLotteryWinningTop@@YAHPAUsoap@@PBDHPBU__ns1__GetLotteryWinningTop@@1@Z 00441320 f   soapC.obj
 0001:00040352       ?soap_in___ns1__GetLotteryWinningTop@@YAPAU__ns1__GetLotteryWinningTop@@PAUsoap@@PBDPAU1@1@Z 00441352 f   soapC.obj
 0001:0004044b       ?soap_put___ns1__GetLotteryWinningTop@@YAHPAUsoap@@PBU__ns1__GetLotteryWinningTop@@PBD2@Z 0044144b f   soapC.obj
 0001:0004049e       ?soap_get___ns1__GetLotteryWinningTop@@YAPAU__ns1__GetLotteryWinningTop@@PAUsoap@@PAU1@PBD2@Z 0044149e f   soapC.obj
 0001:000404db       ?soap_instantiate___ns1__GetLotteryWinningTop@@YAPAU__ns1__GetLotteryWinningTop@@PAUsoap@@HPBD1PAI@Z 004414db f   soapC.obj
 0001:00040590       ?soap_copy___ns1__GetLotteryWinningTop@@YAXPAUsoap@@HHPAXIPBXI@Z 00441590 f   soapC.obj
 0001:0004059f       ?soap_default___ns1__GetLotteryPrize@@YAXPAUsoap@@PAU__ns1__GetLotteryPrize@@@Z 0044159f f   soapC.obj
 0001:000405ad       ?soap_serialize___ns1__GetLotteryPrize@@YAXPAUsoap@@PBU__ns1__GetLotteryPrize@@@Z 004415ad f   soapC.obj
 0001:000405c2       ?soap_out___ns1__GetLotteryPrize@@YAHPAUsoap@@PBDHPBU__ns1__GetLotteryPrize@@1@Z 004415c2 f   soapC.obj
 0001:000405f4       ?soap_in___ns1__GetLotteryPrize@@YAPAU__ns1__GetLotteryPrize@@PAUsoap@@PBDPAU1@1@Z 004415f4 f   soapC.obj
 0001:000406ed       ?soap_put___ns1__GetLotteryPrize@@YAHPAUsoap@@PBU__ns1__GetLotteryPrize@@PBD2@Z 004416ed f   soapC.obj
 0001:00040740       ?soap_get___ns1__GetLotteryPrize@@YAPAU__ns1__GetLotteryPrize@@PAUsoap@@PAU1@PBD2@Z 00441740 f   soapC.obj
 0001:0004077d       ?soap_instantiate___ns1__GetLotteryPrize@@YAPAU__ns1__GetLotteryPrize@@PAUsoap@@HPBD1PAI@Z 0044177d f   soapC.obj
 0001:00040832       ?soap_copy___ns1__GetLotteryPrize@@YAXPAUsoap@@HHPAXIPBXI@Z 00441832 f   soapC.obj
 0001:00040841       ?soap_default___ns1__Lottery@@YAXPAUsoap@@PAU__ns1__Lottery@@@Z 00441841 f   soapC.obj
 0001:0004084f       ?soap_serialize___ns1__Lottery@@YAXPAUsoap@@PBU__ns1__Lottery@@@Z 0044184f f   soapC.obj
 0001:00040864       ?soap_out___ns1__Lottery@@YAHPAUsoap@@PBDHPBU__ns1__Lottery@@1@Z 00441864 f   soapC.obj
 0001:00040896       ?soap_in___ns1__Lottery@@YAPAU__ns1__Lottery@@PAUsoap@@PBDPAU1@1@Z 00441896 f   soapC.obj
 0001:0004098f       ?soap_put___ns1__Lottery@@YAHPAUsoap@@PBU__ns1__Lottery@@PBD2@Z 0044198f f   soapC.obj
 0001:000409e2       ?soap_get___ns1__Lottery@@YAPAU__ns1__Lottery@@PAUsoap@@PAU1@PBD2@Z 004419e2 f   soapC.obj
 0001:00040a1f       ?soap_instantiate___ns1__Lottery@@YAPAU__ns1__Lottery@@PAUsoap@@HPBD1PAI@Z 00441a1f f   soapC.obj
 0001:00040ad4       ?soap_copy___ns1__Lottery@@YAXPAUsoap@@HHPAXIPBXI@Z 00441ad4 f   soapC.obj
 0001:00040ae3       ?soap_default___ns1__GetAwardInfo@@YAXPAUsoap@@PAU__ns1__GetAwardInfo@@@Z 00441ae3 f   soapC.obj
 0001:00040af1       ?soap_serialize___ns1__GetAwardInfo@@YAXPAUsoap@@PBU__ns1__GetAwardInfo@@@Z 00441af1 f   soapC.obj
 0001:00040b06       ?soap_out___ns1__GetAwardInfo@@YAHPAUsoap@@PBDHPBU__ns1__GetAwardInfo@@1@Z 00441b06 f   soapC.obj
 0001:00040b38       ?soap_in___ns1__GetAwardInfo@@YAPAU__ns1__GetAwardInfo@@PAUsoap@@PBDPAU1@1@Z 00441b38 f   soapC.obj
 0001:00040c31       ?soap_put___ns1__GetAwardInfo@@YAHPAUsoap@@PBU__ns1__GetAwardInfo@@PBD2@Z 00441c31 f   soapC.obj
 0001:00040c84       ?soap_get___ns1__GetAwardInfo@@YAPAU__ns1__GetAwardInfo@@PAUsoap@@PAU1@PBD2@Z 00441c84 f   soapC.obj
 0001:00040cc1       ?soap_instantiate___ns1__GetAwardInfo@@YAPAU__ns1__GetAwardInfo@@PAUsoap@@HPBD1PAI@Z 00441cc1 f   soapC.obj
 0001:00040d76       ?soap_copy___ns1__GetAwardInfo@@YAXPAUsoap@@HHPAXIPBXI@Z 00441d76 f   soapC.obj
 0001:00040d85       ?soap_default___ns1__GetAwardItem@@YAXPAUsoap@@PAU__ns1__GetAwardItem@@@Z 00441d85 f   soapC.obj
 0001:00040d93       ?soap_serialize___ns1__GetAwardItem@@YAXPAUsoap@@PBU__ns1__GetAwardItem@@@Z 00441d93 f   soapC.obj
 0001:00040da8       ?soap_out___ns1__GetAwardItem@@YAHPAUsoap@@PBDHPBU__ns1__GetAwardItem@@1@Z 00441da8 f   soapC.obj
 0001:00040dda       ?soap_in___ns1__GetAwardItem@@YAPAU__ns1__GetAwardItem@@PAUsoap@@PBDPAU1@1@Z 00441dda f   soapC.obj
 0001:00040ed3       ?soap_put___ns1__GetAwardItem@@YAHPAUsoap@@PBU__ns1__GetAwardItem@@PBD2@Z 00441ed3 f   soapC.obj
 0001:00040f26       ?soap_get___ns1__GetAwardItem@@YAPAU__ns1__GetAwardItem@@PAUsoap@@PAU1@PBD2@Z 00441f26 f   soapC.obj
 0001:00040f63       ?soap_instantiate___ns1__GetAwardItem@@YAPAU__ns1__GetAwardItem@@PAUsoap@@HPBD1PAI@Z 00441f63 f   soapC.obj
 0001:00041018       ?soap_copy___ns1__GetAwardItem@@YAXPAUsoap@@HHPAXIPBXI@Z 00442018 f   soapC.obj
 0001:00041027       ?soap_default___ns1__AwardItem@@YAXPAUsoap@@PAU__ns1__AwardItem@@@Z 00442027 f   soapC.obj
 0001:00041035       ?soap_serialize___ns1__AwardItem@@YAXPAUsoap@@PBU__ns1__AwardItem@@@Z 00442035 f   soapC.obj
 0001:0004104a       ?soap_out___ns1__AwardItem@@YAHPAUsoap@@PBDHPBU__ns1__AwardItem@@1@Z 0044204a f   soapC.obj
 0001:0004107c       ?soap_in___ns1__AwardItem@@YAPAU__ns1__AwardItem@@PAUsoap@@PBDPAU1@1@Z 0044207c f   soapC.obj
 0001:00041175       ?soap_put___ns1__AwardItem@@YAHPAUsoap@@PBU__ns1__AwardItem@@PBD2@Z 00442175 f   soapC.obj
 0001:000411c8       ?soap_get___ns1__AwardItem@@YAPAU__ns1__AwardItem@@PAUsoap@@PAU1@PBD2@Z 004421c8 f   soapC.obj
 0001:00041205       ?soap_instantiate___ns1__AwardItem@@YAPAU__ns1__AwardItem@@PAUsoap@@HPBD1PAI@Z 00442205 f   soapC.obj
 0001:000412ba       ?soap_copy___ns1__AwardItem@@YAXPAUsoap@@HHPAXIPBXI@Z 004422ba f   soapC.obj
 0001:000412c9       ?soap_default___ns1__GetClothingID@@YAXPAUsoap@@PAU__ns1__GetClothingID@@@Z 004422c9 f   soapC.obj
 0001:000412d7       ?soap_serialize___ns1__GetClothingID@@YAXPAUsoap@@PBU__ns1__GetClothingID@@@Z 004422d7 f   soapC.obj
 0001:000412ec       ?soap_out___ns1__GetClothingID@@YAHPAUsoap@@PBDHPBU__ns1__GetClothingID@@1@Z 004422ec f   soapC.obj
 0001:0004131e       ?soap_in___ns1__GetClothingID@@YAPAU__ns1__GetClothingID@@PAUsoap@@PBDPAU1@1@Z 0044231e f   soapC.obj
 0001:00041417       ?soap_put___ns1__GetClothingID@@YAHPAUsoap@@PBU__ns1__GetClothingID@@PBD2@Z 00442417 f   soapC.obj
 0001:0004146a       ?soap_get___ns1__GetClothingID@@YAPAU__ns1__GetClothingID@@PAUsoap@@PAU1@PBD2@Z 0044246a f   soapC.obj
 0001:000414a7       ?soap_instantiate___ns1__GetClothingID@@YAPAU__ns1__GetClothingID@@PAUsoap@@HPBD1PAI@Z 004424a7 f   soapC.obj
 0001:0004155c       ?soap_copy___ns1__GetClothingID@@YAXPAUsoap@@HHPAXIPBXI@Z 0044255c f   soapC.obj
 0001:0004156b       ?soap_default___ns1__GetItemValue@@YAXPAUsoap@@PAU__ns1__GetItemValue@@@Z 0044256b f   soapC.obj
 0001:00041579       ?soap_serialize___ns1__GetItemValue@@YAXPAUsoap@@PBU__ns1__GetItemValue@@@Z 00442579 f   soapC.obj
 0001:0004158e       ?soap_out___ns1__GetItemValue@@YAHPAUsoap@@PBDHPBU__ns1__GetItemValue@@1@Z 0044258e f   soapC.obj
 0001:000415c0       ?soap_in___ns1__GetItemValue@@YAPAU__ns1__GetItemValue@@PAUsoap@@PBDPAU1@1@Z 004425c0 f   soapC.obj
 0001:000416b9       ?soap_put___ns1__GetItemValue@@YAHPAUsoap@@PBU__ns1__GetItemValue@@PBD2@Z 004426b9 f   soapC.obj
 0001:0004170c       ?soap_get___ns1__GetItemValue@@YAPAU__ns1__GetItemValue@@PAUsoap@@PAU1@PBD2@Z 0044270c f   soapC.obj
 0001:00041749       ?soap_instantiate___ns1__GetItemValue@@YAPAU__ns1__GetItemValue@@PAUsoap@@HPBD1PAI@Z 00442749 f   soapC.obj
 0001:000417fe       ?soap_copy___ns1__GetItemValue@@YAXPAUsoap@@HHPAXIPBXI@Z 004427fe f   soapC.obj
 0001:0004180d       ?soap_default___ns1__GetItemByItemID@@YAXPAUsoap@@PAU__ns1__GetItemByItemID@@@Z 0044280d f   soapC.obj
 0001:0004181b       ?soap_serialize___ns1__GetItemByItemID@@YAXPAUsoap@@PBU__ns1__GetItemByItemID@@@Z 0044281b f   soapC.obj
 0001:00041830       ?soap_out___ns1__GetItemByItemID@@YAHPAUsoap@@PBDHPBU__ns1__GetItemByItemID@@1@Z 00442830 f   soapC.obj
 0001:00041862       ?soap_in___ns1__GetItemByItemID@@YAPAU__ns1__GetItemByItemID@@PAUsoap@@PBDPAU1@1@Z 00442862 f   soapC.obj
 0001:0004195b       ?soap_put___ns1__GetItemByItemID@@YAHPAUsoap@@PBU__ns1__GetItemByItemID@@PBD2@Z 0044295b f   soapC.obj
 0001:000419ae       ?soap_get___ns1__GetItemByItemID@@YAPAU__ns1__GetItemByItemID@@PAUsoap@@PAU1@PBD2@Z 004429ae f   soapC.obj
 0001:000419eb       ?soap_instantiate___ns1__GetItemByItemID@@YAPAU__ns1__GetItemByItemID@@PAUsoap@@HPBD1PAI@Z 004429eb f   soapC.obj
 0001:00041aa0       ?soap_copy___ns1__GetItemByItemID@@YAXPAUsoap@@HHPAXIPBXI@Z 00442aa0 f   soapC.obj
 0001:00041aaf       ?soap_default___ns1__GetItemByCode@@YAXPAUsoap@@PAU__ns1__GetItemByCode@@@Z 00442aaf f   soapC.obj
 0001:00041abd       ?soap_serialize___ns1__GetItemByCode@@YAXPAUsoap@@PBU__ns1__GetItemByCode@@@Z 00442abd f   soapC.obj
 0001:00041ad2       ?soap_out___ns1__GetItemByCode@@YAHPAUsoap@@PBDHPBU__ns1__GetItemByCode@@1@Z 00442ad2 f   soapC.obj
 0001:00041b04       ?soap_in___ns1__GetItemByCode@@YAPAU__ns1__GetItemByCode@@PAUsoap@@PBDPAU1@1@Z 00442b04 f   soapC.obj
 0001:00041bfd       ?soap_put___ns1__GetItemByCode@@YAHPAUsoap@@PBU__ns1__GetItemByCode@@PBD2@Z 00442bfd f   soapC.obj
 0001:00041c50       ?soap_get___ns1__GetItemByCode@@YAPAU__ns1__GetItemByCode@@PAUsoap@@PAU1@PBD2@Z 00442c50 f   soapC.obj
 0001:00041c8d       ?soap_instantiate___ns1__GetItemByCode@@YAPAU__ns1__GetItemByCode@@PAUsoap@@HPBD1PAI@Z 00442c8d f   soapC.obj
 0001:00041d42       ?soap_copy___ns1__GetItemByCode@@YAXPAUsoap@@HHPAXIPBXI@Z 00442d42 f   soapC.obj
 0001:00041d51       ?soap_serialize_PointerToSOAP_ENV__Reason@@YAXPAUsoap@@PBQAUSOAP_ENV__Reason@@@Z 00442d51 f   soapC.obj
 0001:00041d80       ?soap_out_PointerToSOAP_ENV__Reason@@YAHPAUsoap@@PBDHPBQAUSOAP_ENV__Reason@@1@Z 00442d80 f   soapC.obj
 0001:00041ddb       ?soap_in_PointerToSOAP_ENV__Reason@@YAPAPAUSOAP_ENV__Reason@@PAUsoap@@PBDPAPAU1@1@Z 00442ddb f   soapC.obj
 0001:00041ece       ?soap_put_PointerToSOAP_ENV__Reason@@YAHPAUsoap@@PBQAUSOAP_ENV__Reason@@PBD2@Z 00442ece f   soapC.obj
 0001:00041f44       ?soap_get_PointerToSOAP_ENV__Reason@@YAPAPAUSOAP_ENV__Reason@@PAUsoap@@PAPAU1@PBD2@Z 00442f44 f   soapC.obj
 0001:00041f81       ?soap_serialize_PointerToSOAP_ENV__Detail@@YAXPAUsoap@@PBQAUSOAP_ENV__Detail@@@Z 00442f81 f   soapC.obj
 0001:00041fb0       ?soap_out_PointerToSOAP_ENV__Detail@@YAHPAUsoap@@PBDHPBQAUSOAP_ENV__Detail@@1@Z 00442fb0 f   soapC.obj
 0001:0004200b       ?soap_in_PointerToSOAP_ENV__Detail@@YAPAPAUSOAP_ENV__Detail@@PAUsoap@@PBDPAPAU1@1@Z 0044300b f   soapC.obj
 0001:000420fe       ?soap_put_PointerToSOAP_ENV__Detail@@YAHPAUsoap@@PBQAUSOAP_ENV__Detail@@PBD2@Z 004430fe f   soapC.obj
 0001:00042171       ?soap_get_PointerToSOAP_ENV__Detail@@YAPAPAUSOAP_ENV__Detail@@PAUsoap@@PAPAU1@PBD2@Z 00443171 f   soapC.obj
 0001:000421ae       ?soap_serialize_PointerToSOAP_ENV__Code@@YAXPAUsoap@@PBQAUSOAP_ENV__Code@@@Z 004431ae f   soapC.obj
 0001:000421dd       ?soap_out_PointerToSOAP_ENV__Code@@YAHPAUsoap@@PBDHPBQAUSOAP_ENV__Code@@1@Z 004431dd f   soapC.obj
 0001:00042238       ?soap_in_PointerToSOAP_ENV__Code@@YAPAPAUSOAP_ENV__Code@@PAUsoap@@PBDPAPAU1@1@Z 00443238 f   soapC.obj
 0001:0004232b       ?soap_put_PointerToSOAP_ENV__Code@@YAHPAUsoap@@PBQAUSOAP_ENV__Code@@PBD2@Z 0044332b f   soapC.obj
 0001:0004239e       ?soap_get_PointerToSOAP_ENV__Code@@YAPAPAUSOAP_ENV__Code@@PAUsoap@@PAPAU1@PBD2@Z 0044339e f   soapC.obj
 0001:000423db       ?soap_serialize_PointerTo_ns1__GetLotteryWinningListResponse@@YAXPAUsoap@@PBQAV_ns1__GetLotteryWinningListResponse@@@Z 004433db f   soapC.obj
 0001:0004240b       ?soap_out_PointerTo_ns1__GetLotteryWinningListResponse@@YAHPAUsoap@@PBDHPBQAV_ns1__GetLotteryWinningListResponse@@1@Z 0044340b f   soapC.obj
 0001:00042467       ?soap_in_PointerTo_ns1__GetLotteryWinningListResponse@@YAPAPAV_ns1__GetLotteryWinningListResponse@@PAUsoap@@PBDPAPAV1@1@Z 00443467 f   soapC.obj
 0001:000425a7       ?soap_put_PointerTo_ns1__GetLotteryWinningListResponse@@YAHPAUsoap@@PBQAV_ns1__GetLotteryWinningListResponse@@PBD2@Z 004435a7 f   soapC.obj
 0001:0004261a       ?soap_get_PointerTo_ns1__GetLotteryWinningListResponse@@YAPAPAV_ns1__GetLotteryWinningListResponse@@PAUsoap@@PAPAV1@PBD2@Z 0044361a f   soapC.obj
 0001:00042657       ?soap_serialize_PointerTo_ns1__GetLotteryWinningList@@YAXPAUsoap@@PBQAV_ns1__GetLotteryWinningList@@@Z 00443657 f   soapC.obj
 0001:00042687       ?soap_out_PointerTo_ns1__GetLotteryWinningList@@YAHPAUsoap@@PBDHPBQAV_ns1__GetLotteryWinningList@@1@Z 00443687 f   soapC.obj
 0001:000426e3       ?soap_in_PointerTo_ns1__GetLotteryWinningList@@YAPAPAV_ns1__GetLotteryWinningList@@PAUsoap@@PBDPAPAV1@1@Z 004436e3 f   soapC.obj
 0001:00042823       ?soap_put_PointerTo_ns1__GetLotteryWinningList@@YAHPAUsoap@@PBQAV_ns1__GetLotteryWinningList@@PBD2@Z 00443823 f   soapC.obj
 0001:00042896       ?soap_get_PointerTo_ns1__GetLotteryWinningList@@YAPAPAV_ns1__GetLotteryWinningList@@PAUsoap@@PAPAV1@PBD2@Z 00443896 f   soapC.obj
 0001:000428d3       ?soap_serialize_PointerTo_ns1__GetLotteryWinningTopResponse@@YAXPAUsoap@@PBQAV_ns1__GetLotteryWinningTopResponse@@@Z 004438d3 f   soapC.obj
 0001:00042903       ?soap_out_PointerTo_ns1__GetLotteryWinningTopResponse@@YAHPAUsoap@@PBDHPBQAV_ns1__GetLotteryWinningTopResponse@@1@Z 00443903 f   soapC.obj
 0001:0004295f       ?soap_in_PointerTo_ns1__GetLotteryWinningTopResponse@@YAPAPAV_ns1__GetLotteryWinningTopResponse@@PAUsoap@@PBDPAPAV1@1@Z 0044395f f   soapC.obj
 0001:00042a9f       ?soap_put_PointerTo_ns1__GetLotteryWinningTopResponse@@YAHPAUsoap@@PBQAV_ns1__GetLotteryWinningTopResponse@@PBD2@Z 00443a9f f   soapC.obj
 0001:00042b12       ?soap_get_PointerTo_ns1__GetLotteryWinningTopResponse@@YAPAPAV_ns1__GetLotteryWinningTopResponse@@PAUsoap@@PAPAV1@PBD2@Z 00443b12 f   soapC.obj
 0001:00042b4f       ?soap_serialize_PointerTo_ns1__GetLotteryWinningTop@@YAXPAUsoap@@PBQAV_ns1__GetLotteryWinningTop@@@Z 00443b4f f   soapC.obj
 0001:00042b7f       ?soap_out_PointerTo_ns1__GetLotteryWinningTop@@YAHPAUsoap@@PBDHPBQAV_ns1__GetLotteryWinningTop@@1@Z 00443b7f f   soapC.obj
 0001:00042bdb       ?soap_in_PointerTo_ns1__GetLotteryWinningTop@@YAPAPAV_ns1__GetLotteryWinningTop@@PAUsoap@@PBDPAPAV1@1@Z 00443bdb f   soapC.obj
 0001:00042d1b       ?soap_put_PointerTo_ns1__GetLotteryWinningTop@@YAHPAUsoap@@PBQAV_ns1__GetLotteryWinningTop@@PBD2@Z 00443d1b f   soapC.obj
 0001:00042d8e       ?soap_get_PointerTo_ns1__GetLotteryWinningTop@@YAPAPAV_ns1__GetLotteryWinningTop@@PAUsoap@@PAPAV1@PBD2@Z 00443d8e f   soapC.obj
 0001:00042dcb       ?soap_serialize_PointerTo_ns1__GetLotteryPrizeResponse@@YAXPAUsoap@@PBQAV_ns1__GetLotteryPrizeResponse@@@Z 00443dcb f   soapC.obj
 0001:00042dfb       ?soap_out_PointerTo_ns1__GetLotteryPrizeResponse@@YAHPAUsoap@@PBDHPBQAV_ns1__GetLotteryPrizeResponse@@1@Z 00443dfb f   soapC.obj
 0001:00042e57       ?soap_in_PointerTo_ns1__GetLotteryPrizeResponse@@YAPAPAV_ns1__GetLotteryPrizeResponse@@PAUsoap@@PBDPAPAV1@1@Z 00443e57 f   soapC.obj
 0001:00042f97       ?soap_put_PointerTo_ns1__GetLotteryPrizeResponse@@YAHPAUsoap@@PBQAV_ns1__GetLotteryPrizeResponse@@PBD2@Z 00443f97 f   soapC.obj
 0001:0004300a       ?soap_get_PointerTo_ns1__GetLotteryPrizeResponse@@YAPAPAV_ns1__GetLotteryPrizeResponse@@PAUsoap@@PAPAV1@PBD2@Z 0044400a f   soapC.obj
 0001:00043047       ?soap_serialize_PointerTo_ns1__GetLotteryPrize@@YAXPAUsoap@@PBQAV_ns1__GetLotteryPrize@@@Z 00444047 f   soapC.obj
 0001:00043077       ?soap_out_PointerTo_ns1__GetLotteryPrize@@YAHPAUsoap@@PBDHPBQAV_ns1__GetLotteryPrize@@1@Z 00444077 f   soapC.obj
 0001:000430d3       ?soap_in_PointerTo_ns1__GetLotteryPrize@@YAPAPAV_ns1__GetLotteryPrize@@PAUsoap@@PBDPAPAV1@1@Z 004440d3 f   soapC.obj
 0001:00043213       ?soap_put_PointerTo_ns1__GetLotteryPrize@@YAHPAUsoap@@PBQAV_ns1__GetLotteryPrize@@PBD2@Z 00444213 f   soapC.obj
 0001:00043286       ?soap_get_PointerTo_ns1__GetLotteryPrize@@YAPAPAV_ns1__GetLotteryPrize@@PAUsoap@@PAPAV1@PBD2@Z 00444286 f   soapC.obj
 0001:000432c3       ?soap_serialize_PointerTo_ns1__LotteryResponse@@YAXPAUsoap@@PBQAV_ns1__LotteryResponse@@@Z 004442c3 f   soapC.obj
 0001:000432f3       ?soap_out_PointerTo_ns1__LotteryResponse@@YAHPAUsoap@@PBDHPBQAV_ns1__LotteryResponse@@1@Z 004442f3 f   soapC.obj
 0001:0004334f       ?soap_in_PointerTo_ns1__LotteryResponse@@YAPAPAV_ns1__LotteryResponse@@PAUsoap@@PBDPAPAV1@1@Z 0044434f f   soapC.obj
 0001:0004348f       ?soap_put_PointerTo_ns1__LotteryResponse@@YAHPAUsoap@@PBQAV_ns1__LotteryResponse@@PBD2@Z 0044448f f   soapC.obj
 0001:00043502       ?soap_get_PointerTo_ns1__LotteryResponse@@YAPAPAV_ns1__LotteryResponse@@PAUsoap@@PAPAV1@PBD2@Z 00444502 f   soapC.obj
 0001:0004353f       ?soap_serialize_PointerTo_ns1__Lottery@@YAXPAUsoap@@PBQAV_ns1__Lottery@@@Z 0044453f f   soapC.obj
 0001:0004356f       ?soap_out_PointerTo_ns1__Lottery@@YAHPAUsoap@@PBDHPBQAV_ns1__Lottery@@1@Z 0044456f f   soapC.obj
 0001:000435cb       ?soap_in_PointerTo_ns1__Lottery@@YAPAPAV_ns1__Lottery@@PAUsoap@@PBDPAPAV1@1@Z 004445cb f   soapC.obj
 0001:0004370b       ?soap_put_PointerTo_ns1__Lottery@@YAHPAUsoap@@PBQAV_ns1__Lottery@@PBD2@Z 0044470b f   soapC.obj
 0001:0004377e       ?soap_get_PointerTo_ns1__Lottery@@YAPAPAV_ns1__Lottery@@PAUsoap@@PAPAV1@PBD2@Z 0044477e f   soapC.obj
 0001:000437bb       ?soap_serialize_PointerTo_ns1__GetAwardInfoResponse@@YAXPAUsoap@@PBQAV_ns1__GetAwardInfoResponse@@@Z 004447bb f   soapC.obj
 0001:000437eb       ?soap_out_PointerTo_ns1__GetAwardInfoResponse@@YAHPAUsoap@@PBDHPBQAV_ns1__GetAwardInfoResponse@@1@Z 004447eb f   soapC.obj
 0001:00043847       ?soap_in_PointerTo_ns1__GetAwardInfoResponse@@YAPAPAV_ns1__GetAwardInfoResponse@@PAUsoap@@PBDPAPAV1@1@Z 00444847 f   soapC.obj
 0001:00043987       ?soap_put_PointerTo_ns1__GetAwardInfoResponse@@YAHPAUsoap@@PBQAV_ns1__GetAwardInfoResponse@@PBD2@Z 00444987 f   soapC.obj
 0001:000439fa       ?soap_get_PointerTo_ns1__GetAwardInfoResponse@@YAPAPAV_ns1__GetAwardInfoResponse@@PAUsoap@@PAPAV1@PBD2@Z 004449fa f   soapC.obj
 0001:00043a37       ?soap_serialize_PointerTo_ns1__GetAwardInfo@@YAXPAUsoap@@PBQAV_ns1__GetAwardInfo@@@Z 00444a37 f   soapC.obj
 0001:00043a67       ?soap_out_PointerTo_ns1__GetAwardInfo@@YAHPAUsoap@@PBDHPBQAV_ns1__GetAwardInfo@@1@Z 00444a67 f   soapC.obj
 0001:00043ac3       ?soap_in_PointerTo_ns1__GetAwardInfo@@YAPAPAV_ns1__GetAwardInfo@@PAUsoap@@PBDPAPAV1@1@Z 00444ac3 f   soapC.obj
 0001:00043c03       ?soap_put_PointerTo_ns1__GetAwardInfo@@YAHPAUsoap@@PBQAV_ns1__GetAwardInfo@@PBD2@Z 00444c03 f   soapC.obj
 0001:00043c76       ?soap_get_PointerTo_ns1__GetAwardInfo@@YAPAPAV_ns1__GetAwardInfo@@PAUsoap@@PAPAV1@PBD2@Z 00444c76 f   soapC.obj
 0001:00043cb3       ?soap_serialize_PointerTo_ns1__GetAwardItemResponse@@YAXPAUsoap@@PBQAV_ns1__GetAwardItemResponse@@@Z 00444cb3 f   soapC.obj
 0001:00043ce3       ?soap_out_PointerTo_ns1__GetAwardItemResponse@@YAHPAUsoap@@PBDHPBQAV_ns1__GetAwardItemResponse@@1@Z 00444ce3 f   soapC.obj
 0001:00043d3f       ?soap_in_PointerTo_ns1__GetAwardItemResponse@@YAPAPAV_ns1__GetAwardItemResponse@@PAUsoap@@PBDPAPAV1@1@Z 00444d3f f   soapC.obj
 0001:00043e7f       ?soap_put_PointerTo_ns1__GetAwardItemResponse@@YAHPAUsoap@@PBQAV_ns1__GetAwardItemResponse@@PBD2@Z 00444e7f f   soapC.obj
 0001:00043ef2       ?soap_get_PointerTo_ns1__GetAwardItemResponse@@YAPAPAV_ns1__GetAwardItemResponse@@PAUsoap@@PAPAV1@PBD2@Z 00444ef2 f   soapC.obj
 0001:00043f2f       ?soap_serialize_PointerTo_ns1__GetAwardItem@@YAXPAUsoap@@PBQAV_ns1__GetAwardItem@@@Z 00444f2f f   soapC.obj
 0001:00043f5f       ?soap_out_PointerTo_ns1__GetAwardItem@@YAHPAUsoap@@PBDHPBQAV_ns1__GetAwardItem@@1@Z 00444f5f f   soapC.obj
 0001:00043fbb       ?soap_in_PointerTo_ns1__GetAwardItem@@YAPAPAV_ns1__GetAwardItem@@PAUsoap@@PBDPAPAV1@1@Z 00444fbb f   soapC.obj
 0001:000440fb       ?soap_put_PointerTo_ns1__GetAwardItem@@YAHPAUsoap@@PBQAV_ns1__GetAwardItem@@PBD2@Z 004450fb f   soapC.obj
 0001:0004416e       ?soap_get_PointerTo_ns1__GetAwardItem@@YAPAPAV_ns1__GetAwardItem@@PAUsoap@@PAPAV1@PBD2@Z 0044516e f   soapC.obj
 0001:000441ab       ?soap_serialize_PointerTo_ns1__AwardItemResponse@@YAXPAUsoap@@PBQAV_ns1__AwardItemResponse@@@Z 004451ab f   soapC.obj
 0001:000441db       ?soap_out_PointerTo_ns1__AwardItemResponse@@YAHPAUsoap@@PBDHPBQAV_ns1__AwardItemResponse@@1@Z 004451db f   soapC.obj
 0001:00044237       ?soap_in_PointerTo_ns1__AwardItemResponse@@YAPAPAV_ns1__AwardItemResponse@@PAUsoap@@PBDPAPAV1@1@Z 00445237 f   soapC.obj
 0001:00044377       ?soap_put_PointerTo_ns1__AwardItemResponse@@YAHPAUsoap@@PBQAV_ns1__AwardItemResponse@@PBD2@Z 00445377 f   soapC.obj
 0001:000443ea       ?soap_get_PointerTo_ns1__AwardItemResponse@@YAPAPAV_ns1__AwardItemResponse@@PAUsoap@@PAPAV1@PBD2@Z 004453ea f   soapC.obj
 0001:00044427       ?soap_serialize_PointerTo_ns1__AwardItem@@YAXPAUsoap@@PBQAV_ns1__AwardItem@@@Z 00445427 f   soapC.obj
 0001:00044457       ?soap_out_PointerTo_ns1__AwardItem@@YAHPAUsoap@@PBDHPBQAV_ns1__AwardItem@@1@Z 00445457 f   soapC.obj
 0001:000444b3       ?soap_in_PointerTo_ns1__AwardItem@@YAPAPAV_ns1__AwardItem@@PAUsoap@@PBDPAPAV1@1@Z 004454b3 f   soapC.obj
 0001:000445f3       ?soap_put_PointerTo_ns1__AwardItem@@YAHPAUsoap@@PBQAV_ns1__AwardItem@@PBD2@Z 004455f3 f   soapC.obj
 0001:00044666       ?soap_get_PointerTo_ns1__AwardItem@@YAPAPAV_ns1__AwardItem@@PAUsoap@@PAPAV1@PBD2@Z 00445666 f   soapC.obj
 0001:000446a3       ?soap_serialize_PointerTo_ns1__GetClothingIDResponse@@YAXPAUsoap@@PBQAV_ns1__GetClothingIDResponse@@@Z 004456a3 f   soapC.obj
 0001:000446d3       ?soap_out_PointerTo_ns1__GetClothingIDResponse@@YAHPAUsoap@@PBDHPBQAV_ns1__GetClothingIDResponse@@1@Z 004456d3 f   soapC.obj
 0001:0004472f       ?soap_in_PointerTo_ns1__GetClothingIDResponse@@YAPAPAV_ns1__GetClothingIDResponse@@PAUsoap@@PBDPAPAV1@1@Z 0044572f f   soapC.obj
 0001:0004486f       ?soap_put_PointerTo_ns1__GetClothingIDResponse@@YAHPAUsoap@@PBQAV_ns1__GetClothingIDResponse@@PBD2@Z 0044586f f   soapC.obj
 0001:000448e2       ?soap_get_PointerTo_ns1__GetClothingIDResponse@@YAPAPAV_ns1__GetClothingIDResponse@@PAUsoap@@PAPAV1@PBD2@Z 004458e2 f   soapC.obj
 0001:0004491f       ?soap_serialize_PointerTo_ns1__GetClothingID@@YAXPAUsoap@@PBQAV_ns1__GetClothingID@@@Z 0044591f f   soapC.obj
 0001:0004494f       ?soap_out_PointerTo_ns1__GetClothingID@@YAHPAUsoap@@PBDHPBQAV_ns1__GetClothingID@@1@Z 0044594f f   soapC.obj
 0001:000449ab       ?soap_in_PointerTo_ns1__GetClothingID@@YAPAPAV_ns1__GetClothingID@@PAUsoap@@PBDPAPAV1@1@Z 004459ab f   soapC.obj
 0001:00044aeb       ?soap_put_PointerTo_ns1__GetClothingID@@YAHPAUsoap@@PBQAV_ns1__GetClothingID@@PBD2@Z 00445aeb f   soapC.obj
 0001:00044b5e       ?soap_get_PointerTo_ns1__GetClothingID@@YAPAPAV_ns1__GetClothingID@@PAUsoap@@PAPAV1@PBD2@Z 00445b5e f   soapC.obj
 0001:00044b9b       ?soap_serialize_PointerTo_ns1__GetItemValueResponse@@YAXPAUsoap@@PBQAV_ns1__GetItemValueResponse@@@Z 00445b9b f   soapC.obj
 0001:00044bcb       ?soap_out_PointerTo_ns1__GetItemValueResponse@@YAHPAUsoap@@PBDHPBQAV_ns1__GetItemValueResponse@@1@Z 00445bcb f   soapC.obj
 0001:00044c27       ?soap_in_PointerTo_ns1__GetItemValueResponse@@YAPAPAV_ns1__GetItemValueResponse@@PAUsoap@@PBDPAPAV1@1@Z 00445c27 f   soapC.obj
 0001:00044d67       ?soap_put_PointerTo_ns1__GetItemValueResponse@@YAHPAUsoap@@PBQAV_ns1__GetItemValueResponse@@PBD2@Z 00445d67 f   soapC.obj
 0001:00044dda       ?soap_get_PointerTo_ns1__GetItemValueResponse@@YAPAPAV_ns1__GetItemValueResponse@@PAUsoap@@PAPAV1@PBD2@Z 00445dda f   soapC.obj
 0001:00044e17       ?soap_serialize_PointerTo_ns1__GetItemValue@@YAXPAUsoap@@PBQAV_ns1__GetItemValue@@@Z 00445e17 f   soapC.obj
 0001:00044e47       ?soap_out_PointerTo_ns1__GetItemValue@@YAHPAUsoap@@PBDHPBQAV_ns1__GetItemValue@@1@Z 00445e47 f   soapC.obj
 0001:00044ea3       ?soap_in_PointerTo_ns1__GetItemValue@@YAPAPAV_ns1__GetItemValue@@PAUsoap@@PBDPAPAV1@1@Z 00445ea3 f   soapC.obj
 0001:00044fe3       ?soap_put_PointerTo_ns1__GetItemValue@@YAHPAUsoap@@PBQAV_ns1__GetItemValue@@PBD2@Z 00445fe3 f   soapC.obj
 0001:00045056       ?soap_get_PointerTo_ns1__GetItemValue@@YAPAPAV_ns1__GetItemValue@@PAUsoap@@PAPAV1@PBD2@Z 00446056 f   soapC.obj
 0001:00045093       ?soap_serialize_PointerTo_ns1__GetItemByItemIDResponse@@YAXPAUsoap@@PBQAV_ns1__GetItemByItemIDResponse@@@Z 00446093 f   soapC.obj
 0001:000450c3       ?soap_out_PointerTo_ns1__GetItemByItemIDResponse@@YAHPAUsoap@@PBDHPBQAV_ns1__GetItemByItemIDResponse@@1@Z 004460c3 f   soapC.obj
 0001:0004511f       ?soap_in_PointerTo_ns1__GetItemByItemIDResponse@@YAPAPAV_ns1__GetItemByItemIDResponse@@PAUsoap@@PBDPAPAV1@1@Z 0044611f f   soapC.obj
 0001:0004525f       ?soap_put_PointerTo_ns1__GetItemByItemIDResponse@@YAHPAUsoap@@PBQAV_ns1__GetItemByItemIDResponse@@PBD2@Z 0044625f f   soapC.obj
 0001:000452d2       ?soap_get_PointerTo_ns1__GetItemByItemIDResponse@@YAPAPAV_ns1__GetItemByItemIDResponse@@PAUsoap@@PAPAV1@PBD2@Z 004462d2 f   soapC.obj
 0001:0004530f       ?soap_serialize_PointerTo_ns1__GetItemByItemID@@YAXPAUsoap@@PBQAV_ns1__GetItemByItemID@@@Z 0044630f f   soapC.obj
 0001:0004533f       ?soap_out_PointerTo_ns1__GetItemByItemID@@YAHPAUsoap@@PBDHPBQAV_ns1__GetItemByItemID@@1@Z 0044633f f   soapC.obj
 0001:0004539b       ?soap_in_PointerTo_ns1__GetItemByItemID@@YAPAPAV_ns1__GetItemByItemID@@PAUsoap@@PBDPAPAV1@1@Z 0044639b f   soapC.obj
 0001:000454db       ?soap_put_PointerTo_ns1__GetItemByItemID@@YAHPAUsoap@@PBQAV_ns1__GetItemByItemID@@PBD2@Z 004464db f   soapC.obj
 0001:0004554e       ?soap_get_PointerTo_ns1__GetItemByItemID@@YAPAPAV_ns1__GetItemByItemID@@PAUsoap@@PAPAV1@PBD2@Z 0044654e f   soapC.obj
 0001:0004558b       ?soap_serialize_PointerTo_ns1__GetItemByCodeResponse@@YAXPAUsoap@@PBQAV_ns1__GetItemByCodeResponse@@@Z 0044658b f   soapC.obj
 0001:000455bb       ?soap_out_PointerTo_ns1__GetItemByCodeResponse@@YAHPAUsoap@@PBDHPBQAV_ns1__GetItemByCodeResponse@@1@Z 004465bb f   soapC.obj
 0001:00045617       ?soap_in_PointerTo_ns1__GetItemByCodeResponse@@YAPAPAV_ns1__GetItemByCodeResponse@@PAUsoap@@PBDPAPAV1@1@Z 00446617 f   soapC.obj
 0001:00045757       ?soap_put_PointerTo_ns1__GetItemByCodeResponse@@YAHPAUsoap@@PBQAV_ns1__GetItemByCodeResponse@@PBD2@Z 00446757 f   soapC.obj
 0001:000457ca       ?soap_get_PointerTo_ns1__GetItemByCodeResponse@@YAPAPAV_ns1__GetItemByCodeResponse@@PAUsoap@@PAPAV1@PBD2@Z 004467ca f   soapC.obj
 0001:00045807       ?soap_serialize_PointerTo_ns1__GetItemByCode@@YAXPAUsoap@@PBQAV_ns1__GetItemByCode@@@Z 00446807 f   soapC.obj
 0001:00045837       ?soap_out_PointerTo_ns1__GetItemByCode@@YAHPAUsoap@@PBDHPBQAV_ns1__GetItemByCode@@1@Z 00446837 f   soapC.obj
 0001:00045893       ?soap_in_PointerTo_ns1__GetItemByCode@@YAPAPAV_ns1__GetItemByCode@@PAUsoap@@PBDPAPAV1@1@Z 00446893 f   soapC.obj
 0001:000459d3       ?soap_put_PointerTo_ns1__GetItemByCode@@YAHPAUsoap@@PBQAV_ns1__GetItemByCode@@PBD2@Z 004469d3 f   soapC.obj
 0001:00045a46       ?soap_get_PointerTo_ns1__GetItemByCode@@YAPAPAV_ns1__GetItemByCode@@PAUsoap@@PAPAV1@PBD2@Z 00446a46 f   soapC.obj
 0001:00045a83       ?soap_serialize_PointerTo_ns1__GetLotteryWinningListResponse_GetLotteryWinningListResult@@YAXPAUsoap@@PBQAV_ns1__GetLotteryWinningListResponse_GetLotteryWinningListResult@@@Z 00446a83 f   soapC.obj
 0001:00045ab3       ?soap_out_PointerTo_ns1__GetLotteryWinningListResponse_GetLotteryWinningListResult@@YAHPAUsoap@@PBDHPBQAV_ns1__GetLotteryWinningListResponse_GetLotteryWinningListResult@@1@Z 00446ab3 f   soapC.obj
 0001:00045b0f       ?soap_in_PointerTo_ns1__GetLotteryWinningListResponse_GetLotteryWinningListResult@@YAPAPAV_ns1__GetLotteryWinningListResponse_GetLotteryWinningListResult@@PAUsoap@@PBDPAPAV1@1@Z 00446b0f f   soapC.obj
 0001:00045c4f       ?soap_put_PointerTo_ns1__GetLotteryWinningListResponse_GetLotteryWinningListResult@@YAHPAUsoap@@PBQAV_ns1__GetLotteryWinningListResponse_GetLotteryWinningListResult@@PBD2@Z 00446c4f f   soapC.obj
 0001:00045cc2       ?soap_get_PointerTo_ns1__GetLotteryWinningListResponse_GetLotteryWinningListResult@@YAPAPAV_ns1__GetLotteryWinningListResponse_GetLotteryWinningListResult@@PAUsoap@@PAPAV1@PBD2@Z 00446cc2 f   soapC.obj
 0001:00045cff       ?soap_serialize_PointerTo_ns1__GetLotteryWinningTopResponse_GetLotteryWinningTopResult@@YAXPAUsoap@@PBQAV_ns1__GetLotteryWinningTopResponse_GetLotteryWinningTopResult@@@Z 00446cff f   soapC.obj
 0001:00045d2f       ?soap_out_PointerTo_ns1__GetLotteryWinningTopResponse_GetLotteryWinningTopResult@@YAHPAUsoap@@PBDHPBQAV_ns1__GetLotteryWinningTopResponse_GetLotteryWinningTopResult@@1@Z 00446d2f f   soapC.obj
 0001:00045d8b       ?soap_in_PointerTo_ns1__GetLotteryWinningTopResponse_GetLotteryWinningTopResult@@YAPAPAV_ns1__GetLotteryWinningTopResponse_GetLotteryWinningTopResult@@PAUsoap@@PBDPAPAV1@1@Z 00446d8b f   soapC.obj
 0001:00045ecb       ?soap_put_PointerTo_ns1__GetLotteryWinningTopResponse_GetLotteryWinningTopResult@@YAHPAUsoap@@PBQAV_ns1__GetLotteryWinningTopResponse_GetLotteryWinningTopResult@@PBD2@Z 00446ecb f   soapC.obj
 0001:00045f3e       ?soap_get_PointerTo_ns1__GetLotteryWinningTopResponse_GetLotteryWinningTopResult@@YAPAPAV_ns1__GetLotteryWinningTopResponse_GetLotteryWinningTopResult@@PAUsoap@@PAPAV1@PBD2@Z 00446f3e f   soapC.obj
 0001:00045f7b       ?soap_serialize_PointerTons1__ArrayOfAwardLotteryPrizeInfo@@YAXPAUsoap@@PBQAVns1__ArrayOfAwardLotteryPrizeInfo@@@Z 00446f7b f   soapC.obj
 0001:00045fab       ?soap_out_PointerTons1__ArrayOfAwardLotteryPrizeInfo@@YAHPAUsoap@@PBDHPBQAVns1__ArrayOfAwardLotteryPrizeInfo@@1@Z 00446fab f   soapC.obj
 0001:00046007       ?soap_in_PointerTons1__ArrayOfAwardLotteryPrizeInfo@@YAPAPAVns1__ArrayOfAwardLotteryPrizeInfo@@PAUsoap@@PBDPAPAV1@1@Z 00447007 f   soapC.obj
 0001:00046147       ?soap_put_PointerTons1__ArrayOfAwardLotteryPrizeInfo@@YAHPAUsoap@@PBQAVns1__ArrayOfAwardLotteryPrizeInfo@@PBD2@Z 00447147 f   soapC.obj
 0001:000461ba       ?soap_get_PointerTons1__ArrayOfAwardLotteryPrizeInfo@@YAPAPAVns1__ArrayOfAwardLotteryPrizeInfo@@PAUsoap@@PAPAV1@PBD2@Z 004471ba f   soapC.obj
 0001:000461f7       ?soap_serialize_PointerTons1__AwardInfo@@YAXPAUsoap@@PBQAVns1__AwardInfo@@@Z 004471f7 f   soapC.obj
 0001:00046227       ?soap_out_PointerTons1__AwardInfo@@YAHPAUsoap@@PBDHPBQAVns1__AwardInfo@@1@Z 00447227 f   soapC.obj
 0001:00046283       ?soap_in_PointerTons1__AwardInfo@@YAPAPAVns1__AwardInfo@@PAUsoap@@PBDPAPAV1@1@Z 00447283 f   soapC.obj
 0001:000463c3       ?soap_put_PointerTons1__AwardInfo@@YAHPAUsoap@@PBQAVns1__AwardInfo@@PBD2@Z 004473c3 f   soapC.obj
 0001:00046436       ?soap_get_PointerTons1__AwardInfo@@YAPAPAVns1__AwardInfo@@PAUsoap@@PAPAV1@PBD2@Z 00447436 f   soapC.obj
 0001:00046473       ?soap_serialize_PointerTons1__ArrayOfAwardItemInfo@@YAXPAUsoap@@PBQAVns1__ArrayOfAwardItemInfo@@@Z 00447473 f   soapC.obj
 0001:000464a3       ?soap_out_PointerTons1__ArrayOfAwardItemInfo@@YAHPAUsoap@@PBDHPBQAVns1__ArrayOfAwardItemInfo@@1@Z 004474a3 f   soapC.obj
 0001:000464ff       ?soap_in_PointerTons1__ArrayOfAwardItemInfo@@YAPAPAVns1__ArrayOfAwardItemInfo@@PAUsoap@@PBDPAPAV1@1@Z 004474ff f   soapC.obj
 0001:0004663f       ?soap_put_PointerTons1__ArrayOfAwardItemInfo@@YAHPAUsoap@@PBQAVns1__ArrayOfAwardItemInfo@@PBD2@Z 0044763f f   soapC.obj
 0001:000466b2       ?soap_get_PointerTons1__ArrayOfAwardItemInfo@@YAPAPAVns1__ArrayOfAwardItemInfo@@PAUsoap@@PAPAV1@PBD2@Z 004476b2 f   soapC.obj
 0001:000466ef       ?soap_serialize_PointerTons1__ItemInfo@@YAXPAUsoap@@PBQAVns1__ItemInfo@@@Z 004476ef f   soapC.obj
 0001:0004671f       ?soap_out_PointerTons1__ItemInfo@@YAHPAUsoap@@PBDHPBQAVns1__ItemInfo@@1@Z 0044771f f   soapC.obj
 0001:0004677b       ?soap_in_PointerTons1__ItemInfo@@YAPAPAVns1__ItemInfo@@PAUsoap@@PBDPAPAV1@1@Z 0044777b f   soapC.obj
 0001:000468be       ?soap_put_PointerTons1__ItemInfo@@YAHPAUsoap@@PBQAVns1__ItemInfo@@PBD2@Z 004478be f   soapC.obj
 0001:00046931       ?soap_get_PointerTons1__ItemInfo@@YAPAPAVns1__ItemInfo@@PAUsoap@@PAPAV1@PBD2@Z 00447931 f   soapC.obj
 0001:0004696e       ?soap_serialize_PointerToPointerTons1__AwardLotteryPrizeInfo@@YAXPAUsoap@@PBQAPAVns1__AwardLotteryPrizeInfo@@@Z 0044796e f   soapC.obj
 0001:0004699d       ?soap_out_PointerToPointerTons1__AwardLotteryPrizeInfo@@YAHPAUsoap@@PBDHPBQAPAVns1__AwardLotteryPrizeInfo@@1@Z 0044799d f   soapC.obj
 0001:000469f8       ?soap_in_PointerToPointerTons1__AwardLotteryPrizeInfo@@YAPAPAPAVns1__AwardLotteryPrizeInfo@@PAUsoap@@PBDPAPAPAV1@1@Z 004479f8 f   soapC.obj
 0001:00046aeb       ?soap_put_PointerToPointerTons1__AwardLotteryPrizeInfo@@YAHPAUsoap@@PBQAPAVns1__AwardLotteryPrizeInfo@@PBD2@Z 00447aeb f   soapC.obj
 0001:00046b5e       ?soap_get_PointerToPointerTons1__AwardLotteryPrizeInfo@@YAPAPAPAVns1__AwardLotteryPrizeInfo@@PAUsoap@@PAPAPAV1@PBD2@Z 00447b5e f   soapC.obj
 0001:00046b9b       ?soap_serialize_PointerTons1__AwardLotteryPrizeInfo@@YAXPAUsoap@@PBQAVns1__AwardLotteryPrizeInfo@@@Z 00447b9b f   soapC.obj
 0001:00046bcb       ?soap_out_PointerTons1__AwardLotteryPrizeInfo@@YAHPAUsoap@@PBDHPBQAVns1__AwardLotteryPrizeInfo@@1@Z 00447bcb f   soapC.obj
 0001:00046c27       ?soap_in_PointerTons1__AwardLotteryPrizeInfo@@YAPAPAVns1__AwardLotteryPrizeInfo@@PAUsoap@@PBDPAPAV1@1@Z 00447c27 f   soapC.obj
 0001:00046d67       ?soap_put_PointerTons1__AwardLotteryPrizeInfo@@YAHPAUsoap@@PBQAVns1__AwardLotteryPrizeInfo@@PBD2@Z 00447d67 f   soapC.obj
 0001:00046dda       ?soap_get_PointerTons1__AwardLotteryPrizeInfo@@YAPAPAVns1__AwardLotteryPrizeInfo@@PAUsoap@@PAPAV1@PBD2@Z 00447dda f   soapC.obj
 0001:00046e17       ?soap_serialize_PointerToPointerTons1__AwardItemInfo@@YAXPAUsoap@@PBQAPAVns1__AwardItemInfo@@@Z 00447e17 f   soapC.obj
 0001:00046e46       ?soap_out_PointerToPointerTons1__AwardItemInfo@@YAHPAUsoap@@PBDHPBQAPAVns1__AwardItemInfo@@1@Z 00447e46 f   soapC.obj
 0001:00046ea1       ?soap_in_PointerToPointerTons1__AwardItemInfo@@YAPAPAPAVns1__AwardItemInfo@@PAUsoap@@PBDPAPAPAV1@1@Z 00447ea1 f   soapC.obj
 0001:00046f94       ?soap_put_PointerToPointerTons1__AwardItemInfo@@YAHPAUsoap@@PBQAPAVns1__AwardItemInfo@@PBD2@Z 00447f94 f   soapC.obj
 0001:00047007       ?soap_get_PointerToPointerTons1__AwardItemInfo@@YAPAPAPAVns1__AwardItemInfo@@PAUsoap@@PAPAPAV1@PBD2@Z 00448007 f   soapC.obj
 0001:00047044       ?soap_serialize_PointerTons1__AwardItemInfo@@YAXPAUsoap@@PBQAVns1__AwardItemInfo@@@Z 00448044 f   soapC.obj
 0001:00047074       ?soap_out_PointerTons1__AwardItemInfo@@YAHPAUsoap@@PBDHPBQAVns1__AwardItemInfo@@1@Z 00448074 f   soapC.obj
 0001:000470d0       ?soap_in_PointerTons1__AwardItemInfo@@YAPAPAVns1__AwardItemInfo@@PAUsoap@@PBDPAPAV1@1@Z 004480d0 f   soapC.obj
 0001:00047210       ?soap_put_PointerTons1__AwardItemInfo@@YAHPAUsoap@@PBQAVns1__AwardItemInfo@@PBD2@Z 00448210 f   soapC.obj
 0001:00047283       ?soap_get_PointerTons1__AwardItemInfo@@YAPAPAVns1__AwardItemInfo@@PAUsoap@@PAPAV1@PBD2@Z 00448283 f   soapC.obj
 0001:000472c0       ?soap_serialize_xsd__decimal@@YAXPAUsoap@@PBQAD@Z 004482c0 f   soapC.obj
 0001:000472d9       ?soap_out_xsd__decimal@@YAHPAUsoap@@PBDHPBQAD1@Z 004482d9 f   soapC.obj
 0001:000472fc       ?soap_in_xsd__decimal@@YAPAPADPAUsoap@@PBDPAPAD1@Z 004482fc f   soapC.obj
 0001:0004732a       ?soap_put_xsd__decimal@@YAHPAUsoap@@PBQADPBD2@Z 0044832a f   soapC.obj
 0001:0004739d       ?soap_get_xsd__decimal@@YAPAPADPAUsoap@@PAPADPBD2@Z 0044839d f   soapC.obj
 0001:000473da       ?soap_serialize__QName@@YAXPAUsoap@@PBQAD@Z 004483da f   soapC.obj
 0001:000473f3       ?soap_out__QName@@YAHPAUsoap@@PBDHPBQAD1@Z 004483f3 f   soapC.obj
 0001:00047416       ?soap_in__QName@@YAPAPADPAUsoap@@PBDPAPAD1@Z 00448416 f   soapC.obj
 0001:00047444       ?soap_put__QName@@YAHPAUsoap@@PBQADPBD2@Z 00448444 f   soapC.obj
 0001:000474b7       ?soap_get__QName@@YAPAPADPAUsoap@@PAPADPBD2@Z 004484b7 f   soapC.obj
 0001:000474f4       ?soap_default_string@@YAXPAUsoap@@PAPAD@Z 004484f4 f   soapC.obj
 0001:00047502       ?soap_serialize_string@@YAXPAUsoap@@PBQAD@Z 00448502 f   soapC.obj
 0001:0004751b       ?soap_out_string@@YAHPAUsoap@@PBDHPBQAD1@Z 0044851b f   soapC.obj
 0001:0004753e       ?soap_in_string@@YAPAPADPAUsoap@@PBDPAPAD1@Z 0044853e f   soapC.obj
 0001:0004756c       ?soap_put_string@@YAHPAUsoap@@PBQADPBD2@Z 0044856c f   soapC.obj
 0001:000475df       ?soap_get_string@@YAPAPADPAUsoap@@PAPADPBD2@Z 004485df f   soapC.obj
 0001:00047620       ??_E_ns1__GetLotteryWinningListResponse_GetLotteryWinningListResult@@UAEPAXI@Z 00448620 f i soapC.obj
 0001:00047690       ??4_ns1__GetLotteryWinningListResponse_GetLotteryWinningListResult@@QAEAAV0@ABV0@@Z 00448690 f i soapC.obj
 0001:000476d0       ??_E_ns1__GetLotteryWinningTopResponse_GetLotteryWinningTopResult@@UAEPAXI@Z 004486d0 f i soapC.obj
 0001:00047740       ??4_ns1__GetLotteryWinningTopResponse_GetLotteryWinningTopResult@@QAEAAV0@ABV0@@Z 00448740 f i soapC.obj
 0001:00047780       ??_E_ns1__GetLotteryWinningListResponse@@UAEPAXI@Z 00448780 f i soapC.obj
 0001:000477f0       ??4_ns1__GetLotteryWinningListResponse@@QAEAAV0@ABV0@@Z 004487f0 f i soapC.obj
 0001:00047830       ??_E_ns1__GetLotteryWinningList@@UAEPAXI@Z 00448830 f i soapC.obj
 0001:000478a0       ??4_ns1__GetLotteryWinningList@@QAEAAV0@ABV0@@Z 004488a0 f i soapC.obj
 0001:00047940       ??_E_ns1__GetLotteryWinningTopResponse@@UAEPAXI@Z 00448940 f i soapC.obj
 0001:000479b0       ??4_ns1__GetLotteryWinningTopResponse@@QAEAAV0@ABV0@@Z 004489b0 f i soapC.obj
 0001:000479f0       ??_E_ns1__GetLotteryWinningTop@@UAEPAXI@Z 004489f0 f i soapC.obj
 0001:00047a60       ??4_ns1__GetLotteryWinningTop@@QAEAAV0@ABV0@@Z 00448a60 f i soapC.obj
 0001:00047af0       ??_E_ns1__GetLotteryPrizeResponse@@UAEPAXI@Z 00448af0 f i soapC.obj
 0001:00047b60       ??4_ns1__GetLotteryPrizeResponse@@QAEAAV0@ABV0@@Z 00448b60 f i soapC.obj
 0001:00047ba0       ??_E_ns1__GetLotteryPrize@@UAEPAXI@Z 00448ba0 f i soapC.obj
 0001:00047c10       ??4_ns1__GetLotteryPrize@@QAEAAV0@ABV0@@Z 00448c10 f i soapC.obj
 0001:00047c50       ??_E_ns1__LotteryResponse@@UAEPAXI@Z 00448c50 f i soapC.obj
 0001:00047cc0       ??4_ns1__LotteryResponse@@QAEAAV0@ABV0@@Z 00448cc0 f i soapC.obj
 0001:00047d00       ??_E_ns1__Lottery@@UAEPAXI@Z 00448d00 f i soapC.obj
 0001:00047d70       ??4_ns1__Lottery@@QAEAAV0@ABV0@@Z 00448d70 f i soapC.obj
 0001:00047df0       ??_E_ns1__GetAwardInfoResponse@@UAEPAXI@Z 00448df0 f i soapC.obj
 0001:00047e60       ??4_ns1__GetAwardInfoResponse@@QAEAAV0@ABV0@@Z 00448e60 f i soapC.obj
 0001:00047e90       ??_E_ns1__GetAwardInfo@@UAEPAXI@Z 00448e90 f i soapC.obj
 0001:00047f00       ??4_ns1__GetAwardInfo@@QAEAAV0@ABV0@@Z 00448f00 f i soapC.obj
 0001:00047f30       ??_E_ns1__GetAwardItemResponse@@UAEPAXI@Z 00448f30 f i soapC.obj
 0001:00047fa0       ??4_ns1__GetAwardItemResponse@@QAEAAV0@ABV0@@Z 00448fa0 f i soapC.obj
 0001:00047fd0       ??_E_ns1__GetAwardItem@@UAEPAXI@Z 00448fd0 f i soapC.obj
 0001:00048040       ??4_ns1__GetAwardItem@@QAEAAV0@ABV0@@Z 00449040 f i soapC.obj
 0001:00048070       ??_E_ns1__AwardItemResponse@@UAEPAXI@Z 00449070 f i soapC.obj
 0001:000480e0       ??4_ns1__AwardItemResponse@@QAEAAV0@ABV0@@Z 004490e0 f i soapC.obj
 0001:00048120       ??_E_ns1__AwardItem@@UAEPAXI@Z 00449120 f i soapC.obj
 0001:00048190       ??4_ns1__AwardItem@@QAEAAV0@ABV0@@Z 00449190 f i soapC.obj
 0001:00048200       ??_E_ns1__GetClothingIDResponse@@UAEPAXI@Z 00449200 f i soapC.obj
 0001:00048270       ??4_ns1__GetClothingIDResponse@@QAEAAV0@ABV0@@Z 00449270 f i soapC.obj
 0001:000482a0       ??_E_ns1__GetClothingID@@UAEPAXI@Z 004492a0 f i soapC.obj
 0001:00048310       ??4_ns1__GetClothingID@@QAEAAV0@ABV0@@Z 00449310 f i soapC.obj
 0001:00048340       ??_E_ns1__GetItemValueResponse@@UAEPAXI@Z 00449340 f i soapC.obj
 0001:000483b0       ??4_ns1__GetItemValueResponse@@QAEAAV0@ABV0@@Z 004493b0 f i soapC.obj
 0001:000483e0       ??_E_ns1__GetItemValue@@UAEPAXI@Z 004493e0 f i soapC.obj
 0001:00048450       ??4_ns1__GetItemValue@@QAEAAV0@ABV0@@Z 00449450 f i soapC.obj
 0001:00048490       ??_E_ns1__GetItemByItemIDResponse@@UAEPAXI@Z 00449490 f i soapC.obj
 0001:00048500       ??4_ns1__GetItemByItemIDResponse@@QAEAAV0@ABV0@@Z 00449500 f i soapC.obj
 0001:00048530       ??_E_ns1__GetItemByItemID@@UAEPAXI@Z 00449530 f i soapC.obj
 0001:000485a0       ??4_ns1__GetItemByItemID@@QAEAAV0@ABV0@@Z 004495a0 f i soapC.obj
 0001:000485d0       ??_E_ns1__GetItemByCodeResponse@@UAEPAXI@Z 004495d0 f i soapC.obj
 0001:00048640       ??4_ns1__GetItemByCodeResponse@@QAEAAV0@ABV0@@Z 00449640 f i soapC.obj
 0001:00048670       ??_E_ns1__GetItemByCode@@UAEPAXI@Z 00449670 f i soapC.obj
 0001:000486e0       ??4_ns1__GetItemByCode@@QAEAAV0@ABV0@@Z 004496e0 f i soapC.obj
 0001:00048710       ??_Ens1__ArrayOfAwardLotteryPrizeInfo@@UAEPAXI@Z 00449710 f i soapC.obj
 0001:00048780       ??4ns1__ArrayOfAwardLotteryPrizeInfo@@QAEAAV0@ABV0@@Z 00449780 f i soapC.obj
 0001:000487c0       ??_Ens1__AwardLotteryPrizeInfo@@UAEPAXI@Z 004497c0 f i soapC.obj
 0001:00048830       ??4ns1__AwardLotteryPrizeInfo@@QAEAAV0@ABV0@@Z 00449830 f i soapC.obj
 0001:000488a0       ??_Ens1__AwardInfo@@UAEPAXI@Z 004498a0 f i soapC.obj
 0001:00048910       ??4ns1__AwardInfo@@QAEAAV0@ABV0@@Z 00449910 f i soapC.obj
 0001:000489f0       ??_Ens1__AwardItemInfo@@UAEPAXI@Z 004499f0 f i soapC.obj
 0001:00048a60       ??4ns1__AwardItemInfo@@QAEAAV0@ABV0@@Z 00449a60 f i soapC.obj
 0001:00048b30       ??_Ens1__ArrayOfAwardItemInfo@@UAEPAXI@Z 00449b30 f i soapC.obj
 0001:00048ba0       ??4ns1__ArrayOfAwardItemInfo@@QAEAAV0@ABV0@@Z 00449ba0 f i soapC.obj
 0001:00048be0       ??_Ens1__ItemInfo@@UAEPAXI@Z 00449be0 f i soapC.obj
 0001:00048c60       ??4ns1__ItemInfo@@QAEAAV0@ABV0@@Z 00449c60 f i soapC.obj
 0001:00048e40       ??0ns1__ItemInfo@@QAE@XZ   00449e40 f i soapC.obj
 0001:00048e70       ?soap_type@ns1__ItemInfo@@UBEHXZ 00449e70 f i soapC.obj
 0001:00048e80       ??1ns1__ItemInfo@@UAE@XZ   00449e80 f i soapC.obj
 0001:00048ea0       ??0ns1__ArrayOfAwardItemInfo@@QAE@XZ 00449ea0 f i soapC.obj
 0001:00048ed0       ?soap_type@ns1__ArrayOfAwardItemInfo@@UBEHXZ 00449ed0 f i soapC.obj
 0001:00048ee0       ??1ns1__ArrayOfAwardItemInfo@@UAE@XZ 00449ee0 f i soapC.obj
 0001:00048f00       ??0ns1__AwardItemInfo@@QAE@XZ 00449f00 f i soapC.obj
 0001:00048f30       ?soap_type@ns1__AwardItemInfo@@UBEHXZ 00449f30 f i soapC.obj
 0001:00048f40       ??1ns1__AwardItemInfo@@UAE@XZ 00449f40 f i soapC.obj
 0001:00048f60       ??0ns1__AwardInfo@@QAE@XZ  00449f60 f i soapC.obj
 0001:00048f90       ?soap_type@ns1__AwardInfo@@UBEHXZ 00449f90 f i soapC.obj
 0001:00048fa0       ??1ns1__AwardInfo@@UAE@XZ  00449fa0 f i soapC.obj
 0001:00048fc0       ??0ns1__AwardLotteryPrizeInfo@@QAE@XZ 00449fc0 f i soapC.obj
 0001:00048ff0       ?soap_type@ns1__AwardLotteryPrizeInfo@@UBEHXZ 00449ff0 f i soapC.obj
 0001:00049000       ??1ns1__AwardLotteryPrizeInfo@@UAE@XZ 0044a000 f i soapC.obj
 0001:00049020       ??0ns1__ArrayOfAwardLotteryPrizeInfo@@QAE@XZ 0044a020 f i soapC.obj
 0001:00049050       ?soap_type@ns1__ArrayOfAwardLotteryPrizeInfo@@UBEHXZ 0044a050 f i soapC.obj
 0001:00049060       ??1ns1__ArrayOfAwardLotteryPrizeInfo@@UAE@XZ 0044a060 f i soapC.obj
 0001:00049080       ??0_ns1__GetItemByCode@@QAE@XZ 0044a080 f i soapC.obj
 0001:000490b0       ?soap_type@_ns1__GetItemByCode@@UBEHXZ 0044a0b0 f i soapC.obj
 0001:000490c0       ??1_ns1__GetItemByCode@@UAE@XZ 0044a0c0 f i soapC.obj
 0001:000490e0       ??0_ns1__GetItemByCodeResponse@@QAE@XZ 0044a0e0 f i soapC.obj
 0001:00049110       ?soap_type@_ns1__GetItemByCodeResponse@@UBEHXZ 0044a110 f i soapC.obj
 0001:00049120       ??1_ns1__GetItemByCodeResponse@@UAE@XZ 0044a120 f i soapC.obj
 0001:00049140       ??0_ns1__GetItemByItemID@@QAE@XZ 0044a140 f i soapC.obj
 0001:00049170       ?soap_type@_ns1__GetItemByItemID@@UBEHXZ 0044a170 f i soapC.obj
 0001:00049180       ??1_ns1__GetItemByItemID@@UAE@XZ 0044a180 f i soapC.obj
 0001:000491a0       ??0_ns1__GetItemByItemIDResponse@@QAE@XZ 0044a1a0 f i soapC.obj
 0001:000491d0       ?soap_type@_ns1__GetItemByItemIDResponse@@UBEHXZ 0044a1d0 f i soapC.obj
 0001:000491e0       ??1_ns1__GetItemByItemIDResponse@@UAE@XZ 0044a1e0 f i soapC.obj
 0001:00049200       ??0_ns1__GetItemValue@@QAE@XZ 0044a200 f i soapC.obj
 0001:00049230       ?soap_type@_ns1__GetItemValue@@UBEHXZ 0044a230 f i soapC.obj
 0001:00049240       ??1_ns1__GetItemValue@@UAE@XZ 0044a240 f i soapC.obj
 0001:00049260       ??0_ns1__GetItemValueResponse@@QAE@XZ 0044a260 f i soapC.obj
 0001:00049290       ?soap_type@_ns1__GetItemValueResponse@@UBEHXZ 0044a290 f i soapC.obj
 0001:000492a0       ??1_ns1__GetItemValueResponse@@UAE@XZ 0044a2a0 f i soapC.obj
 0001:000492c0       ??0_ns1__GetClothingID@@QAE@XZ 0044a2c0 f i soapC.obj
 0001:000492f0       ?soap_type@_ns1__GetClothingID@@UBEHXZ 0044a2f0 f i soapC.obj
 0001:00049300       ??1_ns1__GetClothingID@@UAE@XZ 0044a300 f i soapC.obj
 0001:00049320       ??0_ns1__GetClothingIDResponse@@QAE@XZ 0044a320 f i soapC.obj
 0001:00049350       ?soap_type@_ns1__GetClothingIDResponse@@UBEHXZ 0044a350 f i soapC.obj
 0001:00049360       ??1_ns1__GetClothingIDResponse@@UAE@XZ 0044a360 f i soapC.obj
 0001:00049380       ??0_ns1__AwardItem@@QAE@XZ 0044a380 f i soapC.obj
 0001:000493b0       ?soap_type@_ns1__AwardItem@@UBEHXZ 0044a3b0 f i soapC.obj
 0001:000493c0       ??1_ns1__AwardItem@@UAE@XZ 0044a3c0 f i soapC.obj
 0001:000493e0       ??0_ns1__AwardItemResponse@@QAE@XZ 0044a3e0 f i soapC.obj
 0001:00049410       ?soap_type@_ns1__AwardItemResponse@@UBEHXZ 0044a410 f i soapC.obj
 0001:00049420       ??1_ns1__AwardItemResponse@@UAE@XZ 0044a420 f i soapC.obj
 0001:00049440       ??0_ns1__GetAwardItem@@QAE@XZ 0044a440 f i soapC.obj
 0001:00049470       ?soap_type@_ns1__GetAwardItem@@UBEHXZ 0044a470 f i soapC.obj
 0001:00049480       ??1_ns1__GetAwardItem@@UAE@XZ 0044a480 f i soapC.obj
 0001:000494a0       ??0_ns1__GetAwardItemResponse@@QAE@XZ 0044a4a0 f i soapC.obj
 0001:000494d0       ?soap_type@_ns1__GetAwardItemResponse@@UBEHXZ 0044a4d0 f i soapC.obj
 0001:000494e0       ??1_ns1__GetAwardItemResponse@@UAE@XZ 0044a4e0 f i soapC.obj
 0001:00049500       ??0_ns1__GetAwardInfo@@QAE@XZ 0044a500 f i soapC.obj
 0001:00049530       ?soap_type@_ns1__GetAwardInfo@@UBEHXZ 0044a530 f i soapC.obj
 0001:00049540       ??1_ns1__GetAwardInfo@@UAE@XZ 0044a540 f i soapC.obj
 0001:00049560       ??0_ns1__GetAwardInfoResponse@@QAE@XZ 0044a560 f i soapC.obj
 0001:00049590       ?soap_type@_ns1__GetAwardInfoResponse@@UBEHXZ 0044a590 f i soapC.obj
 0001:000495a0       ??1_ns1__GetAwardInfoResponse@@UAE@XZ 0044a5a0 f i soapC.obj
 0001:000495c0       ??0_ns1__Lottery@@QAE@XZ   0044a5c0 f i soapC.obj
 0001:000495f0       ?soap_type@_ns1__Lottery@@UBEHXZ 0044a5f0 f i soapC.obj
 0001:00049600       ??1_ns1__Lottery@@UAE@XZ   0044a600 f i soapC.obj
 0001:00049620       ??0_ns1__LotteryResponse@@QAE@XZ 0044a620 f i soapC.obj
 0001:00049650       ?soap_type@_ns1__LotteryResponse@@UBEHXZ 0044a650 f i soapC.obj
 0001:00049660       ??1_ns1__LotteryResponse@@UAE@XZ 0044a660 f i soapC.obj
 0001:00049680       ??0_ns1__GetLotteryPrize@@QAE@XZ 0044a680 f i soapC.obj
 0001:000496b0       ?soap_type@_ns1__GetLotteryPrize@@UBEHXZ 0044a6b0 f i soapC.obj
 0001:000496c0       ??1_ns1__GetLotteryPrize@@UAE@XZ 0044a6c0 f i soapC.obj
 0001:000496e0       ??0_ns1__GetLotteryPrizeResponse@@QAE@XZ 0044a6e0 f i soapC.obj
 0001:00049710       ?soap_type@_ns1__GetLotteryPrizeResponse@@UBEHXZ 0044a710 f i soapC.obj
 0001:00049720       ??1_ns1__GetLotteryPrizeResponse@@UAE@XZ 0044a720 f i soapC.obj
 0001:00049740       ??0_ns1__GetLotteryWinningTop@@QAE@XZ 0044a740 f i soapC.obj
 0001:00049770       ?soap_type@_ns1__GetLotteryWinningTop@@UBEHXZ 0044a770 f i soapC.obj
 0001:00049780       ??1_ns1__GetLotteryWinningTop@@UAE@XZ 0044a780 f i soapC.obj
 0001:000497a0       ??0_ns1__GetLotteryWinningTopResponse_GetLotteryWinningTopResult@@QAE@XZ 0044a7a0 f i soapC.obj
 0001:000497d0       ?soap_type@_ns1__GetLotteryWinningTopResponse_GetLotteryWinningTopResult@@UBEHXZ 0044a7d0 f i soapC.obj
 0001:000497e0       ??1_ns1__GetLotteryWinningTopResponse_GetLotteryWinningTopResult@@UAE@XZ 0044a7e0 f i soapC.obj
 0001:00049800       ??0_ns1__GetLotteryWinningTopResponse@@QAE@XZ 0044a800 f i soapC.obj
 0001:00049830       ?soap_type@_ns1__GetLotteryWinningTopResponse@@UBEHXZ 0044a830 f i soapC.obj
 0001:00049840       ??1_ns1__GetLotteryWinningTopResponse@@UAE@XZ 0044a840 f i soapC.obj
 0001:00049860       ??0_ns1__GetLotteryWinningList@@QAE@XZ 0044a860 f i soapC.obj
 0001:00049890       ?soap_type@_ns1__GetLotteryWinningList@@UBEHXZ 0044a890 f i soapC.obj
 0001:000498a0       ??1_ns1__GetLotteryWinningList@@UAE@XZ 0044a8a0 f i soapC.obj
 0001:000498c0       ??0_ns1__GetLotteryWinningListResponse_GetLotteryWinningListResult@@QAE@XZ 0044a8c0 f i soapC.obj
 0001:000498f0       ?soap_type@_ns1__GetLotteryWinningListResponse_GetLotteryWinningListResult@@UBEHXZ 0044a8f0 f i soapC.obj
 0001:00049900       ??1_ns1__GetLotteryWinningListResponse_GetLotteryWinningListResult@@UAE@XZ 0044a900 f i soapC.obj
 0001:00049920       ??0_ns1__GetLotteryWinningListResponse@@QAE@XZ 0044a920 f i soapC.obj
 0001:00049950       ?soap_type@_ns1__GetLotteryWinningListResponse@@UBEHXZ 0044a950 f i soapC.obj
 0001:00049960       ??1_ns1__GetLotteryWinningListResponse@@UAE@XZ 0044a960 f i soapC.obj
 0001:00049980       ?soap_new_SOAP_ENV__Fault@@YAPAUSOAP_ENV__Fault@@PAUsoap@@H@Z 0044a980 f i soapC.obj
 0001:000499a0       ?soap_new_SOAP_ENV__Reason@@YAPAUSOAP_ENV__Reason@@PAUsoap@@H@Z 0044a9a0 f i soapC.obj
 0001:000499c0       ?soap_new_SOAP_ENV__Detail@@YAPAUSOAP_ENV__Detail@@PAUsoap@@H@Z 0044a9c0 f i soapC.obj
 0001:000499e0       ?soap_new_SOAP_ENV__Code@@YAPAUSOAP_ENV__Code@@PAUsoap@@H@Z 0044a9e0 f i soapC.obj
 0001:00049a00       ?soap_new_SOAP_ENV__Header@@YAPAUSOAP_ENV__Header@@PAUsoap@@H@Z 0044aa00 f i soapC.obj
 0001:00049a20       ?soap_call___ns1__GetItemByCode@@YAHPAUsoap@@PBD1PAV_ns1__GetItemByCode@@PAV_ns1__GetItemByCodeResponse@@@Z 0044aa20 f   soapClient.obj
 0001:00049ce2       ?soap_call___ns1__GetItemByItemID@@YAHPAUsoap@@PBD1PAV_ns1__GetItemByItemID@@PAV_ns1__GetItemByItemIDResponse@@@Z 0044ace2 f   soapClient.obj
 0001:00049fa4       ?soap_call___ns1__GetItemValue@@YAHPAUsoap@@PBD1PAV_ns1__GetItemValue@@PAV_ns1__GetItemValueResponse@@@Z 0044afa4 f   soapClient.obj
 0001:0004a266       ?soap_call___ns1__GetClothingID@@YAHPAUsoap@@PBD1PAV_ns1__GetClothingID@@PAV_ns1__GetClothingIDResponse@@@Z 0044b266 f   soapClient.obj
 0001:0004a528       ?soap_call___ns1__AwardItem@@YAHPAUsoap@@PBD1PAV_ns1__AwardItem@@PAV_ns1__AwardItemResponse@@@Z 0044b528 f   soapClient.obj
 0001:0004a7ea       ?soap_call___ns1__GetAwardItem@@YAHPAUsoap@@PBD1PAV_ns1__GetAwardItem@@PAV_ns1__GetAwardItemResponse@@@Z 0044b7ea f   soapClient.obj
 0001:0004aaac       ?soap_call___ns1__GetAwardInfo@@YAHPAUsoap@@PBD1PAV_ns1__GetAwardInfo@@PAV_ns1__GetAwardInfoResponse@@@Z 0044baac f   soapClient.obj
 0001:0004ad6e       ?soap_call___ns1__Lottery@@YAHPAUsoap@@PBD1PAV_ns1__Lottery@@PAV_ns1__LotteryResponse@@@Z 0044bd6e f   soapClient.obj
 0001:0004b030       ?soap_call___ns1__GetLotteryPrize@@YAHPAUsoap@@PBD1PAV_ns1__GetLotteryPrize@@PAV_ns1__GetLotteryPrizeResponse@@@Z 0044c030 f   soapClient.obj
 0001:0004b2f2       ?soap_call___ns1__GetLotteryWinningTop@@YAHPAUsoap@@PBD1PAV_ns1__GetLotteryWinningTop@@PAV_ns1__GetLotteryWinningTopResponse@@@Z 0044c2f2 f   soapClient.obj
 0001:0004b5b4       ?soap_call___ns1__GetLotteryWinningList@@YAHPAUsoap@@PBD1PAV_ns1__GetLotteryWinningList@@PAV_ns1__GetLotteryWinningListResponse@@@Z 0044c5b4 f   soapClient.obj
 0001:0004b876       ?soap_call___ns1__GetItemByCode_@@YAHPAUsoap@@PBD1PAV_ns1__GetItemByCode@@PAV_ns1__GetItemByCodeResponse@@@Z 0044c876 f   soapClient.obj
 0001:0004bb38       ?soap_call___ns1__GetItemByItemID_@@YAHPAUsoap@@PBD1PAV_ns1__GetItemByItemID@@PAV_ns1__GetItemByItemIDResponse@@@Z 0044cb38 f   soapClient.obj
 0001:0004bdfa       ?soap_call___ns1__GetItemValue_@@YAHPAUsoap@@PBD1PAV_ns1__GetItemValue@@PAV_ns1__GetItemValueResponse@@@Z 0044cdfa f   soapClient.obj
 0001:0004c0bc       ?soap_call___ns1__GetClothingID_@@YAHPAUsoap@@PBD1PAV_ns1__GetClothingID@@PAV_ns1__GetClothingIDResponse@@@Z 0044d0bc f   soapClient.obj
 0001:0004c37e       ?soap_call___ns1__AwardItem_@@YAHPAUsoap@@PBD1PAV_ns1__AwardItem@@PAV_ns1__AwardItemResponse@@@Z 0044d37e f   soapClient.obj
 0001:0004c640       ?soap_call___ns1__GetAwardItem_@@YAHPAUsoap@@PBD1PAV_ns1__GetAwardItem@@PAV_ns1__GetAwardItemResponse@@@Z 0044d640 f   soapClient.obj
 0001:0004c902       ?soap_call___ns1__GetAwardInfo_@@YAHPAUsoap@@PBD1PAV_ns1__GetAwardInfo@@PAV_ns1__GetAwardInfoResponse@@@Z 0044d902 f   soapClient.obj
 0001:0004cbc4       ?soap_call___ns1__Lottery_@@YAHPAUsoap@@PBD1PAV_ns1__Lottery@@PAV_ns1__LotteryResponse@@@Z 0044dbc4 f   soapClient.obj
 0001:0004ce86       ?soap_call___ns1__GetLotteryPrize_@@YAHPAUsoap@@PBD1PAV_ns1__GetLotteryPrize@@PAV_ns1__GetLotteryPrizeResponse@@@Z 0044de86 f   soapClient.obj
 0001:0004d148       ?soap_call___ns1__GetLotteryWinningTop_@@YAHPAUsoap@@PBD1PAV_ns1__GetLotteryWinningTop@@PAV_ns1__GetLotteryWinningTopResponse@@@Z 0044e148 f   soapClient.obj
 0001:0004d40a       ?soap_call___ns1__GetLotteryWinningList_@@YAHPAUsoap@@PBD1PAV_ns1__GetLotteryWinningList@@PAV_ns1__GetLotteryWinningListResponse@@@Z 0044e40a f   soapClient.obj
 0001:0004d6d0       _soap_send_raw             0044e6d0 f   stdsoap2.obj
 0001:0004d899       _soap_flush                0044e899 f   stdsoap2.obj
 0001:0004d931       _soap_flush_raw            0044e931 f   stdsoap2.obj
 0001:0004da4d       _soap_send                 0044ea4d f   stdsoap2.obj
 0001:0004da79       _soap_send2                0044ea79 f   stdsoap2.obj
 0001:0004daad       _soap_send3                0044eaad f   stdsoap2.obj
 0001:0004daf5       _soap_recv_raw             0044eaf5 f   stdsoap2.obj
 0001:0004dfbe       _soap_recv                 0044efbe f   stdsoap2.obj
 0001:0004e3e7       _soap_getchar              0044f3e7 f   stdsoap2.obj
 0001:0004e478       _soap_code                 0044f478 f   stdsoap2.obj
 0001:0004e4bb       _soap_code_int             0044f4bb f   stdsoap2.obj
 0001:0004e4fb       _soap_code_str             0044f4fb f   stdsoap2.obj
 0001:0004e52e       _soap_code_bits            0044f52e f   stdsoap2.obj
 0001:0004e61b       _soap_code_list            0044f61b f   stdsoap2.obj
 0001:0004e6da       _soap_get                  0044f6da f   stdsoap2.obj
 0001:0004f148       _soap_move                 00450148 f   stdsoap2.obj
 0001:0004f178       _soap_tell                 00450178 f   stdsoap2.obj
 0001:0004f1a9       _soap_pututf8              004501a9 f   stdsoap2.obj
 0001:0004f353       _soap_getutf8              00450353 f   stdsoap2.obj
 0001:0004f692       _soap_puthex               00450692 f   stdsoap2.obj
 0001:0004f732       _soap_gethex               00450732 f   stdsoap2.obj
 0001:0004f8fb       _soap_putbase64            004508fb f   stdsoap2.obj
 0001:0004faa2       _soap_getbase64            00450aa2 f   stdsoap2.obj
 0001:0004fd87       _soap_xop_forward          00450d87 f   stdsoap2.obj
 0001:0004fe28       _soap_dime_forward         00450e28 f   stdsoap2.obj
 0001:0004ff00       _soap_strdup               00450f00 f   stdsoap2.obj
 0001:0004ff4d       _soap_wstrdup              00450f4d f   stdsoap2.obj
 0001:0004ffbe       _soap_new_block            00450fbe f   stdsoap2.obj
 0001:00050016       _soap_push_block           00451016 f   stdsoap2.obj
 0001:00050089       _soap_pop_block            00451089 f   stdsoap2.obj
 0001:000500de       _soap_update_pointers      004510de f   stdsoap2.obj
 0001:000502da       _soap_resolve              004512da f   stdsoap2.obj
 0001:00050671       _soap_size_block           00451671 f   stdsoap2.obj
 0001:000506ba       _soap_first_block          004516ba f   stdsoap2.obj
 0001:0005071e       _soap_next_block           0045171e f   stdsoap2.obj
 0001:00050772       _soap_block_size           00451772 f   stdsoap2.obj
 0001:0005078f       _soap_end_block            0045178f f   stdsoap2.obj
 0001:00050836       _soap_save_block           00451836 f   stdsoap2.obj
 0001:0005092f       _soap_putsize              0045192f f   stdsoap2.obj
 0001:0005094a       _soap_putsizes             0045194a f   stdsoap2.obj
 0001:00050969       _soap_putsizesoffsets      00451969 f   stdsoap2.obj
 0001:00050b89       _soap_putoffset            00451b89 f   stdsoap2.obj
 0001:00050ba0       _soap_putoffsets           00451ba0 f   stdsoap2.obj
 0001:00050c5b       _soap_size                 00451c5b f   stdsoap2.obj
 0001:00050c9c       _soap_getoffsets           00451c9c f   stdsoap2.obj
 0001:00050dac       _soap_getsize              00451dac f   stdsoap2.obj
 0001:00050ece       _soap_getsizes             00451ece f   stdsoap2.obj
 0001:00050fb1       _soap_getposition          00451fb1 f   stdsoap2.obj
 0001:00051074       _soap_push_namespace       00452074 f   stdsoap2.obj
 0001:00051243       _soap_pop_namespace        00452243 f   stdsoap2.obj
 0001:00051295       _soap_match_namespace      00452295 f   stdsoap2.obj
 0001:000513e0       _soap_current_namespace    004523e0 f   stdsoap2.obj
 0001:000514e8       _soap_tag_cmp              004524e8 f   stdsoap2.obj
 0001:00051637       _soap_match_tag            00452637 f   stdsoap2.obj
 0001:000517f6       _soap_match_array          004527f6 f   stdsoap2.obj
 0001:0005186d       _soap_bind                 0045286d f   stdsoap2.obj
 0001:00051e3b       _soap_poll                 00452e3b f   stdsoap2.obj
 0001:000522eb       _soap_accept               004532eb f   stdsoap2.obj
 0001:00052973       _soap_closesock            00453973 f   stdsoap2.obj
 0001:00052a74       _soap_force_closesock      00453a74 f   stdsoap2.obj
 0001:00052aa5       _soap_cleanup              00453aa5 f   stdsoap2.obj
 0001:00052ad1       _soap_done                 00453ad1 f   stdsoap2.obj
 0001:00054ec1       _soap_get_header_attribute 00455ec1 f   stdsoap2.obj
 0001:00054f4c       _soap_decode_key           00455f4c f   stdsoap2.obj
 0001:00054f6a       _soap_decode_val           00455f6a f   stdsoap2.obj
 0001:00055c1f       _soap_response             00456c1f f   stdsoap2.obj
 0001:00055d50       _soap_url                  00456d50 f   stdsoap2.obj
 0001:00055dcf       _soap_encode_url           00456dcf f   stdsoap2.obj
 0001:00055ed1       _soap_encode_url_string    00456ed1 f   stdsoap2.obj
 0001:00055f2d       _soap_hash                 00456f2d f   stdsoap2.obj
 0001:00055f73       _soap_new_LIBRARY_VERSION_REQUIRED_20816 00456f73 f   stdsoap2.obj
 0001:00055fa9       _soap_free                 00456fa9 f   stdsoap2.obj
 0001:00055fc7       _soap_del                  00456fc7 f   stdsoap2.obj
 0001:00055fd9       _soap_embed                00456fd9 f   stdsoap2.obj
 0001:00056086       _soap_pointer_lookup       00457086 f   stdsoap2.obj
 0001:000560f0       _soap_pointer_enter        004570f0 f   stdsoap2.obj
 0001:0005623f       _soap_array_pointer_lookup 0045723f f   stdsoap2.obj
 0001:0005630c       _soap_begin_count          0045730c f   stdsoap2.obj
 0001:00056540       _soap_end_count            00457540 f   stdsoap2.obj
 0001:00056590       _soap_begin_send           00457590 f   stdsoap2.obj
 0001:00056860       _soap_embedded             00457860 f   stdsoap2.obj
 0001:00056892       _soap_reference            00457892 f   stdsoap2.obj
 0001:00056935       _soap_array_reference      00457935 f   stdsoap2.obj
 0001:000569eb       _soap_embedded_id          004579eb f   stdsoap2.obj
 0001:00056b0f       _soap_is_embedded          00457b0f f   stdsoap2.obj
 0001:00056bad       _soap_is_single            00457bad f   stdsoap2.obj
 0001:00056bf9       _soap_set_embedded         00457bf9 f   stdsoap2.obj
 0001:00056c23       _soap_attachment           00457c23 f   stdsoap2.obj
 0001:00056f4a       _soap_lookup               00457f4a f   stdsoap2.obj
 0001:00056f9f       _soap_enter                00457f9f f   stdsoap2.obj
 0001:0005700c       _soap_malloc               0045800c f   stdsoap2.obj
 0001:000570e5       _soap_dealloc              004580e5 f   stdsoap2.obj
 0001:00057261       _soap_delete               00458261 f   stdsoap2.obj
 0001:0005733c       _soap_delegate_deletion    0045833c f   stdsoap2.obj
 0001:000573e9       _soap_link                 004583e9 f   stdsoap2.obj
 0001:00057440       _soap_unlink               00458440 f   stdsoap2.obj
 0001:000574ef       _soap_lookup_type          004584ef f   stdsoap2.obj
 0001:0005752a       _soap_id_lookup            0045852a f   stdsoap2.obj
 0001:00057791       _soap_id_forward           00458791 f   stdsoap2.obj
 0001:0005792b       _soap_id_enter             0045892b f   stdsoap2.obj
 0001:00057ad1       _soap_fcopy                00458ad1 f   stdsoap2.obj
 0001:00057aea       _soap_end_send             00458aea f   stdsoap2.obj
 0001:00057bd0       _soap_end_send_flush       00458bd0 f   stdsoap2.obj
 0001:00057e14       _soap_end_recv             00458e14 f   stdsoap2.obj
 0001:0005806c       _soap_free_temp            0045906c f   stdsoap2.obj
 0001:00058364       _soap_open_logfile         00459364 f   stdsoap2.obj
 0001:000583ba       _soap_set_recv_logfile     004593ba f   stdsoap2.obj
 0001:000583bf       _soap_set_sent_logfile     004593bf f   stdsoap2.obj
 0001:000583c4       _soap_set_test_logfile     004593c4 f   stdsoap2.obj
 0001:000583c9       _soap_copy                 004593c9 f   stdsoap2.obj
 0001:000583e9       _soap_copy_context         004593e9 f   stdsoap2.obj
 0001:000586d1       _soap_copy_stream          004596d1 f   stdsoap2.obj
 0001:00058ca4       _soap_free_stream          00459ca4 f   stdsoap2.obj
 0001:00058cd0       _soap_initialize           00459cd0 f   stdsoap2.obj
 0001:00058ce5       _soap_init_LIBRARY_VERSION_REQUIRED_20816 00459ce5 f   stdsoap2.obj
 0001:000594d9       _soap_begin                0045a4d9 f   stdsoap2.obj
 0001:0005961e       _soap_end                  0045a61e f   stdsoap2.obj
 0001:0005969b       _soap_set_version          0045a69b f   stdsoap2.obj
 0001:0005970e       _soap_set_namespaces       0045a70e f   stdsoap2.obj
 0001:000598cc       _soap_set_local_namespaces 0045a8cc f   stdsoap2.obj
 0001:000599cd       _soap_tagsearch            0045a9cd f   stdsoap2.obj
 0001:00059a9f       _soap_lookup_ns            0045aa9f f   stdsoap2.obj
 0001:00059af3       _soap_element              0045aaf3 f   stdsoap2.obj
 0001:0005a5dc       _soap_element_begin_out    0045b5dc f   stdsoap2.obj
 0001:0005a625       _soap_array_begin_out      0045b625 f   stdsoap2.obj
 0001:0005a816       _soap_element_start_end_out 0045b816 f   stdsoap2.obj
 0001:0005ab5a       _soap_element_end_out      0045bb5a f   stdsoap2.obj
 0001:0005ac9d       _soap_element_ref          0045bc9d f   stdsoap2.obj
 0001:0005ad26       _soap_element_href         0045bd26 f   stdsoap2.obj
 0001:0005ad7e       _soap_element_null         0045bd7e f   stdsoap2.obj
 0001:0005ae6c       _soap_element_nil          0045be6c f   stdsoap2.obj
 0001:0005aecd       _soap_element_id           0045becd f   stdsoap2.obj
 0001:0005afe3       _soap_element_result       0045bfe3 f   stdsoap2.obj
 0001:0005b07e       _soap_check_result         0045c07e f   stdsoap2.obj
 0001:0005b0b5       _soap_attribute            0045c0b5 f   stdsoap2.obj
 0001:0005b1e0       _soap_element_begin_in     0045c1e0 f   stdsoap2.obj
 0001:0005b35b       _soap_element_end_in       0045c35b f   stdsoap2.obj
 0001:0005b5ad       _soap_attr_value           0045c5ad f   stdsoap2.obj
 0001:0005b678       _soap_set_attr             0045c678 f   stdsoap2.obj
 0001:0005baef       _soap_clr_attr             0045caef f   stdsoap2.obj
 0001:0005bb90       _soap_store_lab            0045cb90 f   stdsoap2.obj
 0001:0005bbb6       _soap_append_lab           0045cbb6 f   stdsoap2.obj
 0001:0005bced       _soap_peek_element         0045cced f   stdsoap2.obj
 0001:0005d287       _soap_retry                0045e287 f   stdsoap2.obj
 0001:0005d2a5       _soap_revert               0045e2a5 f   stdsoap2.obj
 0001:0005d2e7       _soap_string_out           0045e2e7 f   stdsoap2.obj
 0001:0005d732       _soap_string_in            0045e732 f   stdsoap2.obj
 0001:0005e86f       _soap_wstring_out          0045f86f f   stdsoap2.obj
 0001:0005ea9c       _soap_wstring_in           0045fa9c f   stdsoap2.obj
 0001:0005f04a       _soap_int2s                0046004a f   stdsoap2.obj
 0001:0005f05f       _soap_outint               0046005f f   stdsoap2.obj
 0001:0005f0d5       _soap_s2int                004600d5 f   stdsoap2.obj
 0001:0005f146       _soap_inint                00460146 f   stdsoap2.obj
 0001:0005f2d0       _soap_long2s               004602d0 f   stdsoap2.obj
 0001:0005f2f9       _soap_outlong              004602f9 f   stdsoap2.obj
 0001:0005f36f       _soap_s2long               0046036f f   stdsoap2.obj
 0001:0005f3d0       _soap_inlong               004603d0 f   stdsoap2.obj
 0001:0005f55a       _soap_LONG642s             0046055a f   stdsoap2.obj
 0001:0005f587       _soap_outLONG64            00460587 f   stdsoap2.obj
 0001:0005f601       _soap_s2LONG64             00460601 f   stdsoap2.obj
 0001:0005f63d       _soap_inLONG64             0046063d f   stdsoap2.obj
 0001:0005f897       _soap_byte2s               00460897 f   stdsoap2.obj
 0001:0005f8ad       _soap_outbyte              004608ad f   stdsoap2.obj
 0001:0005f924       _soap_s2byte               00460924 f   stdsoap2.obj
 0001:0005f986       _soap_inbyte               00460986 f   stdsoap2.obj
 0001:0005facf       _soap_short2s              00460acf f   stdsoap2.obj
 0001:0005fae5       _soap_outshort             00460ae5 f   stdsoap2.obj
 0001:0005fb5c       _soap_s2short              00460b5c f   stdsoap2.obj
 0001:0005fbc6       _soap_inshort              00460bc6 f   stdsoap2.obj
 0001:0005fd2b       _soap_float2s              00460d2b f   stdsoap2.obj
 0001:0005fdfb       _soap_outfloat             00460dfb f   stdsoap2.obj
 0001:0005fe71       _soap_s2float              00460e71 f   stdsoap2.obj
 0001:0005ff7d       _soap_infloat              00460f7d f   stdsoap2.obj
 0001:000602e5       _soap_double2s             004612e5 f   stdsoap2.obj
 0001:000603b2       _soap_outdouble            004613b2 f   stdsoap2.obj
 0001:0006042c       _soap_s2double             0046142c f   stdsoap2.obj
 0001:00060555       _soap_indouble             00461555 f   stdsoap2.obj
 0001:0006065c       _soap_unsignedByte2s       0046165c f   stdsoap2.obj
 0001:00060676       _soap_outunsignedByte      00461676 f   stdsoap2.obj
 0001:000606ee       _soap_s2unsignedByte       004616ee f   stdsoap2.obj
 0001:0006074d       _soap_inunsignedByte       0046174d f   stdsoap2.obj
 0001:00060896       _soap_unsignedShort2s      00461896 f   stdsoap2.obj
 0001:000608b0       _soap_outunsignedShort     004618b0 f   stdsoap2.obj
 0001:00060929       _soap_s2unsignedShort      00461929 f   stdsoap2.obj
 0001:0006098a       _soap_inunsignedShort      0046198a f   stdsoap2.obj
 0001:00060aef       _soap_unsignedInt2s        00461aef f   stdsoap2.obj
 0001:00060b04       _soap_outunsignedInt       00461b04 f   stdsoap2.obj
 0001:00060b7a       _soap_s2unsignedInt        00461b7a f   stdsoap2.obj
 0001:00060beb       _soap_inunsignedInt        00461beb f   stdsoap2.obj
 0001:00060d75       _soap_unsignedLong2s       00461d75 f   stdsoap2.obj
 0001:00060d9e       _soap_outunsignedLong      00461d9e f   stdsoap2.obj
 0001:00060e14       _soap_s2unsignedLong       00461e14 f   stdsoap2.obj
 0001:00060e85       _soap_inunsignedLong       00461e85 f   stdsoap2.obj
 0001:0006100f       _soap_ULONG642s            0046200f f   stdsoap2.obj
 0001:0006103c       _soap_outULONG64           0046203c f   stdsoap2.obj
 0001:000610b6       _soap_s2ULONG64            004620b6 f   stdsoap2.obj
 0001:000610f2       _soap_inULONG64            004620f2 f   stdsoap2.obj
 0001:000612e4       _soap_s2string             004622e4 f   stdsoap2.obj
 0001:000613ce       _soap_s2QName              004623ce f   stdsoap2.obj
 0001:000617b3       _soap_QName2s              004627b3 f   stdsoap2.obj
 0001:00061b3d       _soap_s2wchar              00462b3d f   stdsoap2.obj
 0001:00061dd3       _soap_wchar2s              00462dd3 f   stdsoap2.obj
 0001:00061fd5       _soap_outstring            00462fd5 f   stdsoap2.obj
 0001:000620a1       _soap_instring             004630a1 f   stdsoap2.obj
 0001:00062288       _soap_outwstring           00463288 f   stdsoap2.obj
 0001:00062356       _soap_inwstring            00463356 f   stdsoap2.obj
 0001:00062515       _soap_timegm               00463515 f   stdsoap2.obj
 0001:00062588       _soap_dateTime2s           00463588 f   stdsoap2.obj
 0001:000625ef       _soap_outdateTime          004635ef f   stdsoap2.obj
 0001:00062665       _soap_s2dateTime           00463665 f   stdsoap2.obj
 0001:000628d4       _soap_indateTime           004638d4 f   stdsoap2.obj
 0001:00062a1d       _soap_outliteral           00463a1d f   stdsoap2.obj
 0001:00062bfd       _soap_inliteral            00463bfd f   stdsoap2.obj
 0001:00062d4c       _soap_outwliteral          00463d4c f   stdsoap2.obj
 0001:00062f54       _soap_inwliteral           00463f54 f   stdsoap2.obj
 0001:000630b6       _soap_value                004640b6 f   stdsoap2.obj
 0001:000631f3       _soap_getline              004641f3 f   stdsoap2.obj
 0001:000635a2       _soap_dime_option          004645a2 f   stdsoap2.obj
 0001:00063639       _soap_putdimehdr           00464639 f   stdsoap2.obj
 0001:00063859       _soap_putdime              00464859 f   stdsoap2.obj
 0001:00063c15       _soap_getdimehdr           00464c15 f   stdsoap2.obj
 0001:00064050       _soap_getdime              00465050 f   stdsoap2.obj
 0001:0006468b       _soap_getmimehdr           0046568b f   stdsoap2.obj
 0001:000649c2       _soap_getmime              004659c2 f   stdsoap2.obj
 0001:000649e4       _soap_post_check_mime_attachments 004659e4 f   stdsoap2.obj
 0001:000649fb       _soap_check_mime_attachments 004659fb f   stdsoap2.obj
 0001:00064a28       _soap_get_mime_attachment  00465a28 f   stdsoap2.obj
 0001:00065016       _soap_match_cid            00466016 f   stdsoap2.obj
 0001:000651e3       _soap_putmimehdr           004661e3 f   stdsoap2.obj
 0001:00065350       _soap_putmime              00466350 f   stdsoap2.obj
 0001:000655b9       _soap_set_dime             004665b9 f   stdsoap2.obj
 0001:000655e7       _soap_set_mime             004665e7 f   stdsoap2.obj
 0001:00065647       _soap_clr_dime             00466647 f   stdsoap2.obj
 0001:00065675       _soap_clr_mime             00466675 f   stdsoap2.obj
 0001:00065764       _soap_set_dime_attachment  00466764 f   stdsoap2.obj
 0001:000657ec       _soap_set_mime_attachment  004667ec f   stdsoap2.obj
 0001:0006588e       _soap_next_multipart       0046688e f   stdsoap2.obj
 0001:00065a72       _soap_begin_serve          00466a72 f   stdsoap2.obj
 0001:00065af0       _soap_begin_recv           00466af0 f   stdsoap2.obj
 0001:0006665a       _soap_envelope_begin_out   0046765a f   stdsoap2.obj
 0001:00066841       _soap_envelope_end_out     00467841 f   stdsoap2.obj
 0001:00066a39       _soap_get_http_body        00467a39 f   stdsoap2.obj
 0001:00066b7c       _soap_envelope_begin_in    00467b7c f   stdsoap2.obj
 0001:00066d4d       _soap_envelope_end_in      00467d4d f   stdsoap2.obj
 0001:00066d7e       _soap_body_begin_out       00467d7e f   stdsoap2.obj
 0001:00066e02       _soap_body_end_out         00467e02 f   stdsoap2.obj
 0001:00066e44       _soap_body_begin_in        00467e44 f   stdsoap2.obj
 0001:00066ea4       _soap_body_end_in          00467ea4 f   stdsoap2.obj
 0001:00066ef5       _soap_recv_header          00467ef5 f   stdsoap2.obj
 0001:00066f5d       _soap_set_endpoint         00467f5d f   stdsoap2.obj
 0001:0006712d       _soap_connect              0046812d f   stdsoap2.obj
 0001:0006714b       _soap_connect_command      0046814b f   stdsoap2.obj
 0001:00067617       _soap_s2base64             00468617 f   stdsoap2.obj
 0001:000677d2       _soap_base642s             004687d2 f   stdsoap2.obj
 0001:00067a6d       _soap_s2hex                00468a6d f   stdsoap2.obj
 0001:00067b40       _soap_hex2s                00468b40 f   stdsoap2.obj
 0001:00067c83       _soap_puthttphdr           00468c83 f   stdsoap2.obj
 0001:00068124       _soap_set_fault            00469124 f   stdsoap2.obj
 0001:000688c6       _soap_send_fault           004698c6 f   stdsoap2.obj
 0001:00068b38       _soap_recv_fault           00469b38 f   stdsoap2.obj
 0001:00068d48       _soap_send_empty_response  00469d48 f   stdsoap2.obj
 0001:00068dd0       _soap_recv_empty_response  00469dd0 f   stdsoap2.obj
 0001:00068f77       _soap_set_sender_error     00469f77 f   stdsoap2.obj
 0001:00069036       _soap_set_receiver_error   0046a036 f   stdsoap2.obj
 0001:00069078       _soap_sender_fault         0046a078 f   stdsoap2.obj
 0001:00069093       _soap_sender_fault_subcode 0046a093 f   stdsoap2.obj
 0001:0006915b       _soap_receiver_fault       0046a15b f   stdsoap2.obj
 0001:00069176       _soap_receiver_fault_subcode 0046a176 f   stdsoap2.obj
 0001:000691b6       _soap_print_fault          0046a1b6 f   stdsoap2.obj
 0001:00069313       _soap_stream_fault         0046a313 f   stdsoap2.obj
 0001:00069521       _soap_sprint_fault         0046a521 f   stdsoap2.obj
 0001:0006976f       _soap_print_fault_location 0046a76f f   stdsoap2.obj
 0001:000698d4       _soap_register_plugin_arg  0046a8d4 f   stdsoap2.obj
 0001:000699d2       _soap_lookup_plugin        0046a9d2 f   stdsoap2.obj
 0001:000699eb       ??0soap@@QAE@XZ            0046a9eb f   stdsoap2.obj
 0001:00069a12       ??0soap@@QAE@_H@Z          0046aa12 f   stdsoap2.obj
 0001:00069a3f       ??0soap@@QAE@_H0@Z         0046aa3f f   stdsoap2.obj
 0001:00069a6c       ??0soap@@QAE@ABU0@@Z       0046aa6c f   stdsoap2.obj
 0001:00069a95       ??1soap@@UAE@XZ            0046aa95 f   stdsoap2.obj
 0001:00069ad0       ??4soap@@QAEAAU0@ABU0@@Z   0046aad0 f i stdsoap2.obj
 0001:0006ac70       ??_Gsoap@@UAEPAXI@Z        0046bc70 f i stdsoap2.obj
 0001:0006ac70       ??_Esoap@@UAEPAXI@Z        0046bc70 f i stdsoap2.obj
 0001:0006aca0       ??0CMainServer@@QAE@PBD00HHKK@Z 0046bca0 f   tcgament2:tcgsvr.obj
 0001:0006ace0       ??_GCMainServer@@UAEPAXI@Z 0046bce0 f i tcgament2:tcgsvr.obj
 0001:0006ace0       ??_ECMainServer@@UAEPAXI@Z 0046bce0 f i tcgament2:tcgsvr.obj
 0001:0006ad00       ??1CMainServer@@UAE@XZ     0046bd00 f   tcgament2:tcgsvr.obj
 0001:0006ad10       ?ConstructEnterGameOK@CMainServer@@UAEHHPAVCTable@@HHHPAVREQUEST@@@Z 0046bd10 f   tcgament2:tcgsvr.obj
 0001:0006ad60       ?ConstructEnterGameDXXW@CMainServer@@UAEHHPAVCTable@@HHHPAVREQUEST@@@Z 0046bd60 f   tcgament2:tcgsvr.obj
 0001:0006b240       ?LookupLevelName@CMainServer@@UAEXHPAD@Z 0046c240 f   tcgament2:tcgsvr.obj
 0001:0006b2b0       ?OnRequest@CMainServer@@MAEHPAX0@Z 0046c2b0 f   tcgament2:tcgsvr.obj
 0001:0006ba10       ?OnGamePulse@CMainServer@@MAEHPAU_tagCONTEXT_HEAD@@PAVREQUEST@@PAVCWorkerContext@@@Z 0046ca10 f   tcgament2:tcgsvr.obj
 0001:0006ba90       ?OnCloseSocket@CMainServer@@MAEHPAU_tagCONTEXT_HEAD@@PAVREQUEST@@PAVCWorkerContext@@@Z 0046ca90 f   tcgament2:tcgsvr.obj
 0001:0006c1e0       ?OnGetVersion@CMainServer@@MAEHPAU_tagCONTEXT_HEAD@@PAVREQUEST@@PAVCWorkerContext@@@Z 0046d1e0 f   tcgament2:tcgsvr.obj
 0001:0006c2d0       ?OnCheckNetwork@CMainServer@@MAEHPAU_tagCONTEXT_HEAD@@PAVREQUEST@@PAVCWorkerContext@@@Z 0046d2d0 f   tcgament2:tcgsvr.obj
 0001:0006c360       ?OnCallPlayer@CMainServer@@MAEHPAU_tagCONTEXT_HEAD@@PAVREQUEST@@PAVCWorkerContext@@@Z 0046d360 f   tcgament2:tcgsvr.obj
 0001:0006c650       ?OnChatToTable@CMainServer@@MAEHPAU_tagCONTEXT_HEAD@@PAVREQUEST@@PAVCWorkerContext@@@Z 0046d650 f   tcgament2:tcgsvr.obj
 0001:0006c9e0       ?IsForbidChatByExp@CMainServer@@UAEHPAVCTable@@HAAH@Z 0046d9e0 f   tcgament2:tcgsvr.obj
 0001:0006cae0       ?GetChatTags@CMainServer@@UAE?AVCString@@K@Z 0046dae0 f   tcgament2:tcgsvr.obj
 0001:0006cba0       ?OnChatToTableEx@CMainServer@@MAEHPAU_tagCONTEXT_HEAD@@PAVREQUEST@@PAVCWorkerContext@@@Z 0046dba0 f   tcgament2:tcgsvr.obj
 0001:0006d0a0       ?OnEnterMatch@CMainServer@@MAEHPAU_tagCONTEXT_HEAD@@PAVREQUEST@@PAVCWorkerContext@@@Z 0046e0a0 f   tcgament2:tcgsvr.obj
 0001:0006d290       ?OnEnterGame@CMainServer@@MAEHPAU_tagCONTEXT_HEAD@@PAVREQUEST@@PAVCWorkerContext@@@Z 0046e290 f   tcgament2:tcgsvr.obj
 0001:0006e3e0       ?OnLeaveGame@CMainServer@@MAEHPAU_tagCONTEXT_HEAD@@PAVREQUEST@@PAVCWorkerContext@@@Z 0046f3e0 f   tcgament2:tcgsvr.obj
 0001:0006ea10       ?OnLeaveGameEx@CMainServer@@MAEHPAU_tagCONTEXT_HEAD@@PAVREQUEST@@PAVCWorkerContext@@@Z 0046fa10 f   tcgament2:tcgsvr.obj
 0001:0006f520       ?OnLeaveMatch@CMainServer@@MAEHPAU_tagCONTEXT_HEAD@@PAVREQUEST@@PAVCWorkerContext@@@Z 00470520 f   tcgament2:tcgsvr.obj
 0001:0006f980       ?OnQueryBreak@CMainServer@@MAEHPAU_tagCONTEXT_HEAD@@PAVREQUEST@@PAVCWorkerContext@@@Z 00470980 f   tcgament2:tcgsvr.obj
 0001:0006fdc0       ?OnGetTableInfo@CMainServer@@MAEHPAU_tagCONTEXT_HEAD@@PAVREQUEST@@PAVCWorkerContext@@@Z 00470dc0 f   tcgament2:tcgsvr.obj
 0001:000700e0       ?OnAutoStartGame@CMainServer@@MAEHPAU_tagCONTEXT_HEAD@@PAVREQUEST@@PAVCWorkerContext@@@Z 004710e0 f   tcgament2:tcgsvr.obj
 0001:00070340       ?OnStartGame@CMainServer@@MAEHPAU_tagCONTEXT_HEAD@@PAVREQUEST@@PAVCWorkerContext@@@Z 00471340 f   tcgament2:tcgsvr.obj
 0001:00070730       ?OnStartGameEx@CMainServer@@MAEHPAU_tagCONTEXT_HEAD@@PAVREQUEST@@PAVCWorkerContext@@@Z 00471730 f   tcgament2:tcgsvr.obj
 0001:00070d00       ?OnGiveUpGame@CMainServer@@MAEHPAU_tagCONTEXT_HEAD@@PAVREQUEST@@PAVCWorkerContext@@@Z 00471d00 f   tcgament2:tcgsvr.obj
 0001:00070f50       ?OnPlayerOffline@CMainServer@@MAEXPAVCTable@@H@Z 00471f50 f   tcgament2:tcgsvr.obj
 0001:00071010       ?OnGameStarted@CMainServer@@MAEHPAVCTable@@K@Z 00472010 f   tcgament2:tcgsvr.obj
 0001:000717d0       ?OnGameOverTime@CMainServer@@MAEHPAU_tagCONTEXT_HEAD@@PAVCRoom@@PAVCTable@@@Z 004727d0 f   tcgament2:tcgsvr.obj
 0001:00071820       ?OnGameWin@CMainServer@@MAEHPAU_tagCONTEXT_HEAD@@PAVCRoom@@PAVCTable@@HHH@Z 00472820 f   tcgament2:tcgsvr.obj
 0001:00071a00       ?OnGameWinDelay@CMainServer@@MAEHPAU_tagCONTEXT_HEAD@@PAVREQUEST@@PAVCWorkerContext@@@Z 00472a00 f   tcgament2:tcgsvr.obj
 0001:00071bf0       ?OnGameWinWithDelay@CMainServer@@MAEHPAU_tagCONTEXT_HEAD@@PAVCRoom@@PAVCTable@@HHHPAU_tagGAME_WIN_DELAY@@@Z 00472bf0 f   tcgament2:tcgsvr.obj
 0001:00071cc0       ?OnMatchGameWin@CMainServer@@MAEHPAU_tagCONTEXT_HEAD@@PAVCRoom@@PAVCTable@@HHH@Z 00472cc0 f   tcgament2:tcgsvr.obj
 0001:00072050       ?OnClientCrash@CMainServer@@MAEHPAU_tagCONTEXT_HEAD@@PAVREQUEST@@PAVCWorkerContext@@@Z 00473050 f   tcgament2:tcgsvr.obj
 0001:000722a0       ?OnTellHomeInfoOnDXXW@CMainServer@@MAEHPAU_tagCONTEXT_HEAD@@HPAVCTable@@@Z 004732a0 f   tcgament2:tcgsvr.obj
 0001:00072350       ?OnSynchSocallyInfo@CMainServer@@MAEHPAU_tagCONTEXT_HEAD@@PAVREQUEST@@PAVCWorkerContext@@@Z 00473350 f   tcgament2:tcgsvr.obj
 0001:000726a0       ?OnTooManyAuto@CMainServer@@MAEHHHHHIJ@Z 004736a0 f   tcgament2:tcgsvr.obj
 0001:000726d0       ?OnTooManyBreak@CMainServer@@MAEHHHHHIJ@Z 004736d0 f   tcgament2:tcgsvr.obj
 0001:00072700       ?LookOnNoPlaying@CMainServer@@MAEHXZ 00473700 f   tcgament2:tcgsvr.obj
 0001:00072710       ?EjectLeaveGame@CMainServer@@UAEHHHHHIJ@Z 00473710 f   tcgament2:tcgsvr.obj
 0001:000727d0       ?EjectLeaveGameEx@CMainServer@@UAEHHHHHIJ@Z 004737d0 f   tcgament2:tcgsvr.obj
 0001:00072890       ?EjectStartGame@CMainServer@@UAEHHHHHIJ@Z 00473890 f   tcgament2:tcgsvr.obj
 0001:00072970       ?CheckInGameResult@CMainServer@@MAEXPAU_tagCONTEXT_HEAD@@PAVCTable@@PAXHH@Z 00473970 f   tcgament2:tcgsvr.obj
 0001:00072b30       ?CheckGameResults@CMainServer@@MAEHPAU_tagREFRESH_RESULT_EX@@PAU_tagGAME_RESULT_EX@@H@Z 00473b30 f   tcgament2:tcgsvr.obj
 0001:00072b90       ?OpeAfterCheckResult@CMainServer@@MAEXPAVCTable@@PAXHHH@Z 00473b90 f   tcgament2:tcgsvr.obj
 0001:00072d30       ?VerifySenderInfo@CMainServer@@MAEHPAVCTable@@PAU_tagSENDER_INFO@@@Z 00473d30 f   tcgament2:tcgsvr.obj
 0001:00072e20       ?RemoveClients@CMainServer@@MAEHPAVCTable@@JHH@Z 00473e20 f   tcgament2:tcgsvr.obj
 0001:00072f30       ?RemoveOneClients@CMainServer@@MAEHPAVCTable@@HH@Z 00473f30 f   tcgament2:tcgsvr.obj
 0001:00073040       ?ClearMatchTable@CMainServer@@MAEXPAVCRoom@@PAVCTable@@@Z 00474040 f   tcgament2:tcgsvr.obj
 0001:00073240       ?OnMatchPlayerOK@CMainServer@@MAEHPAU_tagCONTEXT_HEAD@@PAVREQUEST@@PAVCWorkerContext@@@Z 00474240 f   tcgament2:tcgsvr.obj
 0001:000732b0       ?NotifyOverTime@CMainServer@@MAEXPAU_tagMATCH_OVERTIME@@@Z 004742b0 f   tcgament2:tcgsvr.obj
 0001:00073420       ?DisableUnActiveTable@CMainServer@@MAEXPAVCRoom@@PAVCTable@@@Z 00474420 f   tcgament2:tcgsvr.obj
 0001:00073470       ?VerifyOnlyOneGame@CMainServer@@MAEHHHHHIJ@Z 00474470 f   tcgament2:tcgsvr.obj
 0001:000737e0       ?OnGameUnableContinue@CMainServer@@UAEHPAVCTable@@PBD@Z 004747e0 f   tcgament2:tcgsvr.obj
 0001:000738c0       ?OnEnterGameDXXW@CMainServer@@MAEHPAU_tagCONTEXT_HEAD@@PAU_tagENTER_GAME_EX@@@Z 004748c0 f   tcgament2:tcgsvr.obj
 0001:000738d0       ?OnAskExit@CMainServer@@MAEHPAU_tagCONTEXT_HEAD@@PAVREQUEST@@PAVCWorkerContext@@@Z 004748d0 f   tcgament2:tcgsvr.obj
 0001:00073bc0       ?OnAllowExit@CMainServer@@MAEHPAU_tagCONTEXT_HEAD@@PAVREQUEST@@PAVCWorkerContext@@@Z 00474bc0 f   tcgament2:tcgsvr.obj
 0001:00074040       ?BulidScoreResults@CMainServer@@MAEXPAVCTable@@PAVCPlayer@@AAU_tagGAME_RESULT_EX@@HH@Z 00475040 f   tcgament2:tcgsvr.obj
 0001:00074120       ?BulidDepositResults@CMainServer@@MAEXPAVCTable@@PAVCPlayer@@PAU_tagGAME_RESULT_EX@@HH@Z 00475120 f   tcgament2:tcgsvr.obj
 0001:00074210       ?VerifyRoomTableChair@CMainServer@@MAEHHHHH@Z 00475210 f   tcgament2:tcgsvr.obj
 0001:00074290       ?OnMatchUnableContinue@CMainServer@@UAEHPAVCTable@@PBD@Z 00475290 f   tcgament2:tcgsvr.obj
 0001:00074370       ?IsNeedWaitArrageTable@CMainServer@@UAEHPAVCTable@@HH@Z 00475370 f   tcgament2:tcgsvr.obj
 0001:00074420       ?OnAskCardView@CMainServer@@UAEHPAU_tagCONTEXT_HEAD@@PAVREQUEST@@PAVCWorkerContext@@@Z 00475420 f   tcgament2:tcgsvr.obj
 0001:00074650       ?OnAllowCardView@CMainServer@@UAEHPAU_tagCONTEXT_HEAD@@PAVREQUEST@@PAVCWorkerContext@@@Z 00475650 f   tcgament2:tcgsvr.obj
 0001:00074940       ?OnSyncStartCountdown@CMainServer@@UAEHPAU_tagCONTEXT_HEAD@@PAVREQUEST@@PAVCWorkerContext@@@Z 00475940 f   tcgament2:tcgsvr.obj
 0001:00074ca0       ?IsAllowStartGame@CMainServer@@UAEHPAVCTable@@H@Z 00475ca0 f   tcgament2:tcgsvr.obj
 0001:00074d10       ?GetMinPlayerCount@CMainServer@@UAEHPAVCTable@@H@Z 00475d10 f   tcgament2:tcgsvr.obj
 0001:00074d60       ?GetCountdown@CMainServer@@UAEHPAVCTable@@H@Z 00475d60 f   tcgament2:tcgsvr.obj
 0001:00074dd0       ?OnUserBoutEnd@CMainServer@@UAEHPAU_tagCONTEXT_HEAD@@PAVCRoom@@PAVCTable@@HHH@Z 00475dd0 f   tcgament2:tcgsvr.obj
 0001:00074ff0       ?NotifyUserBoutEnd@CMainServer@@UAEXPAVCTable@@PAU_tagUser_BoutEnd@@J@Z 00475ff0 f   tcgament2:tcgsvr.obj
 0001:00075050       ?TransmitBreakResult@CMainServer@@UAEXPAU_tagCONTEXT_HEAD@@PAVCTable@@PAVCPlayer@@AAU_tagGAME_ABORT@@HHH@Z 00476050 f   tcgament2:tcgsvr.obj
 0001:00075340       ?TransmitBreakResultEx@CMainServer@@UAEXPAU_tagCONTEXT_HEAD@@PAVCTable@@PAVCPlayer@@AAU_tagGAME_ABORT@@HHH@Z 00476340 f   tcgament2:tcgsvr.obj
 0001:000756f0       ?KickOffTooManyIdlePlayer@CMainServer@@UAEXPAVCTable@@H@Z 004766f0 f   tcgament2:tcgsvr.obj
 0001:00075820       ?GetMinPlayingDeposit@CMainServer@@UAEHPAVCTable@@H@Z 00476820 f   tcgament2:tcgsvr.obj
 0001:000758d0       ?xyRetrieveFields2@@YAHPADPAPADH1D@Z 004768d0 f   tcgament2:tcgsvr.obj
 0001:00075940       ?MB_OnGetVersion@CMainServer@@MAEHPAU_tagCONTEXT_HEAD@@PAVREQUEST@@PAVCWorkerContext@@@Z 00476940 f   tcgament2:tcgsvr.obj
 0001:00075ad0       ?MB_OnCheckVersion@CMainServer@@MAEHPAU_tagCONTEXT_HEAD@@PAVREQUEST@@PAVCWorkerContext@@@Z 00476ad0 f   tcgament2:tcgsvr.obj
 0001:00075dc0       ?MB_OnEnterBackground@CMainServer@@MAEHPAU_tagCONTEXT_HEAD@@PAVREQUEST@@PAVCWorkerContext@@@Z 00476dc0 f   tcgament2:tcgsvr.obj
 0001:000760b0       ?MB_OnEnterForeground@CMainServer@@MAEHPAU_tagCONTEXT_HEAD@@PAVREQUEST@@PAVCWorkerContext@@@Z 004770b0 f   tcgament2:tcgsvr.obj
 0001:00076320       ?NotifyServiceFee@CMainServer@@UAEXPAVCTable@@@Z 00477320 f   tcgament2:tcgsvr.obj
 0001:00076510       ?NotifyScoreProtect@CMainServer@@UAEXPAVCTable@@@Z 00477510 f   tcgament2:tcgsvr.obj
 0001:000765a0       ?NotifySoloPlayerRealData@CMainServer@@UAEXPAVCTable@@@Z 004775a0 f   tcgament2:tcgsvr.obj
 0001:00076690       ?OnPlayerEnterGame@CMainServer@@UAEHPAU_tagCONTEXT_HEAD@@PAU_tagENTER_GAME_OK_EX@@PAVREQUEST@@@Z 00477690 f   tcgament2:tcgsvr.obj
 0001:00076a80       ?NTF_OnPlayerEnterGame@CMainServer@@UAEXPAU_tagCONTEXT_HEAD@@PAU_tagENTER_GAME_OK_EX@@PAVREQUEST@@PAVCTable@@PAVCPlayer@@@Z 00477a80 f   tcgament2:tcgsvr.obj
 0001:00076d40       ?GetInfo_OnPlayerEnterGame@CMainServer@@UAEXPAU_tagCONTEXT_HEAD@@PAU_tagENTER_GAME_OK_EX@@PAVREQUEST@@PAVCTable@@PAVCPlayer@@@Z 00477d40 f   tcgament2:tcgsvr.obj
 0001:00076d80       ?CalcEnterUserDatelen@CMainServer@@UAEHPAVCRoom@@PAVCTable@@PAVCPlayer@@@Z 00477d80 f   tcgament2:tcgsvr.obj
 0001:00076de0       ?CopyEnterUserData@CMainServer@@UAEXPAVCRoom@@PAVCTable@@PAVCPlayer@@PAEH@Z 00477de0 f   tcgament2:tcgsvr.obj
 0001:00077090       ?OnNewTableChair@CMainServer@@MAEHHHHH@Z 00478090 f   tcgament2:tcgsvr.obj
 0001:000776a0       ?OnAskNewTableChair@CMainServer@@UAEHPAU_tagCONTEXT_HEAD@@PAVREQUEST@@PAVCWorkerContext@@@Z 004786a0 f   tcgament2:tcgsvr.obj
 0001:00077a30       ?GetAskNewTableTimeSpan@CMainServer@@UAEHXZ 00478a30 f   tcgament2:tcgsvr.obj
 0001:00077a50       ?VerifyAskNewTableChair@CMainServer@@UAEHH@Z 00478a50 f   tcgament2:tcgsvr.obj
 0001:00077be0       ?CanChangeTableInGame@CMainServer@@UAEHHPAVCPlayer@@@Z 00478be0 f   tcgament2:tcgsvr.obj
 0001:00077c60       ?NeedResetTblWhileChangeTbl@CMainServer@@UAEHHPAVCPlayer@@@Z 00478c60 f   tcgament2:tcgsvr.obj
 0001:00077c80       ?OnAskRandomTable@CMainServer@@UAEHPAU_tagCONTEXT_HEAD@@PAVREQUEST@@PAVCWorkerContext@@@Z 00478c80 f   tcgament2:tcgsvr.obj
 0001:00078210       ?IsCheckDepositMin@CMainServer@@UAEHH@Z 00479210 f   tcgament2:tcgsvr.obj
 0001:00078240       ?IsCheckDepositMax@CMainServer@@UAEHH@Z 00479240 f   tcgament2:tcgsvr.obj
 0001:00078270       ?MoveUserToChair@CMainServer@@MAEHHHHPAU_tagSOLO_PLAYER@@@Z 00479270 f   tcgament2:tcgsvr.obj
 0001:00078a00       ?StartSoloTable@CMainServer@@MAEHPAU_tagSTART_SOLOTABLE@@@Z 00479a00 f   tcgament2:tcgsvr.obj
 0001:000795f0       ?SoapThreadProc@CMainServer@@MAEIPAX@Z 0047a5f0 f   tcgament2:tcgsvr.obj
 0001:00079a20       ?DealSoapMessage@CMainServer@@UAEHPAU_tagSOAP_SERVICE@@AAV?$_com_ptr_t@V?$_com_IIID@UIXYSoapClient@XYSOAPCLIENTLib@@$1?_GUID_56fdbc41_47d1_4175_8116_487b0cb069d7@@3U__s_GUID@@A@@@@PAU_tagCONTEXT_HEAD@@PAVREQUEST@@@Z 0047aa20 f   tcgament2:tcgsvr.obj
 0001:00079be0       ?DealApplyBaseWelfare@CMainServer@@UAEHPAU_tagSOAP_SERVICE@@AAV?$_com_ptr_t@V?$_com_IIID@UIXYSoapClient@XYSOAPCLIENTLib@@$1?_GUID_56fdbc41_47d1_4175_8116_487b0cb069d7@@3U__s_GUID@@A@@@@PAU_tagCONTEXT_HEAD@@PAVREQUEST@@@Z 0047abe0 f   tcgament2:tcgsvr.obj
 0001:0007a1c0       ?DealApplyBaseWelfareEx@CMainServer@@UAEHPAU_tagSOAP_SERVICE@@AAV?$_com_ptr_t@V?$_com_IIID@UIXYSoapClient@XYSOAPCLIENTLib@@$1?_GUID_56fdbc41_47d1_4175_8116_487b0cb069d7@@3U__s_GUID@@A@@@@PAU_tagCONTEXT_HEAD@@PAVREQUEST@@@Z 0047b1c0 f   tcgament2:tcgsvr.obj
 0001:0007a840       ?DealGetWelfareConfig@CMainServer@@UAEHPAU_tagSOAP_SERVICE@@AAV?$_com_ptr_t@V?$_com_IIID@UIXYSoapClient@XYSOAPCLIENTLib@@$1?_GUID_56fdbc41_47d1_4175_8116_487b0cb069d7@@3U__s_GUID@@A@@@@PAU_tagCONTEXT_HEAD@@PAVREQUEST@@@Z 0047b840 f   tcgament2:tcgsvr.obj
 0001:0007abc0       ?DealGetLotteryUser@CMainServer@@UAEHPAU_tagSOAP_SERVICE@@AAV?$_com_ptr_t@V?$_com_IIID@UIXYSoapClient@XYSOAPCLIENTLib@@$1?_GUID_56fdbc41_47d1_4175_8116_487b0cb069d7@@3U__s_GUID@@A@@@@PAU_tagCONTEXT_HEAD@@PAVREQUEST@@@Z 0047bbc0 f   tcgament2:tcgsvr.obj
 0001:0007af10       ?DealSetLotteryUser@CMainServer@@UAEHPAU_tagSOAP_SERVICE@@AAV?$_com_ptr_t@V?$_com_IIID@UIXYSoapClient@XYSOAPCLIENTLib@@$1?_GUID_56fdbc41_47d1_4175_8116_487b0cb069d7@@3U__s_GUID@@A@@@@PAU_tagCONTEXT_HEAD@@PAVREQUEST@@@Z 0047bf10 f   tcgament2:tcgsvr.obj
 0001:0007b2a0       ?DealDrawLottery@CMainServer@@UAEHPAU_tagSOAP_SERVICE@@AAV?$_com_ptr_t@V?$_com_IIID@UIXYSoapClient@XYSOAPCLIENTLib@@$1?_GUID_56fdbc41_47d1_4175_8116_487b0cb069d7@@3U__s_GUID@@A@@@@PAU_tagCONTEXT_HEAD@@PAVREQUEST@@@Z 0047c2a0 f   tcgament2:tcgsvr.obj
 0001:0007b5e0       ?DealDrawLotryToGame@CMainServer@@UAEHPAU_tagSOAP_SERVICE@@AAV?$_com_ptr_t@V?$_com_IIID@UIXYSoapClient@XYSOAPCLIENTLib@@$1?_GUID_56fdbc41_47d1_4175_8116_487b0cb069d7@@3U__s_GUID@@A@@@@PAU_tagCONTEXT_HEAD@@PAVREQUEST@@@Z 0047c5e0 f   tcgament2:tcgsvr.obj
 0001:0007b920       ?DealTaskToGame@CMainServer@@UAEHPAU_tagSOAP_SERVICE@@AAV?$_com_ptr_t@V?$_com_IIID@UIXYSoapClient@XYSOAPCLIENTLib@@$1?_GUID_56fdbc41_47d1_4175_8116_487b0cb069d7@@3U__s_GUID@@A@@@@PAU_tagCONTEXT_HEAD@@PAVREQUEST@@@Z 0047c920 f   tcgament2:tcgsvr.obj
 0001:0007bcc0       ?DealSelfMessage@CMainServer@@UAEHPAU_tagSOAP_SERVICE@@AAV?$_com_ptr_t@V?$_com_IIID@UIXYSoapClient@XYSOAPCLIENTLib@@$1?_GUID_56fdbc41_47d1_4175_8116_487b0cb069d7@@3U__s_GUID@@A@@@@PAU_tagCONTEXT_HEAD@@PAVREQUEST@@@Z 0047ccc0 f   tcgament2:tcgsvr.obj
 0001:0007bcd0       ?NotifyLotryGetInfo@CMainServer@@UAEHPAU_tagCONTEXT_HEAD@@PAU_tagLOTTERY_READ_OK@@PBD@Z 0047ccd0 f   tcgament2:tcgsvr.obj
 0001:0007bd60       ?NotifyTableLotrySetInfo@CMainServer@@UAEHPAU_tagLOTTERY_TABLE_WRITE@@QAU_tagLOTTERY_WRITE_OK@@PBD@Z 0047cd60 f   tcgament2:tcgsvr.obj
 0001:0007be50       ?NotifyLotryDrawError@CMainServer@@UAEHPAU_tagCONTEXT_HEAD@@PBD@Z 0047ce50 f   tcgament2:tcgsvr.obj
 0001:0007bf00       ?NotifyTaskAwardError@CMainServer@@UAEHPAU_tagCONTEXT_HEAD@@PBD@Z 0047cf00 f   tcgament2:tcgsvr.obj
 0001:0007bf90       ?ModifyPlayerDepositAndNTF@CMainServer@@UAEHHHHHH@Z 0047cf90 f   tcgament2:tcgsvr.obj
 0001:0007c190       ?ModifyPlayerScoreAndNTF@CMainServer@@UAEHHHHHH@Z 0047d190 f   tcgament2:tcgsvr.obj
 0001:0007c390       ?CreateSoapThreads@CMainServer@@UAEXXZ 0047d390 f   tcgament2:tcgsvr.obj
 0001:0007c3e0       ?InitSoapConfig@CMainServer@@UAEHXZ 0047d3e0 f   tcgament2:tcgsvr.obj
 0001:0007c570       ?PostSoapRequest@CMainServer@@UAEHIPAU_tagCONTEXT_HEAD@@PAVREQUEST@@@Z 0047d570 f   tcgament2:tcgsvr.obj
 0001:0007c650       ?GetApplyWelErrorMsg@CMainServer@@UAEXHPAD@Z 0047d650 f   tcgament2:tcgsvr.obj
 0001:0007c730       ?OpeAfterApplyWelfare@CMainServer@@UAEHPAU_tagCONTEXT_HEAD@@PAU_tagAPPLY_BASEWELFARE@@@Z 0047d730 f   tcgament2:tcgsvr.obj
 0001:0007c740       ?OpeAfterApplyWelfareEx@CMainServer@@UAEHPAU_tagCONTEXT_HEAD@@PAU_tagAPPLY_BASEWELFARE_EX@@@Z 0047d740 f   tcgament2:tcgsvr.obj
 0001:0007c7f0       ?OnApplyBaseWelfare@CMainServer@@UAEHPAU_tagCONTEXT_HEAD@@PAVREQUEST@@PAVCWorkerContext@@@Z 0047d7f0 f   tcgament2:tcgsvr.obj
 0001:0007cb60       ?OnApplyBaseWelfareOK@CMainServer@@UAEHPAU_tagCONTEXT_HEAD@@PAVREQUEST@@PAVCWorkerContext@@@Z 0047db60 f   tcgament2:tcgsvr.obj
 0001:0007cc50       ?OnApplyBaseWelfareEx@CMainServer@@UAEHPAU_tagCONTEXT_HEAD@@PAVREQUEST@@PAVCWorkerContext@@@Z 0047dc50 f   tcgament2:tcgsvr.obj
 0001:0007cfc0       ?OnApplyBaseWelfareExOK@CMainServer@@UAEHPAU_tagCONTEXT_HEAD@@PAVREQUEST@@PAVCWorkerContext@@@Z 0047dfc0 f   tcgament2:tcgsvr.obj
 0001:0007d0b0       ?OnGetWelfareConfig@CMainServer@@UAEHPAU_tagCONTEXT_HEAD@@PAVREQUEST@@PAVCWorkerContext@@@Z 0047e0b0 f   tcgament2:tcgsvr.obj
 0001:0007d250       ?OnGetWelfareConfigOK@CMainServer@@UAEHPAU_tagCONTEXT_HEAD@@PAVREQUEST@@PAVCWorkerContext@@@Z 0047e250 f   tcgament2:tcgsvr.obj
 0001:0007d460       ?IsBaseWelfareActive@CMainServer@@UAEHXZ 0047e460 f   tcgament2:tcgsvr.obj
 0001:0007d480       ?NeedUpdateWelfareConfig@CMainServer@@UAEHXZ 0047e480 f   tcgament2:tcgsvr.obj
 0001:0007d540       ?SetUpdateWelfareConfig@CMainServer@@UAEXH@Z 0047e540 f   tcgament2:tcgsvr.obj
 0001:0007d590       ?NotifyPlayersSomeoneAskExit@CMainServer@@UAEXPAVCTable@@PAU_tagASK_EXIT@@J@Z 0047e590 f   tcgament2:tcgsvr.obj
 0001:0007d5c0       ?GetThreadIDBySoapFlag@CMainServer@@UAEIK@Z 0047e5c0 f   tcgament2:tcgsvr.obj
 0001:0007d620       ?GetThreadIndexBySoapFlag@CMainServer@@UAEIK@Z 0047e620 f   tcgament2:tcgsvr.obj
 0001:0007d670       ?IsBoutLotteryActive@CMainServer@@UAEHXZ 0047e670 f   tcgament2:tcgsvr.obj
 0001:0007d690       ?IsTaskToGameActive@CMainServer@@UAEHXZ 0047e690 f   tcgament2:tcgsvr.obj
 0001:0007d6b0       ?OnGetLotteryUser@CMainServer@@UAEHPAU_tagCONTEXT_HEAD@@PAVREQUEST@@PAVCWorkerContext@@@Z 0047e6b0 f   tcgament2:tcgsvr.obj
 0001:0007d8d0       ?OnGetLotteryUserOK@CMainServer@@UAEHPAU_tagCONTEXT_HEAD@@PAVREQUEST@@PAVCWorkerContext@@@Z 0047e8d0 f   tcgament2:tcgsvr.obj
 0001:0007dc50       ??1Reader@Json@@QAE@XZ     0047ec50 f i tcgament2:tcgsvr.obj
 0001:0007de70       ??1?$stack@PAVValue@Json@@V?$deque@PAVValue@Json@@V?$allocator@PAVValue@Json@@@std@@@std@@@std@@QAE@XZ 0047ee70 f i tcgament2:tcgsvr.obj
 0001:0007df20       ?OnSetLotteryTableUser@CMainServer@@UAEHPAU_tagCONTEXT_HEAD@@PAVREQUEST@@PAVCWorkerContext@@@Z 0047ef20 f   tcgament2:tcgsvr.obj
 0001:0007e160       ?OnSetLotteryUserOK@CMainServer@@UAEHPAU_tagCONTEXT_HEAD@@PAVREQUEST@@PAVCWorkerContext@@@Z 0047f160 f   tcgament2:tcgsvr.obj
 0001:0007e5d0       ?OnDrawLottery@CMainServer@@UAEHPAU_tagCONTEXT_HEAD@@PAVREQUEST@@PAVCWorkerContext@@@Z 0047f5d0 f   tcgament2:tcgsvr.obj
 0001:0007e810       ?OnDrawLotteryOK@CMainServer@@UAEHPAU_tagCONTEXT_HEAD@@PAVREQUEST@@PAVCWorkerContext@@@Z 0047f810 f   tcgament2:tcgsvr.obj
 0001:0007ecd0       ?OnDrawLotryToGame@CMainServer@@UAEHPAU_tagCONTEXT_HEAD@@PAVREQUEST@@PAVCWorkerContext@@@Z 0047fcd0 f   tcgament2:tcgsvr.obj
 0001:0007f020       ?OnDrawLotryToGameOK@CMainServer@@UAEHPAU_tagCONTEXT_HEAD@@PAVREQUEST@@PAVCWorkerContext@@@Z 00480020 f   tcgament2:tcgsvr.obj
 0001:0007f640       ?FillupTaskToGame@CMainServer@@UAEHPAU_tagTASK_TOGAME@@@Z 00480640 f   tcgament2:tcgsvr.obj
 0001:0007f740       ?OnTaskToGame@CMainServer@@UAEHPAU_tagCONTEXT_HEAD@@PAVREQUEST@@PAVCWorkerContext@@@Z 00480740 f   tcgament2:tcgsvr.obj
 0001:0007fae0       ?OnTaskToGameOK@CMainServer@@UAEHPAU_tagCONTEXT_HEAD@@PAVREQUEST@@PAVCWorkerContext@@@Z 00480ae0 f   tcgament2:tcgsvr.obj
 0001:0007fe60       ?Lottery_LoadData@CMainServer@@UAEXPAU_tagCONTEXT_HEAD@@PAVCTable@@PAVCPlayer@@H@Z 00480e60 f   tcgament2:tcgsvr.obj
 0001:0007ff40       ?Lottery_SaveData@CMainServer@@UAEXPAU_tagCONTEXT_HEAD@@PAVCTable@@HH@Z 00480f40 f   tcgament2:tcgsvr.obj
 0001:000800d0       ?GetAwardStrByType@CMainServer@@UAE?AVCString@@H@Z 004810d0 f   tcgament2:tcgsvr.obj
 0001:000801c0       ?NeedBroadcastLotry@CMainServer@@UAEHPAU_tagLOTTERY_DRAW_OK@@@Z 004811c0 f   tcgament2:tcgsvr.obj
 0001:000801d0       ?BroadCast_Lottery@CMainServer@@UAEHIJPAU_tagLOTTERY_DRAW@@PAU_tagLOTTERY_DRAW_OK@@@Z 004811d0 f   tcgament2:tcgsvr.obj
 0001:000802a0       ?AddToBroadcastQueue@CMainServer@@UAEXAAU_tagBROAD_CAST@@@Z 004812a0 f   tcgament2:tcgsvr.obj
 0001:00080380       ?CreateBroadcastThread@CMainServer@@UAEHXZ 00481380 f   tcgament2:tcgsvr.obj
 0001:00080400       ?GetBroadCastInterval@CMainServer@@UAEHXZ 00481400 f   tcgament2:tcgsvr.obj
 0001:00080430       ?GetBroadCastMsgByType@CMainServer@@UAEIK@Z 00481430 f   tcgament2:tcgsvr.obj
 0001:00080450       ?BroadCast@CMainServer@@UAEHPAU_tagBROAD_CAST@@@Z 00481450 f   tcgament2:tcgsvr.obj
 0001:00080640       ?TakeDepositBonusToGame@CMainServer@@UAEHPAU_tagCONTEXT_HEAD@@AAU_tagTAKE_DEPOSIT_BONUS@@@Z 00481640 f   tcgament2:tcgsvr.obj
 0001:000806c0       ?SetOneUserTakingBonus@CMainServer@@UAEHPAU_tagCONTEXT_HEAD@@HHHHH@Z 004816c0 f   tcgament2:tcgsvr.obj
 0001:00080880       ?OnTakeGameDepositBonusOK@CMainServer@@UAEHPAU_tagCONTEXT_HEAD@@PAVREQUEST@@1@Z 00481880 f   tcgament2:tcgsvr.obj
 0001:00080b40       ?OnTakeGameDepositBonusFail@CMainServer@@UAEHPAU_tagCONTEXT_HEAD@@PAVREQUEST@@1@Z 00481b40 f   tcgament2:tcgsvr.obj
 0001:00080ba0       ?NotifyTakeBonusInfo@CMainServer@@UAEHPAU_tagCONTEXT_HEAD@@PAVREQUEST@@KPBD@Z 00481ba0 f   tcgament2:tcgsvr.obj
 0001:00080c10       ?GetMaxGameWinDelay@CMainServer@@UAEHXZ 00481c10 f   tcgament2:tcgsvr.obj
 0001:00080c20       ?NeedEnterWaitGameWin@CMainServer@@UAEHHHHHJH@Z 00481c20 f   tcgament2:tcgsvr.obj
 0001:00080d20       ?NeedLeaveWaitGameWin@CMainServer@@UAEHHHHHJ@Z 00481d20 f   tcgament2:tcgsvr.obj
 0001:00080e60       ?NeedGameWinDelay@CMainServer@@MAEHPAU_tagCONTEXT_HEAD@@PAVCTable@@HHH@Z 00481e60 f   tcgament2:tcgsvr.obj
 0001:00080ec0       ?ConstructDelayGameWin@CMainServer@@MAEHPAU_tagCONTEXT_HEAD@@PAVCTable@@HHHAAU_tagGAME_WIN_DELAY@@K@Z 00481ec0 f   tcgament2:tcgsvr.obj
 0001:00080f90       ?DelayGameWin@CMainServer@@MAEHPAU_tagCONTEXT_HEAD@@PAVCTable@@PAU_tagGAME_WIN_DELAY@@K@Z 00481f90 f   tcgament2:tcgsvr.obj
 0001:00081080       ?AddToGameWinDelay@CMainServer@@MAEXAAU_tagGAME_WIN_DELAY@@@Z 00482080 f   tcgament2:tcgsvr.obj
 0001:00081120       ?CalcResultWinOrLoss@CMainServer@@MAEXPAXHPAVCTable@@@Z 00482120 f   tcgament2:tcgsvr.obj
 0001:00081200       ??1?$deque@VErrorInfo@Reader@Json@@V?$allocator@VErrorInfo@Reader@Json@@@std@@@std@@QAE@XZ 00482200 f i tcgament2:tcgsvr.obj
 0001:000812b0       ??1?$_com_ptr_t@V?$_com_IIID@UIXYSoapClient@XYSOAPCLIENTLib@@$1?_GUID_56fdbc41_47d1_4175_8116_487b0cb069d7@@3U__s_GUID@@A@@@@QAE@XZ 004822b0 f i tcgament2:tcgsvr.obj
 0001:000812c0       ??C?$_com_ptr_t@V?$_com_IIID@UIXYSoapClient@XYSOAPCLIENTLib@@$1?_GUID_56fdbc41_47d1_4175_8116_487b0cb069d7@@3U__s_GUID@@A@@@@QBEPAUIXYSoapClient@XYSOAPCLIENTLib@@XZ 004822c0 f i tcgament2:tcgsvr.obj
 0001:000812e0       ??1?$list@U_tagIDSOCKTOKEN@@V?$allocator@U_tagIDSOCKTOKEN@@@std@@@std@@QAE@XZ 004822e0 f i tcgament2:tcgsvr.obj
 0001:00081330       ?pop_front@?$deque@PAVValue@Json@@V?$allocator@PAVValue@Json@@@std@@@std@@QAEXXZ 00482330 f i tcgament2:tcgsvr.obj
 0001:000813c0       ?pop_front@?$deque@VErrorInfo@Reader@Json@@V?$allocator@VErrorInfo@Reader@Json@@@std@@@std@@QAEXXZ 004823c0 f i tcgament2:tcgsvr.obj
 0001:00081460       ?insert@?$list@U_tagIDSOCKTOKEN@@V?$allocator@U_tagIDSOCKTOKEN@@@std@@@std@@QAE?AViterator@12@V312@ABU_tagIDSOCKTOKEN@@@Z 00482460 f i tcgament2:tcgsvr.obj
 0001:000814d0       ?_Freefront@?$deque@PAVValue@Json@@V?$allocator@PAVValue@Json@@@std@@@std@@IAEXXZ 004824d0 f i tcgament2:tcgsvr.obj
 0001:00081550       ?_Freefront@?$deque@VErrorInfo@Reader@Json@@V?$allocator@VErrorInfo@Reader@Json@@@std@@@std@@IAEXXZ 00482550 f i tcgament2:tcgsvr.obj
 0001:000815d0       ?erase@?$list@U_tagIDSOCKTOKEN@@V?$allocator@U_tagIDSOCKTOKEN@@@std@@@std@@QAE?AViterator@12@V312@@Z 004825d0 f i tcgament2:tcgsvr.obj
 0001:00081610       ??0const_iterator@?$deque@PAVValue@Json@@V?$allocator@PAVValue@Json@@@std@@@std@@QAE@XZ 00482610 f i tcgament2:tcgsvr.obj
 0001:00081620       ??0const_iterator@?$deque@VErrorInfo@Reader@Json@@V?$allocator@VErrorInfo@Reader@Json@@@std@@@std@@QAE@XZ 00482620 f i tcgament2:tcgsvr.obj
 0001:00081630       ??0const_iterator@?$deque@VErrorInfo@Reader@Json@@V?$allocator@VErrorInfo@Reader@Json@@@std@@@std@@QAE@PAVErrorInfo@Reader@Json@@PAPAV345@@Z 00482630 f i tcgament2:tcgsvr.obj
 0001:00081660       ??_GErrorInfo@Reader@Json@@QAEPAXI@Z 00482660 f i tcgament2:tcgsvr.obj
 0001:00081680       ??1ErrorInfo@Reader@Json@@QAE@XZ 00482680 f i tcgament2:tcgsvr.obj
 0001:00081740       ??0_bstr_t@@QAE@ABV0@@Z    00482740 f i tcgament2:tcgsvr.obj
 0001:00081760       ??0_bstr_t@@QAE@PBG@Z      00482760 f i tcgament2:tcgsvr.obj
 0001:00081800       ??1_bstr_t@@QAE@XZ         00482800 f i tcgament2:tcgsvr.obj
 0001:00081850       ?_AddRef@_bstr_t@@AAEXXZ   00482850 f i tcgament2:tcgsvr.obj
 0001:00081870       ?_Free@_bstr_t@@AAEXXZ     00482870 f i tcgament2:tcgsvr.obj
 0001:000818c0       ??0Data_t@_bstr_t@@QAE@PBD@Z 004828c0 f i tcgament2:tcgsvr.obj
 0001:00081900       ??0Data_t@_bstr_t@@QAE@PBG@Z 00482900 f i tcgament2:tcgsvr.obj
 0001:00081940       ?Release@Data_t@_bstr_t@@QAEKXZ 00482940 f i tcgament2:tcgsvr.obj
 0001:00081990       ??_GData_t@_bstr_t@@AAEPAXI@Z 00482990 f i tcgament2:tcgsvr.obj
 0001:000819d0       ?_Free@Data_t@_bstr_t@@AAEXXZ 004829d0 f i tcgament2:tcgsvr.obj
 0001:00081a00       ??1_variant_t@@QAE@XZ      00482a00 f i tcgament2:tcgsvr.obj
 0001:00081a20       ?InitService@IXYSoapClient@XYSOAPCLIENTLib@@QAEJV_bstr_t@@000@Z 00482a20 f i tcgament2:tcgsvr.obj
 0001:00081ba0       ?SetClientProperty@IXYSoapClient@XYSOAPCLIENTLib@@QAEJV_bstr_t@@ABV_variant_t@@@Z 00482ba0 f i tcgament2:tcgsvr.obj
 0001:00081c60       ?GetLastError@IXYSoapClient@XYSOAPCLIENTLib@@QAE?AV_bstr_t@@XZ 00482c60 f i tcgament2:tcgsvr.obj
 0001:00081d00       ?InvokeMethod@IXYSoapClient@XYSOAPCLIENTLib@@QAE?AV_variant_t@@V_bstr_t@@ABV3@1111@Z 00482d00 f i tcgament2:tcgsvr.obj
 0001:00081e80       ?SetSoapToolkitVersion@IXYSoapClient@XYSOAPCLIENTLib@@QAE?AV_bstr_t@@V3@@Z 00482e80 f i tcgament2:tcgsvr.obj
 0001:00081f60       ?OnPlayerLeave@CMainServer@@MAEXPAU_tagCONTEXT_HEAD@@PAVCTable@@H@Z 00482f60 f i tcgament2:tcgsvr.obj
 0001:00081f70       ??A?$CMap@HHU_tagUSER_DATA@@AAU1@@@QAEAAU_tagUSER_DATA@@H@Z 00482f70 f i tcgament2:tcgsvr.obj
 0001:00082080       ?InitHashTable@?$CMap@HHPAVCPlayer@@PAV1@@@QAEXIH@Z 00483080 f i tcgament2:tcgsvr.obj
 0001:000820f0       ?NewAssoc@?$CMap@HHPAVCPlayer@@PAV1@@@IAEPAUCAssoc@1@XZ 004830f0 f i tcgament2:tcgsvr.obj
 0001:00082150       ?GetAssocAt@?$CMap@HHPAVCPlayer@@PAV1@@@IBEPAUCAssoc@1@HAAI@Z 00483150 f i tcgament2:tcgsvr.obj
 0001:00082190       ?InitHashTable@?$CMap@HHPAVCTable@@PAV1@@@QAEXIH@Z 00483190 f i tcgament2:tcgsvr.obj
 0001:00082200       ?NewAssoc@?$CMap@HHPAVCTable@@PAV1@@@IAEPAUCAssoc@1@XZ 00483200 f i tcgament2:tcgsvr.obj
 0001:00082260       ?InitHashTable@?$CMap@JJHH@@QAEXIH@Z 00483260 f i tcgament2:tcgsvr.obj
 0001:000822d0       ?NewAssoc@?$CMap@JJHH@@IAEPAUCAssoc@1@XZ 004832d0 f i tcgament2:tcgsvr.obj
 0001:00082330       ?GetAssocAt@?$CMap@JJHH@@IBEPAUCAssoc@1@JAAI@Z 00483330 f i tcgament2:tcgsvr.obj
 0001:00082370       ?InitHashTable@?$CMap@JJU_tagID_SOCKET@@U1@@@QAEXIH@Z 00483370 f i tcgament2:tcgsvr.obj
 0001:000823e0       ?NewAssoc@?$CMap@JJU_tagID_SOCKET@@U1@@@IAEPAUCAssoc@1@XZ 004833e0 f i tcgament2:tcgsvr.obj
 0001:00082440       ?GetAssocAt@?$CMap@JJU_tagID_SOCKET@@U1@@@IBEPAUCAssoc@1@JAAI@Z 00483440 f i tcgament2:tcgsvr.obj
 0001:00082480       ?InitHashTable@?$CMap@HHPAVCRoom@@PAV1@@@QAEXIH@Z 00483480 f i tcgament2:tcgsvr.obj
 0001:000824f0       ?NewAssoc@?$CMap@HHPAVCRoom@@PAV1@@@IAEPAUCAssoc@1@XZ 004834f0 f i tcgament2:tcgsvr.obj
 0001:00082550       ?InitHashTable@?$CMap@HHU_tagUSER_DATA@@AAU1@@@QAEXIH@Z 00483550 f i tcgament2:tcgsvr.obj
 0001:000825c0       ?NewAssoc@?$CMap@HHU_tagUSER_DATA@@AAU1@@@IAEPAUCAssoc@1@XZ 004835c0 f i tcgament2:tcgsvr.obj
 0001:00082640       ?ConstructElements@@YGXPAHH@Z 00483640 f i tcgament2:tcgsvr.obj
 0001:00082660       ?ConstructElements@@YGXPAPAVCPlayer@@H@Z 00483660 f i tcgament2:tcgsvr.obj
 0001:00082680       ??0CPlayer@@QAE@PBDHHHH@Z  00483680 f   xygame2:xygdata.obj
 0001:00082700       ??_ECPlayer@@UAEPAXI@Z     00483700 f i xygame2:xygdata.obj
 0001:00082700       ??_GCPlayer@@UAEPAXI@Z     00483700 f i xygame2:xygdata.obj
 0001:00082720       ??1CPlayer@@UAE@XZ         00483720 f   xygame2:xygdata.obj
 0001:00082730       ?SetSocketToken@CPlayer@@UAEXIJPBD@Z 00483730 f   xygame2:xygdata.obj
 0001:00082770       ?SetChairLookOn@CPlayer@@UAEXHH@Z 00483770 f   xygame2:xygdata.obj
 0001:00082790       ?SetScoreDeposit@CPlayer@@UAEXHHH@Z 00483790 f   xygame2:xygdata.obj
 0001:000827b0       ?IsWaitTakeBonus@CPlayer@@UAEHXZ 004837b0 f   xygame2:xygdata.obj
 0001:000827c0       ?SetWaitTakeBonus@CPlayer@@QAEXH@Z 004837c0 f   xygame2:xygdata.obj
 0001:000827d0       ??0CTable@@QAE@HHHHKKH@Z   004837d0 f   xygame2:xygdata.obj
 0001:000829f0       ??_ECTable@@UAEPAXI@Z      004839f0 f i xygame2:xygdata.obj
 0001:000829f0       ??_GCTable@@UAEPAXI@Z      004839f0 f i xygame2:xygdata.obj
 0001:00082a10       ??_F?$CMap@HHPAVCPlayer@@PAV1@@@QAEXXZ 00483a10 f i xygame2:xygdata.obj
 0001:00082a20       ??1?$map@HU_tagPlayerCache@@U?$less@H@std@@V?$allocator@U_tagPlayerCache@@@3@@std@@QAE@XZ 00483a20 f i xygame2:xygdata.obj
 0001:00082b10       ??1CTable@@UAE@XZ          00483b10 f   xygame2:xygdata.obj
 0001:00082ca0       ?InitParams@CTable@@UAEXXZ 00483ca0 f   xygame2:xygdata.obj
 0001:00082cb0       ?ResetMembers@CTable@@UAEXH@Z 00483cb0 f   xygame2:xygdata.obj
 0001:00083120       ?Reset@CTable@@UAEXXZ      00484120 f   xygame2:xygdata.obj
 0001:00083130       ?ResetPlayer@CTable@@UAEXH@Z 00484130 f   xygame2:xygdata.obj
 0001:00083210       ?ResetTable@CTable@@UAEXXZ 00484210 f   xygame2:xygdata.obj
 0001:00083420       ?CreateMatchTable@CTable@@UAEXAAU_tagARRANGE_TABLE@@@Z 00484420 f   xygame2:xygdata.obj
 0001:00083470       ?ClearMatch@CTable@@UAEXXZ 00484470 f   xygame2:xygdata.obj
 0001:00083490       ?IsInMatch@CTable@@UAEHXZ  00484490 f   xygame2:xygdata.obj
 0001:000834a0       ?VisitorLeave@CTable@@UAEXHH@Z 004844a0 f   xygame2:xygdata.obj
 0001:00083630       ?RemoveVisitor@CTable@@UAEXHH@Z 00484630 f   xygame2:xygdata.obj
 0001:000837d0       ?IsPlayer@CTable@@UAEHH@Z  004847d0 f   xygame2:xygdata.obj
 0001:00083830       ?IsPlayerOnChair@CTable@@UAEHXZ 00484830 f   xygame2:xygdata.obj
 0001:00083840       ?IsVisitor@CTable@@UAEHH@Z 00484840 f   xygame2:xygdata.obj
 0001:000838a0       ?ValidateChair@CTable@@UAEHH@Z 004848a0 f   xygame2:xygdata.obj
 0001:000838c0       ?GetPlayer@CTable@@UAEPAVCPlayer@@H@Z 004848c0 f   xygame2:xygdata.obj
 0001:00083910       ?GetVisitor@CTable@@UAEPAVCPlayer@@H@Z 00484910 f   xygame2:xygdata.obj
 0001:00083960       ?StartDeal@CTable@@UAEXXZ  00484960 f   xygame2:xygdata.obj
 0001:00083980       ?CalcAfterDeal@CTable@@UAEHXZ 00484980 f   xygame2:xygdata.obj
 0001:00083990       ?ConstructGameData@CTable@@UAEXXZ 00484990 f   xygame2:xygdata.obj
 0001:000839a0       ?ThrowDices@CTable@@UAEXXZ 004849a0 f   xygame2:xygdata.obj
 0001:000839b0       ?Restart@CTable@@UAEHAAHHHHHHHHHHHHHHHHHHH@Z 004849b0 f   xygame2:xygdata.obj
 0001:00083da0       ?PrepareNextBout@CTable@@UAEHPAXH@Z 00484da0 f   xygame2:xygdata.obj
 0001:00083e00       ?GetEnterGameInfoSize@CTable@@UAEHXZ 00484e00 f   xygame2:xygdata.obj
 0001:00083e10       ?FillupEnterGameInfo@CTable@@UAEXPAXHHH@Z 00484e10 f   xygame2:xygdata.obj
 0001:00083ea0       ?GetGameTableInfoSize@CTable@@UAEHXZ 00484ea0 f   xygame2:xygdata.obj
 0001:00083eb0       ?FillupGameTableInfo@CTable@@UAEXPAXHHH@Z 00484eb0 f   xygame2:xygdata.obj
 0001:00083ed0       ?GetGameStartSize@CTable@@UAEHXZ 00484ed0 f   xygame2:xygdata.obj
 0001:00083ee0       ?FillupGameStart@CTable@@UAEXPAXHHH@Z 00484ee0 f   xygame2:xygdata.obj
 0001:00083f00       ?GetGameWinSize@CTable@@UAEHXZ 00484f00 f   xygame2:xygdata.obj
 0001:00083f10       ?FillupOldScoreDeposit@CTable@@UAEXPAXH@Z 00484f10 f   xygame2:xygdata.obj
 0001:00083fa0       ?FillupGameWin@CTable@@UAEHPAXHH@Z 00484fa0 f   xygame2:xygdata.obj
 0001:00084190       ?IsNextBoutNoLeave@CTable@@UAEKPAXH@Z 00485190 f   xygame2:xygdata.obj
 0001:000841a0       ?IsNextBoutBankerReset@CTable@@UAEKPAXH@Z 004851a0 f   xygame2:xygdata.obj
 0001:000841b0       ?IsGameOver@CTable@@UAEHXZ 004851b0 f   xygame2:xygdata.obj
 0001:000841d0       ?IsFirstBout@CTable@@UAEHXZ 004851d0 f   xygame2:xygdata.obj
 0001:000841e0       ?GetTotalCroups@CTable@@UAEHXZ 004851e0 f   xygame2:xygdata.obj
 0001:00084240       ?GetTotalChairsOfGroup@CTable@@UAEHH@Z 00485240 f   xygame2:xygdata.obj
 0001:000842c0       ?GetTotalChairsNotGroup@CTable@@UAEHH@Z 004852c0 f   xygame2:xygdata.obj
 0001:00084330       ?GetNextChairOfGroup@CTable@@UAEHHH@Z 00485330 f   xygame2:xygdata.obj
 0001:00084370       ?GetNextChairNotGroup@CTable@@UAEHHH@Z 00485370 f   xygame2:xygdata.obj
 0001:000843b0       ?SetGroupsBefore@CTable@@UAEHXZ 004853b0 f   xygame2:xygdata.obj
 0001:000843e0       ?SetGroupsAfter@CTable@@UAEHPAXH@Z 004853e0 f   xygame2:xygdata.obj
 0001:000843f0       ?IsPartner@CTable@@UAEHHH@Z 004853f0 f   xygame2:xygdata.obj
 0001:00084410       ?SetRoundBefore@CTable@@UAEHXZ 00485410 f   xygame2:xygdata.obj
 0001:00084430       ?SetRoundAfter@CTable@@UAEHPAXH@Z 00485430 f   xygame2:xygdata.obj
 0001:00084440       ?GetCurrentChair@CTable@@UAEHXZ 00485440 f   xygame2:xygdata.obj
 0001:00084450       ?SetCurrentChair@CTable@@UAEHHH@Z 00485450 f   xygame2:xygdata.obj
 0001:000844d0       ?CheckOffline@CTable@@UAEHH@Z 004854d0 f   xygame2:xygdata.obj
 0001:00084510       ?OnUserStart@CTable@@UAEXH@Z 00485510 f   xygame2:xygdata.obj
 0001:00084530       ?SetCurrentChair@CTable@@UAEHH@Z 00485530 f   xygame2:xygdata.obj
 0001:000845a0       ?IsOperateTimeOver@CTable@@UAEHXZ 004855a0 f   xygame2:xygdata.obj
 0001:000845c0       ?IsLostActive@CTable@@UAEHXZ 004855c0 f   xygame2:xygdata.obj
 0001:00084630       ?IsOffline@CTable@@UAEHH@Z 00485630 f   xygame2:xygdata.obj
 0001:00084660       ?IsAutoPlay@CTable@@UAEHH@Z 00485660 f   xygame2:xygdata.obj
 0001:00084680       ?OnServerAutoPlay@CTable@@UAEHH@Z 00485680 f   xygame2:xygdata.obj
 0001:000846a0       ?SetActionBegin@CTable@@UAEXXZ 004856a0 f   xygame2:xygdata.obj
 0001:000846c0       ?GetNextChair@CTable@@UAEHH@Z 004856c0 f   xygame2:xygdata.obj
 0001:000846e0       ?GetPrevChair@CTable@@UAEHH@Z 004856e0 f   xygame2:xygdata.obj
 0001:00084700       ?SetCurrentChairOnStart@CTable@@UAEHXZ 00485700 f   xygame2:xygdata.obj
 0001:00084720       ?WinFlags_LastBout@CTable@@UAEKPAXH@Z 00485720 f   xygame2:xygdata.obj
 0001:00084730       ?BoutFlags_LastBout@CTable@@UAEKPAXH@Z 00485730 f   xygame2:xygdata.obj
 0001:00084740       ?CalcBankerChairBefore@CTable@@UAEHXZ 00485740 f   xygame2:xygdata.obj
 0001:00084750       ?CalcBankerChairAfter@CTable@@UAEHPAXH@Z 00485750 f   xygame2:xygdata.obj
 0001:00084770       ?AddStatus@CTable@@UAEKK@Z 00485770 f   xygame2:xygdata.obj
 0001:000847b0       ?RemoveStatus@CTable@@UAEKK@Z 004857b0 f   xygame2:xygdata.obj
 0001:000847e0       ?SetStatus@CTable@@UAEKK@Z 004857e0 f   xygame2:xygdata.obj
 0001:00084800       ?SetStatusOnStart@CTable@@UAEKXZ 00485800 f   xygame2:xygdata.obj
 0001:00084810       ?SetStatusOnEnd@CTable@@UAEKXZ 00485810 f   xygame2:xygdata.obj
 0001:00084820       ?SetStatusOnAskReply@CTable@@UAEKXZ 00485820 f   xygame2:xygdata.obj
 0001:00084830       ?SetStatusOnAgreeReply@CTable@@UAEKXZ 00485830 f   xygame2:xygdata.obj
 0001:00084840       ?CalcWinPoints@CTable@@UAEHPAXHHQAH@Z 00485840 f   xygame2:xygdata.obj
 0001:00084850       ?IsBankWin@CTable@@UAEHPAXHH@Z 00485850 f   xygame2:xygdata.obj
 0001:000848d0       ?CalcGainsOnEnd@CTable@@UAEHXZ 004858d0 f   xygame2:xygdata.obj
 0001:000848e0       ?CalcBonusOnEnd@CTable@@UAEHXZ 004858e0 f   xygame2:xygdata.obj
 0001:000848f0       ?CalcWinOnGiveUp@CTable@@UAEKHH@Z 004858f0 f   xygame2:xygdata.obj
 0001:00084920       ?CalcWinOnStandOff@CTable@@UAEKH@Z 00485920 f   xygame2:xygdata.obj
 0001:00084930       ?GetBaseScore@CTable@@UAEHH@Z 00485930 f   xygame2:xygdata.obj
 0001:000849a0       ?GetBaseDeposit@CTable@@UAEHH@Z 004859a0 f   xygame2:xygdata.obj
 0001:00084a80       ?CalcLevelOnScore@CTable@@UAEHHH@Z 00485a80 f   xygame2:xygdata.obj
 0001:00084aa0       ?CalcLevelIDs@CTable@@UAEHQAH00@Z 00485aa0 f   xygame2:xygdata.obj
 0001:00084b10       ?CalcBaseScore@CTable@@UAEHQAHH@Z 00485b10 f   xygame2:xygdata.obj
 0001:00084b50       ?CalcBaseDeposit@CTable@@UAEHQAHH@Z 00485b50 f   xygame2:xygdata.obj
 0001:00084b70       ?FillupLevelNames@CTable@@UAEXPAXHAAV?$CMap@HHU_tagPLAYERLEVEL_EX@@U1@@@@Z 00485b70 f   xygame2:xygdata.obj
 0001:00084bd0       ?FillupNextBoutInfo@CTable@@UAEXPAXHH@Z 00485bd0 f   xygame2:xygdata.obj
 0001:00084bf0       ?CalcSurplus@CTable@@UAEHQAH@Z 00485bf0 f   xygame2:xygdata.obj
 0001:00084c10       ?CompensateDeposits@CTable@@UAEHQAH0@Z 00485c10 f   xygame2:xygdata.obj
 0001:00084e80       ?CalcWinFees@CTable@@UAEHQAH0@Z 00485e80 f   xygame2:xygdata.obj
 0001:00085120       ?CalcWinFeesEx@CTable@@UAEHQAH000@Z 00486120 f   xygame2:xygdata.obj
 0001:00085430       ?GetMaxFeeRatio@CTable@@UAEHXZ 00486430 f   xygame2:xygdata.obj
 0001:00085440       ?CheckDepositResults@CTable@@UAEHQAH0H@Z 00486440 f   xygame2:xygdata.obj
 0001:000854a0       ?ActuallizeResults@CTable@@UAEXPAXH@Z 004864a0 f   xygame2:xygdata.obj
 0001:00085520       ?InvalidResults@CTable@@UAEXPAXH@Z 00486520 f   xygame2:xygdata.obj
 0001:00085570       ?FillupGameResults@CTable@@UAEXPAXHQAU_tagGAME_RESULT_EX@@@Z 00486570 f   xygame2:xygdata.obj
 0001:00085690       ?CalcTimeCost@CTable@@UAEHAAH0@Z 00486690 f   xygame2:xygdata.obj
 0001:000856d0       ?CalcResultDiffs@CTable@@UAEHPAXHQAH1@Z 004866d0 f   xygame2:xygdata.obj
 0001:000856e0       ?CalcResultDiffsEx@CTable@@UAEHPAXHQAH1@Z 004866e0 f   xygame2:xygdata.obj
 0001:00085710       ?MemberReduceNGScore@CTable@@UAEHPAXHQAH@Z 00486710 f   xygame2:xygdata.obj
 0001:000857c0       ?LeaveAsBreak@CTable@@UAEHHH@Z 004867c0 f   xygame2:xygdata.obj
 0001:000857e0       ?IsBrokenAsLock@CTable@@UAEHHH@Z 004867e0 f   xygame2:xygdata.obj
 0001:00085840       ?TellBreakChair@CTable@@UAEHHK@Z 00486840 f   xygame2:xygdata.obj
 0001:00085890       ?CalcDoubleOfScore@CTable@@UAEHHHH@Z 00486890 f   xygame2:xygdata.obj
 0001:000858d0       ?BreakDoubleOfDeposit@CTable@@UAEHH@Z 004868d0 f   xygame2:xygdata.obj
 0001:000858e0       ?CalcBreakDeposit@CTable@@UAEHHHAAH@Z 004868e0 f   xygame2:xygdata.obj
 0001:00085950       ?ShareDepositOnBreak@CTable@@UAEHHHH@Z 00486950 f   xygame2:xygdata.obj
 0001:000859d0       ?IsAllAllowExit@CTable@@UAEHH@Z 004869d0 f   xygame2:xygdata.obj
 0001:00085a30       ?IsAllStandBy@CTable@@UAEHPAU_tagALL_STANDBY@@AAV?$CMap@HHU_tagPLAYERLEVEL_EX@@U1@@@@Z 00486a30 f   xygame2:xygdata.obj
 0001:00085ad0       ?IsScoreFromDB@CTable@@UAEHXZ 00486ad0 f   xygame2:xygdata.obj
 0001:00085b10       ?IsVerifyScore@CTable@@UAEHXZ 00486b10 f   xygame2:xygdata.obj
 0001:00085b30       ?IsResultToDB@CTable@@UAEHPAXH@Z 00486b30 f   xygame2:xygdata.obj
 0001:00085b80       ?IsForbidChat@CTable@@UAEHXZ 00486b80 f   xygame2:xygdata.obj
 0001:00085ba0       ?IsForbidLookChat@CTable@@UAEHXZ 00486ba0 f   xygame2:xygdata.obj
 0001:00085bc0       ?IsAutoStart@CTable@@UAEHXZ 00486bc0 f   xygame2:xygdata.obj
 0001:00085be0       ?IsWaitingStart@CTable@@UAEHXZ 00486be0 f   xygame2:xygdata.obj
 0001:00085c00       ?IsTimeToStart@CTable@@UAEHXZ 00486c00 f   xygame2:xygdata.obj
 0001:00085c30       ?IsVariableChairRoom@CTable@@UAEHXZ 00486c30 f   xygame2:xygdata.obj
 0001:00085c50       ?IsSoloRoom@CTable@@UAEHXZ 00486c50 f   xygame2:xygdata.obj
 0001:00085c70       ?IsRandomRoom@CTable@@UAEHXZ 00486c70 f   xygame2:xygdata.obj
 0001:00085c90       ?IsDarkRoom@CTable@@UAEHXZ 00486c90 f   xygame2:xygdata.obj
 0001:00085cb0       ?GetRoomConfig@CTable@@UAEKXZ 00486cb0 f   xygame2:xygdata.obj
 0001:00085ce0       ?CheckInDB@CTable@@UAEHXZ  00486ce0 f   xygame2:xygdata.obj
 0001:00085cf0       ?BuildUpGameWin@CTable@@UAEHPAXHHHAAV?$CMap@HHU_tagPLAYERLEVEL_EX@@U1@@@@Z 00486cf0 f   xygame2:xygdata.obj
 0001:00085d60       ?ConstructGameResults@CTable@@UAEHPAXHHHPAU_tagREFRESH_RESULT_EX@@QAU_tagGAME_RESULT_EX@@@Z 00486d60 f   xygame2:xygdata.obj
 0001:00085e10       ?RefreshPlayerData@CTable@@UAEHQAU_tagGAME_RESULT_EX@@@Z 00486e10 f   xygame2:xygdata.obj
 0001:00085e70       ?UpdataGameWin@CTable@@UAEHPAU_tagREFRESH_RESULT_EX@@AAV?$CMap@HHU_tagPLAYERLEVEL_EX@@U1@@@@Z 00486e70 f   xygame2:xygdata.obj
 0001:00085fc0       ?FindTokenByUser@CTable@@UAEJH@Z 00486fc0 f   xygame2:xygdata.obj
 0001:00086010       ?IsBoutInvalid@CTable@@UAEHH@Z 00487010 f   xygame2:xygdata.obj
 0001:00086050       ?PlayerEnter@CTable@@UAEHPAVCPlayer@@@Z 00487050 f   xygame2:xygdata.obj
 0001:000861c0       ?PlayerLeave@CTable@@UAEHHH@Z 004871c0 f   xygame2:xygdata.obj
 0001:00086360       ?GetPlayerCount@CTable@@UAEHXZ 00487360 f   xygame2:xygdata.obj
 0001:00086370       ?GetMatchID@CTable@@UAEHXZ 00487370 f   xygame2:xygdata.obj
 0001:00086380       ?IsTableFull@CTable@@UAEHXZ 00487380 f   xygame2:xygdata.obj
 0001:000863a0       ?IsTableEmpty@CTable@@UAEHXZ 004873a0 f   xygame2:xygdata.obj
 0001:000863b0       ?IsPlaying@CTable@@UAEHXZ  004873b0 f   xygame2:xygdata.obj
 0001:000863d0       ?IsNeedCountdown@CTable@@UAEHXZ 004873d0 f   xygame2:xygdata.obj
 0001:000863e0       ?IsInCountDown@CTable@@UAEHXZ 004873e0 f   xygame2:xygdata.obj
 0001:00086420       ?SetCountDown@CTable@@UAEHHH@Z 00487420 f   xygame2:xygdata.obj
 0001:00086490       ?GetCountDown@CTable@@UAEHXZ 00487490 f   xygame2:xygdata.obj
 0001:000864a0       ?GetPlayerCountOnTable@CTable@@UAEHXZ 004874a0 f   xygame2:xygdata.obj
 0001:000864d0       ?CalcRemainCountdown@CTable@@UAEHK@Z 004874d0 f   xygame2:xygdata.obj
 0001:00086520       ?ResetCountdown@CTable@@UAEXXZ 00487520 f   xygame2:xygdata.obj
 0001:00086530       ?SetPlayerStatusOnStart@CTable@@UAEXXZ 00487530 f   xygame2:xygdata.obj
 0001:000865b0       ?CalcUserBoutEndDiff@CTable@@UAEHHAAH00@Z 004875b0 f   xygame2:xygdata.obj
 0001:000865e0       ?BuildUpUserBoutEnd@CTable@@UAEHPAXHHHAAV?$CMap@HHU_tagPLAYERLEVEL_EX@@U1@@@@Z 004875e0 f   xygame2:xygdata.obj
 0001:000867d0       ?ConstructPreSaveResult@CTable@@UAEHPAXHHHHPAU_tagREFRESH_RESULT_EX@@PAU_tagGAME_RESULT_EX@@@Z 004877d0 f   xygame2:xygdata.obj
 0001:000868c0       ?RefreshOnePlayerData@CTable@@UAEHPAU_tagGAME_RESULT_EX@@@Z 004878c0 f   xygame2:xygdata.obj
 0001:000868f0       ?ConstructEndSaveResult@CTable@@UAEHPAXHHHPAU_tagREFRESH_RESULT_EX@@QAU_tagGAME_RESULT_EX@@@Z 004878f0 f   xygame2:xygdata.obj
 0001:000869d0       ?FillupEndSaveGameResults@CTable@@UAEXPAXHQAU_tagGAME_RESULT_EX@@@Z 004879d0 f   xygame2:xygdata.obj
 0001:00086af0       ?FillPlayerStatus@CTable@@UAEXPAXH@Z 00487af0 f   xygame2:xygdata.obj
 0001:00086b50       ?CompensateOneDeposit@CTable@@UAEHHAAH@Z 00487b50 f   xygame2:xygdata.obj
 0001:00086b70       ?CalcOneWinFee@CTable@@UAEHHAAH0@Z 00487b70 f   xygame2:xygdata.obj
 0001:00086c80       ?CalcOneWinFeeEx@CTable@@UAEHHAAH00@Z 00487c80 f   xygame2:xygdata.obj
 0001:00086dc0       ?RecordPlayerOnStart@CTable@@UAEXH@Z 00487dc0 f   xygame2:xygdata.obj
 0001:00086e80       ?RecordPlayerOnCurrencyChange@CTable@@UAEXHH@Z 00487e80 f   xygame2:xygdata.obj
 0001:00086ee0       ?ReduceMinusScore@CTable@@UAEHH@Z 00487ee0 f   xygame2:xygdata.obj
 0001:00086fc0       ?GetScoreProtectPct@CTable@@UAEXAAHQAH1H@Z 00487fc0 f   xygame2:xygdata.obj
 0001:00087010       ?SetScoreProtect@CTable@@UAEHQAH0@Z 00488010 f   xygame2:xygdata.obj
 0001:000870a0       ?GetSoloAloneKickOffTime@CTable@@UAEHXZ 004880a0 f   xygame2:xygdata.obj
 0001:000870e0       ?CheckDepositOneResult@CTable@@UAEHAAH0@Z 004880e0 f   xygame2:xygdata.obj
 0001:00087110       ?IsKickOffTooManyIdlePlayer@CTable@@UAEHXZ 00488110 f   xygame2:xygdata.obj
 0001:00087120       ?IsMemberReduceNGScore@CTable@@UAEHXZ 00488120 f   xygame2:xygdata.obj
 0001:00087130       ?FillSoloPlayersData@CTable@@UAEXHPAX@Z 00488130 f   xygame2:xygdata.obj
 0001:000871a0       ?SaveCloakPlayersReal@CTable@@UAEXPAX@Z 004881a0 f   xygame2:xygdata.obj
 0001:00087260       ?SaveCloakPlayers@CTable@@UAEXHPAX@Z 00488260 f   xygame2:xygdata.obj
 0001:00087330       ?RandSoloPlayerInfo@CTable@@UAEXHPAU_tagSOLO_PLAYER@@@Z 00488330 f   xygame2:xygdata.obj
 0001:00087460       ?SetSoloPlayerDXXW@CTable@@UAEXHPAU_tagSOLO_PLAYER@@@Z 00488460 f   xygame2:xygdata.obj
 0001:000874b0       ?GetSoloPlayerName@CTable@@UAE?AVCString@@H@Z 004884b0 f   xygame2:xygdata.obj
 0001:00087700       ?IsCheckingResult@CTable@@UAEHXZ 00488700 f   xygame2:xygdata.obj
 0001:00087730       ?SetCheckingResult@CTable@@QAEXH@Z 00488730 f   xygame2:xygdata.obj
 0001:00087760       ?IsTakingBonus@CTable@@UAEHXZ 00488760 f   xygame2:xygdata.obj
 0001:000877f0       ?IsPlayerTakingBonus@CTable@@UAEHH@Z 004887f0 f   xygame2:xygdata.obj
 0001:000878e0       ?SetTakingBonus@CTable@@QAEXHH@Z 004888e0 f   xygame2:xygdata.obj
 0001:00087960       ?SetAllTakingBonus@CTable@@QAEXH@Z 00488960 f   xygame2:xygdata.obj
 0001:000879c0       ?SetHomeUserID@CTable@@QAEXH@Z 004889c0 f   xygame2:xygdata.obj
 0001:000879d0       ?GetHomeUserID@CTable@@QAEHXZ 004889d0 f   xygame2:xygdata.obj
 0001:000879e0       ?IsHomeChanged@CTable@@QAE_NXZ 004889e0 f   xygame2:xygdata.obj
 0001:000879f0       ?SetHomeChanged@CTable@@QAEX_N@Z 004889f0 f   xygame2:xygdata.obj
 0001:00087a00       ?CheckHomeUserChange@CTable@@QAEXH@Z 00488a00 f   xygame2:xygdata.obj
 0001:00087ab0       ?GetPlayerCache@CTable@@QAE_NHAAU_tagPlayerCache@@@Z 00488ab0 f   xygame2:xygdata.obj
 0001:00087b20       ?AddPlayerCache@CTable@@QAEXABU_tagPlayerCache@@@Z 00488b20 f   xygame2:xygdata.obj
 0001:00087c80       ?FillPlayerCache@CTable@@QAEHHQAU_tagONE_PLAYER_SOCLALLY@@@Z 00488c80 f   xygame2:xygdata.obj
 0001:00087d30       ??0CRoom@@QAE@H@Z          00488d30 f   xygame2:xygdata.obj
 0001:00087da0       ??_GCRoom@@UAEPAXI@Z       00488da0 f i xygame2:xygdata.obj
 0001:00087da0       ??_ECRoom@@UAEPAXI@Z       00488da0 f i xygame2:xygdata.obj
 0001:00087dc0       ??1CRoom@@UAE@XZ           00488dc0 f   xygame2:xygdata.obj
 0001:00087f60       ?GetWaitTableNO@CRoom@@UAEXAAH0@Z 00488f60 f   xygame2:xygdata.obj
 0001:00088010       ?IsOnMatch@CRoom@@QAEHXZ   00489010 f   xygame2:xygdata.obj
 0001:00088020       ?MatchBegin@CRoom@@QAEXH@Z 00489020 f   xygame2:xygdata.obj
 0001:000880b0       ?MatchClose@CRoom@@QAEXXZ  004890b0 f   xygame2:xygdata.obj
 0001:00088140       ?NewPlayerLevelMap@@YAXAAV?$CMap@HHU_tagPLAYERLEVEL_EX@@U1@@@PAEH@Z 00489140 f   xygame2:xygdata.obj
 0001:00088290       ?LookupPlayerLevel@@YAHAAV?$CMap@HHU_tagPLAYERLEVEL_EX@@U1@@@HPAD@Z 00489290 f   xygame2:xygdata.obj
 0001:00088310       ?GetINIFileName@@YA?AVCString@@XZ 00489310 f   xygame2:xygdata.obj
 0001:00088480       ?begin@?$_Tree@HU?$pair@$$CBHU_tagPlayerCache@@@std@@U_Kfn@?$map@HU_tagPlayerCache@@U?$less@H@std@@V?$allocator@U_tagPlayerCache@@@3@@2@U?$less@H@2@V?$allocator@U_tagPlayerCache@@@2@@std@@QAE?AViterator@12@XZ 00489480 f i xygame2:xygdata.obj
 0001:00088490       ?erase@?$_Tree@HU?$pair@$$CBHU_tagPlayerCache@@@std@@U_Kfn@?$map@HU_tagPlayerCache@@U?$less@H@std@@V?$allocator@U_tagPlayerCache@@@3@@2@U?$less@H@2@V?$allocator@U_tagPlayerCache@@@2@@std@@QAE?AViterator@12@V312@0@Z 00489490 f i xygame2:xygdata.obj
 0001:00088560       ?erase@?$_Tree@HU?$pair@$$CBHU_tagPlayerCache@@@std@@U_Kfn@?$map@HU_tagPlayerCache@@U?$less@H@std@@V?$allocator@U_tagPlayerCache@@@3@@2@U?$less@H@2@V?$allocator@U_tagPlayerCache@@@2@@std@@QAE?AViterator@12@V312@@Z 00489560 f i xygame2:xygdata.obj
 0001:000889c0       ?_Erase@?$_Tree@HU?$pair@$$CBHU_tagPlayerCache@@@std@@U_Kfn@?$map@HU_tagPlayerCache@@U?$less@H@std@@V?$allocator@U_tagPlayerCache@@@3@@2@U?$less@H@2@V?$allocator@U_tagPlayerCache@@@2@@std@@IAEXPAU_Node@12@@Z 004899c0 f i xygame2:xygdata.obj
 0001:00088a00       ?_Inc@const_iterator@?$_Tree@HU?$pair@$$CBHU_tagPlayerCache@@@std@@U_Kfn@?$map@HU_tagPlayerCache@@U?$less@H@std@@V?$allocator@U_tagPlayerCache@@@3@@2@U?$less@H@2@V?$allocator@U_tagPlayerCache@@@2@@std@@QAEXXZ 00489a00 f i xygame2:xygdata.obj
 0001:00088a50       ??0?$pair@Viterator@?$_Tree@HU?$pair@$$CBHU_tagPlayerCache@@@std@@U_Kfn@?$map@HU_tagPlayerCache@@U?$less@H@std@@V?$allocator@U_tagPlayerCache@@@3@@2@U?$less@H@2@V?$allocator@U_tagPlayerCache@@@2@@std@@_N@std@@QAE@ABViterator@?$_Tree@HU?$pair@$$CBHU_tagPlayerCache@@@std@@U_Kfn@?$map@HU_tagPlayerCache@@U?$less@H@std@@V?$allocator@U_tagPlayerCache@@@3@@2@U?$less@H@2@V?$allocator@U_tagPlayerCache@@@2@@1@AB_N@Z 00489a50 f i xygame2:xygdata.obj
 0001:00088a70       ?_Insert@?$_Tree@HU?$pair@$$CBHU_tagPlayerCache@@@std@@U_Kfn@?$map@HU_tagPlayerCache@@U?$less@H@std@@V?$allocator@U_tagPlayerCache@@@3@@2@U?$less@H@2@V?$allocator@U_tagPlayerCache@@@2@@std@@IAE?AViterator@12@PAU_Node@12@0ABU?$pair@$$CBHU_tagPlayerCache@@@2@@Z 00489a70 f i xygame2:xygdata.obj
 0001:00088d10       ?_Lbound@?$_Tree@HU?$pair@$$CBHU_tagPlayerCache@@@std@@U_Kfn@?$map@HU_tagPlayerCache@@U?$less@H@std@@V?$allocator@U_tagPlayerCache@@@3@@2@U?$less@H@2@V?$allocator@U_tagPlayerCache@@@2@@std@@IBEPAU_Node@12@ABH@Z 00489d10 f i xygame2:xygdata.obj
 0001:00088d40       ?_Min@?$_Tree@HU?$pair@$$CBHU_tagPlayerCache@@@std@@U_Kfn@?$map@HU_tagPlayerCache@@U?$less@H@std@@V?$allocator@U_tagPlayerCache@@@3@@2@U?$less@H@2@V?$allocator@U_tagPlayerCache@@@2@@std@@KAPAU_Node@12@PAU312@@Z 00489d40 f i xygame2:xygdata.obj
 0001:00088d60       ?_Ubound@?$_Tree@HU?$pair@$$CBHU_tagPlayerCache@@@std@@U_Kfn@?$map@HU_tagPlayerCache@@U?$less@H@std@@V?$allocator@U_tagPlayerCache@@@3@@2@U?$less@H@2@V?$allocator@U_tagPlayerCache@@@2@@std@@IBEPAU_Node@12@ABH@Z 00489d60 f i xygame2:xygdata.obj
 0001:00088d90       ?_Dec@const_iterator@?$_Tree@HU?$pair@$$CBHU_tagPlayerCache@@@std@@U_Kfn@?$map@HU_tagPlayerCache@@U?$less@H@std@@V?$allocator@U_tagPlayerCache@@@3@@2@U?$less@H@2@V?$allocator@U_tagPlayerCache@@@2@@std@@QAEXXZ 00489d90 f i xygame2:xygdata.obj
 0001:00088df0       ??0?$CMap@HHPAVCPlayer@@PAV1@@@QAE@H@Z 00489df0 f i xygame2:xygdata.obj
 0001:00088e20       ?_Construct@std@@YAXPAU?$pair@$$CBHU_tagPlayerCache@@@1@ABU21@@Z 00489e20 f i xygame2:xygdata.obj
 0001:00088ec0       ??1?$CMap@HHPAVCPlayer@@PAV1@@@UAE@XZ 00489ec0 f i xygame2:xygdata.obj
 0001:00088f50       ?Serialize@?$CMap@HHPAVCPlayer@@PAV1@@@UAEXAAVCArchive@@@Z 00489f50 f i xygame2:xygdata.obj
 0001:00089160       ??1?$CMap@HHPAVCTable@@PAV1@@@UAE@XZ 0048a160 f i xygame2:xygdata.obj
 0001:000891f0       ?Serialize@?$CMap@HHPAVCTable@@PAV1@@@UAEXAAVCArchive@@@Z 0048a1f0 f i xygame2:xygdata.obj
 0001:00089400       ??1?$CMap@HHU_tagMATCHPLAYERINFO@@AAU1@@@UAE@XZ 0048a400 f i xygame2:xygdata.obj
 0001:00089490       ?Serialize@?$CMap@HHU_tagMATCHPLAYERINFO@@AAU1@@@UAEXAAVCArchive@@@Z 0048a490 f i xygame2:xygdata.obj
 0001:000896d0       ??_E?$CMap@HHPAVCPlayer@@PAV1@@@UAEPAXI@Z 0048a6d0 f i xygame2:xygdata.obj
 0001:000896d0       ??_G?$CMap@HHPAVCPlayer@@PAV1@@@UAEPAXI@Z 0048a6d0 f i xygame2:xygdata.obj
 0001:000896f0       ??_E?$CMap@HHPAVCTable@@PAV1@@@UAEPAXI@Z 0048a6f0 f i xygame2:xygdata.obj
 0001:000896f0       ??_G?$CMap@HHPAVCTable@@PAV1@@@UAEPAXI@Z 0048a6f0 f i xygame2:xygdata.obj
 0001:00089710       ??_G?$CMap@HHU_tagMATCHPLAYERINFO@@AAU1@@@UAEPAXI@Z 0048a710 f i xygame2:xygdata.obj
 0001:00089710       ??_E?$CMap@HHU_tagMATCHPLAYERINFO@@AAU1@@@UAEPAXI@Z 0048a710 f i xygame2:xygdata.obj
 0001:00089730       ?RemoveAll@?$CMap@HHPAVCPlayer@@PAV1@@@QAEXXZ 0048a730 f i xygame2:xygdata.obj
 0001:00089780       ?RemoveAll@?$CMap@HHPAVCTable@@PAV1@@@QAEXXZ 0048a780 f i xygame2:xygdata.obj
 0001:000897d0       ?RemoveAll@?$CMap@HHU_tagMATCHPLAYERINFO@@AAU1@@@QAEXXZ 0048a7d0 f i xygame2:xygdata.obj
 0001:00089820       ?XygGetRandomBetween@@YAHH@Z 0048a820 f   xygame2:xygutil.obj
 0001:00089840       ?XygGetRandomBetweenEx@@YAHHH@Z 0048a840 f   xygame2:xygutil.obj
 0001:00089880       ?XygInitializeDice@@YAHAAH0H@Z 0048a880 f   xygame2:xygutil.obj
 0001:000898e0       ?XygCreateRandomCards@@YAHAAV?$CArray@HH@@HH@Z 0048a8e0 f   xygame2:xygutil.obj
 0001:00089aa0       ?XygCreateRandomCardsEx@@YAHAAV?$CArray@HH@@HH@Z 0048aaa0 f   xygame2:xygutil.obj
 0001:00089d10       ?XygTellAllBreak@@YAHQAKH@Z 0048ad10 f   xygame2:xygutil.obj
 0001:00089d40       ?XygCalcTimeCost@@YAHKAAH0H@Z 0048ad40 f   xygame2:xygutil.obj
 0001:00089db0       ?XygCalcLevelOnScore@@YAHHH@Z 0048adb0 f   xygame2:xygutil.obj
 0001:00089df0       ?XygLookupLevelName@@YAXAAV?$CMap@HHU_tagPLAYERLEVEL_EX@@U1@@@HPAD@Z 0048adf0 f   xygame2:xygutil.obj
 0001:00089e60       ?XygGetStartCount@@YAHQAKH@Z 0048ae60 f   xygame2:xygutil.obj
 0001:00089e90       ?XygGetOptionAllTrue@@YAHQAKHK@Z 0048ae90 f   xygame2:xygutil.obj
 0001:00089ed0       ?XygGetOptionOneTrue@@YAHQAKHK@Z 0048aed0 f   xygame2:xygutil.obj
 0001:00089f10       ?XygGetTableEqual@@YAHQAKH@Z 0048af10 f   xygame2:xygutil.obj
 0001:00089f30       ?XygGetNeedDeposit@@YAHQAKH@Z 0048af30 f   xygame2:xygutil.obj
 0001:00089f50       ?XygGetForbidDesert@@YAHQAKH@Z 0048af50 f   xygame2:xygutil.obj
 0001:00089f70       ?XygCalcBaseDeposit@@YAHQAHHH@Z 0048af70 f   xygame2:xygutil.obj
 0001:00089fe0       ?XygCalcBaseScore@@YAHQAHHHH@Z 0048afe0 f   xygame2:xygutil.obj
 0001:0008a020       ?XygInitChairCards@@YAXQAHH@Z 0048b020 f   xygame2:xygutil.obj
 0001:0008a040       ?XygInitBottomCards@@YAXQAHH@Z 0048b040 f   xygame2:xygutil.obj
 0001:0008a060       ?XygGetCountOfCards@@YAHQAHH@Z 0048b060 f   xygame2:xygutil.obj
 0001:0008a090       ?XygGetFirstCardID@@YAHQAHH@Z 0048b090 f   xygame2:xygutil.obj
 0001:0008a0c0       ?XygGetFirstCardIndex@@YAHQAHH@Z 0048b0c0 f   xygame2:xygutil.obj
 0001:0008a0e0       ?XygCardRemains@@YAHQAHH@Z 0048b0e0 f   xygame2:xygutil.obj
 0001:0008a100       ?XygContainCards@@YAHQAH0H@Z 0048b100 f   xygame2:xygutil.obj
 0001:0008a140       ?XygRemoveCards@@YAHQAH0H@Z 0048b140 f   xygame2:xygutil.obj
 0001:0008a190       ?XygJoinCards@@YAHQAH0H@Z  0048b190 f   xygame2:xygutil.obj
 0001:0008a1d0       ?XygMoveCards@@YAHQAH0HHH@Z 0048b1d0 f   xygame2:xygutil.obj
 0001:0008a220       ?XygCopyCardAry@@YAHAAV?$CArray@U_tagCARD@@U1@@@0@Z 0048b220 f   xygame2:xygutil.obj
 0001:0008a2c0       ?XygCardDistinct@@YAHQAHH@Z 0048b2c0 f   xygame2:xygutil.obj
 0001:0008a310       ?XygHaveCard@@YAHQAHHH@Z   0048b310 f   xygame2:xygutil.obj
 0001:0008a350       ?XygHaveCardsIn@@YAHQAHH0H@Z 0048b350 f   xygame2:xygutil.obj
 0001:0008a3a0       ?XygSameCards@@YAHQAHH0H@Z 0048b3a0 f   xygame2:xygutil.obj
 0001:0008a3f0       ?XygFillupQiPos@@YAHAAV?$CList@U_tagQI_POS@@AAU1@@@QAU_tagQI_POS@@H@Z 0048b3f0 f   xygame2:xygutil.obj
 0001:0008a450       ?XygJoinCard@@YAHQAHHH@Z   0048b450 f   xygame2:xygutil.obj
 0001:0008a480       ?xygRegMessageWnd@@YAHHPBDP6GJPAUHWND__@@IIJ@Z@Z 0048b480 f   xygame2:xygutil.obj
 0001:0008a5f0       ?xygUnregMessageWnd@@YAXHPBD@Z 0048b5f0 f   xygame2:xygutil.obj
 0001:0008a680       ?xygCreateMessageWnd@@YAPAUHWND__@@HPBD00@Z 0048b680 f   xygame2:xygutil.obj
 0001:0008a830       ?xygPayResultLog@@YAXPADZZ 0048b830 f   xygame2:xygutil.obj
 0001:0008aa00       ?xygIsExpressionStr@@YA_NPBD@Z 0048ba00 f   xygame2:xygutil.obj
 0001:0008aa40       ??1?$CArray@HH@@UAE@XZ     0048ba40 f i xygame2:xygutil.obj
 0001:0008aa70       ?Serialize@?$CArray@HH@@UAEXAAVCArchive@@@Z 0048ba70 f i xygame2:xygutil.obj
 0001:0008ac00       ??_E?$CArray@HH@@UAEPAXI@Z 0048bc00 f i xygame2:xygutil.obj
 0001:0008ac00       ??_G?$CArray@HH@@UAEPAXI@Z 0048bc00 f i xygame2:xygutil.obj
 0001:0008ac20       ?SetSize@?$CArray@HH@@QAEXHH@Z 0048bc20 f i xygame2:xygutil.obj
 0001:0008ad60       ?SetSize@?$CArray@U_tagCARD@@U1@@@QAEXHH@Z 0048bd60 f i xygame2:xygutil.obj
 0001:0008af70       ?XygInit@@YAPAUHINSTANCE__@@PBDKH@Z 0048bf70 f   xygame2:xygmain.obj
 0001:0008b0a0       ?XygTerm@@YAXPAUHINSTANCE__@@H@Z 0048c0a0 f   xygame2:xygmain.obj
 0001:0008b0c0       ?XygInitNoRes@@YAHPBDK@Z   0048c0c0 f   xygame2:xygmain.obj
 0001:0008b0e0       ?XygTermNoRes@@YAXXZ       0048c0e0 f   xygame2:xygmain.obj
 0001:0008b170       ?OnRequest@CSockClient@@MAEHPAX0@Z 0048c170 f   xygament2:xygsockc.obj
 0001:0008b270       ?OnNotifyClient@CSockClient@@MAEHPAVREQUEST@@@Z 0048c270 f   xygament2:xygsockc.obj
 0001:0008b340       ?OnGameResultUnSave@CSockClient@@MAEHPAVREQUEST@@@Z 0048c340 f   xygament2:xygsockc.obj
 0001:0008b570       ?OnGameResultNotify@CSockClient@@MAEHPAVREQUEST@@@Z 0048c570 f   xygament2:xygsockc.obj
 0001:0008b720       ?OnEnterRoomNotify@CSockClient@@MAEHPAVREQUEST@@@Z 0048c720 f   xygament2:xygsockc.obj
 0001:0008b900       ?OnResponse@CSockClient@@MAEHPAU_tagCONTEXT_HEAD@@PAVREQUEST@@1@Z 0048c900 f   xygament2:xygsockc.obj
 0001:0008bb60       ?OnDefault@CSockClient@@MAEHPAU_tagCONTEXT_HEAD@@PAVREQUEST@@1@Z 0048cb60 f   xygament2:xygsockc.obj
 0001:0008bbe0       ?OnEnterGameExtOK@CSockClient@@MAEHPAU_tagCONTEXT_HEAD@@PAVREQUEST@@1@Z 0048cbe0 f   xygament2:xygsockc.obj
 0001:0008bc10       ?OnEnterGameOK@CSockClient@@MAEHPAU_tagCONTEXT_HEAD@@PAVREQUEST@@1@Z 0048cc10 f   xygament2:xygsockc.obj
 0001:0008bc40       ?OnDeleteFilterWord@CSockClient@@MAEHPAVREQUEST@@@Z 0048cc40 f   xygament2:xygsockc.obj
 0001:0008bd30       ?OnAddFilterWord@CSockClient@@MAEHPAVREQUEST@@@Z 0048cd30 f   xygament2:xygsockc.obj
 0001:0008be50       ?OnForbidChat@CSockClient@@MAEHPAVREQUEST@@@Z 0048ce50 f   xygament2:xygsockc.obj
 0001:0008be70       ?OnPayResult@CSockClient@@MAEHPAVREQUEST@@@Z 0048ce70 f   xygament2:xygsockc.obj
 0001:0008be90       ?OnUserCurrencyExchange@CSockClient@@MAEHPAVREQUEST@@@Z 0048ce90 f   xygament2:xygsockc.obj
 0001:0008bf30       ?NewAssoc@?$CMap@HHU_tagFILTER_WORD_EX@@AAU1@@@IAEPAUCAssoc@1@XZ 0048cf30 f i xygament2:xygsockc.obj
 0001:0008bfa0       ?xygMakeHardID2Code@@YAHPBDHAAK@Z 0048cfa0 f   xygament2:xygsvr.obj
 0001:0008bfc0       ??0CBaseServer@@QAE@PBD00HHKK@Z 0048cfc0 f   xygament2:xygsvr.obj
 0001:0008c590       ??_ECBaseServer@@UAEPAXI@Z 0048d590 f i xygament2:xygsvr.obj
 0001:0008c590       ??_GCBaseServer@@UAEPAXI@Z 0048d590 f i xygament2:xygsvr.obj
 0001:0008c5b0       ??1CBaseServer@@UAE@XZ     0048d5b0 f   xygament2:xygsvr.obj
 0001:0008c940       ?Initialize@CBaseServer@@UAEHXZ 0048d940 f   xygament2:xygsvr.obj
 0001:0008d1c0       ?Shutdown@CBaseServer@@UAEXXZ 0048e1c0 f   xygament2:xygsvr.obj
 0001:0008d400       ?OnDefaultResponse@CBaseServer@@UAEHPAU_tagCONTEXT_HEAD@@PAVREQUEST@@1@Z 0048e400 f   xygament2:xygsvr.obj
 0001:0008d430       ?OnForbidChat@CBaseServer@@UAEHPAVREQUEST@@@Z 0048e430 f   xygament2:xygsvr.obj
 0001:0008d6b0       ?TransmitRequest@CBaseServer@@UAEHPAU_tagCONTEXT_HEAD@@PAVREQUEST@@@Z 0048e6b0 f   xygament2:xygsvr.obj
 0001:0008d780       ?SendReqToCheckSvr@CBaseServer@@UAEHIHPAX@Z 0048e780 f   xygament2:xygsvr.obj
 0001:0008d830       ?SimulateReqFromCheckSvr@CBaseServer@@UAEHIHPAXH@Z 0048e830 f   xygament2:xygsvr.obj
 0001:0008d8d0       ?TransmitEnterMatch@CBaseServer@@UAEHPAU_tagCONTEXT_HEAD@@PAU_tagENTER_MATCH@@@Z 0048e8d0 f   xygament2:xygsvr.obj
 0001:0008d9c0       ?TransmitEnterGame@CBaseServer@@UAEHPAU_tagCONTEXT_HEAD@@PAU_tagENTER_GAME_EX@@@Z 0048e9c0 f   xygament2:xygsvr.obj
 0001:0008da60       ?SubmitRequest@CBaseServer@@UAEHPAU_tagCONTEXT_HEAD@@PAVREQUEST@@@Z 0048ea60 f   xygament2:xygsvr.obj
 0001:0008db30       ?SendReqToRoomSvr@CBaseServer@@UAEHIHPAXH@Z 0048eb30 f   xygament2:xygsvr.obj
 0001:0008dbe0       ?SimulateReqFromRoomSvr@CBaseServer@@UAEHIHPAXH@Z 0048ebe0 f   xygament2:xygsvr.obj
 0001:0008dc80       ?LogDepositError@@YAXPAU_tagREFRESH_RESULT_EX@@PAU_tagGAME_RESULT_EX@@@Z 0048ec80 f   xygament2:xygsvr.obj
 0001:0008ddb0       ?TransmitGameResult@CBaseServer@@UAEHPAU_tagCONTEXT_HEAD@@PAU_tagREFRESH_RESULT_EX@@PAU_tagGAME_RESULT_EX@@H@Z 0048edb0 f   xygament2:xygsvr.obj
 0001:0008df40       ?TransmitGameResultEx@CBaseServer@@UAEHPAVCTable@@PAU_tagCONTEXT_HEAD@@PAU_tagREFRESH_RESULT_EX@@PAU_tagGAME_RESULT_EX@@H@Z 0048ef40 f   xygament2:xygsvr.obj
 0001:0008e130       ?TransmitTakeBonus@CBaseServer@@UAEHPAU_tagCONTEXT_HEAD@@PAU_tagTAKE_DEPOSIT_BONUS@@@Z 0048f130 f   xygament2:xygsvr.obj
 0001:0008e1d0       ?SendPulseData@CBaseServer@@UAEXXZ 0048f1d0 f   xygament2:xygsvr.obj
 0001:0008e290       ?SendPulseDataToRoom@CBaseServer@@UAEXXZ 0048f290 f   xygament2:xygsvr.obj
 0001:0008e350       ?SendGameSvrPulse@CBaseServer@@UAEXXZ 0048f350 f   xygament2:xygsvr.obj
 0001:0008e3d0       ?OnSendGameSvrPulse@CBaseServer@@UAEXXZ 0048f3d0 f   xygament2:xygsvr.obj
 0001:0008e620       ?SendThreadFunc@CBaseServer@@KGIPAX@Z 0048f620 f   xygament2:xygsvr.obj
 0001:0008e630       ?SendThreadProc@CBaseServer@@MAEIXZ 0048f630 f   xygament2:xygsvr.obj
 0001:0008e7c0       ?ConnectThreadFunc@CBaseServer@@KGIPAX@Z 0048f7c0 f   xygament2:xygsvr.obj
 0001:0008e7d0       ?ConnectThreadProc@CBaseServer@@MAEIXZ 0048f7d0 f   xygament2:xygsvr.obj
 0001:0008e980       ?TimerThreadFunc@CBaseServer@@KGIPAX@Z 0048f980 f   xygament2:xygsvr.obj
 0001:0008e990       ?TimerThreadProc@CBaseServer@@MAEIXZ 0048f990 f   xygament2:xygsvr.obj
 0001:0008ea60       ?TimerExThreadFunc@CBaseServer@@KGIPAX@Z 0048fa60 f   xygament2:xygsvr.obj
 0001:0008ea70       ?TimerExThreadProc@CBaseServer@@MAEIXZ 0048fa70 f   xygament2:xygsvr.obj
 0001:0008eb20       ?BroadcastThreadFunc@CBaseServer@@KGIPAX@Z 0048fb20 f   xygament2:xygsvr.obj
 0001:0008eb30       ?BroadcastThreadProc@CBaseServer@@MAEIXZ 0048fb30 f   xygament2:xygsvr.obj
 0001:0008ecd0       ?OnTimerTriggered@CBaseServer@@MAEHKAAH00@Z 0048fcd0 f   xygament2:xygsvr.obj
 0001:0008ed10       ?IsTimingOK@CBaseServer@@MAEHKAAH00@Z 0048fd10 f   xygament2:xygsvr.obj
 0001:0008edd0       ?DoTimingWork@CBaseServer@@MAEHXZ 0048fdd0 f   xygament2:xygsvr.obj
 0001:0008efb0       ?GetFreeMemory@@YAHXZ      0048ffb0 f   xygament2:xygsvr.obj
 0001:0008efd0       ?GetExeMemoryByFileName@@YAHPBD@Z 0048ffd0 f   xygament2:xygsvr.obj
 0001:0008f120       ?GetFileNameExt@@YAXPBDPAD@Z 00490120 f   xygament2:xygsvr.obj
 0001:0008f1c0       ?GetExeMemory@@YAHXZ       004901c0 f   xygament2:xygsvr.obj
 0001:0008f210       ?GetProcessCpuUsage@@YAKPBD@Z 00490210 f   xygament2:xygsvr.obj
 0001:0008f430       ?GetExeProcessCpuUsage@@YAHXZ 00490430 f   xygament2:xygsvr.obj
 0001:0008f4b0       ?OnHourTriggered@CBaseServer@@MAEXAAH@Z 004904b0 f   xygament2:xygsvr.obj
 0001:0008f560       ?MessageThreadFunc@CBaseServer@@KGIPAX@Z 00490560 f   xygament2:xygsvr.obj
 0001:0008f570       ?MessageThreadProc@CBaseServer@@MAEIXZ 00490570 f   xygament2:xygsvr.obj
 0001:0008fb70       ?OnReconnectSvr@CBaseServer@@MAEHH@Z 00490b70 f   xygament2:xygsvr.obj
 0001:0008fbb0       ?OnGetFinished@CBaseServer@@MAEHHHHH@Z 00490bb0 f   xygament2:xygsvr.obj
 0001:0008fd90       ?OnKickOffPlayer@CBaseServer@@MAEHHHHH@Z 00490d90 f   xygament2:xygsvr.obj
 0001:0008ff00       ?OnHardCode@CBaseServer@@MAEHHK@Z 00490f00 f   xygament2:xygsvr.obj
 0001:0008ff20       ?OnRoomTokenID@CBaseServer@@MAEHHH@Z 00490f20 f   xygament2:xygsvr.obj
 0001:0008ff60       ?OnExperience@CBaseServer@@MAEHHH@Z 00490f60 f   xygament2:xygsvr.obj
 0001:0008ff80       ?OnRoomSvrHWnd@CBaseServer@@MAEHHPAUHWND__@@@Z 00490f80 f   xygament2:xygsvr.obj
 0001:0008ffa0       ?OnRoomOption@CBaseServer@@MAEHHK@Z 00490fa0 f   xygament2:xygsvr.obj
 0001:0008ffc0       ?OnRoomConfig@CBaseServer@@MAEHHK@Z 00490fc0 f   xygament2:xygsvr.obj
 0001:0008ffe0       ?OnRoomManage@CBaseServer@@MAEHHK@Z 00490fe0 f   xygament2:xygsvr.obj
 0001:00090000       ?OnGameOption@CBaseServer@@MAEHHK@Z 00491000 f   xygament2:xygsvr.obj
 0001:00090020       ?OnGameParam@CBaseServer@@MAEHHK@Z 00491020 f   xygament2:xygsvr.obj
 0001:00090040       ?OnGameData@CBaseServer@@MAEHHK@Z 00491040 f   xygament2:xygsvr.obj
 0001:00090060       ?OnMinPlayScore@CBaseServer@@MAEHHH@Z 00491060 f   xygament2:xygsvr.obj
 0001:00090080       ?OnMaxPlayScore@CBaseServer@@MAEHHH@Z 00491080 f   xygament2:xygsvr.obj
 0001:000900a0       ?OnClearTable@CBaseServer@@MAEHHH@Z 004910a0 f   xygament2:xygsvr.obj
 0001:000901c0       ?OnRoomTableChair@CBaseServer@@MAEHKH@Z 004911c0 f   xygament2:xygsvr.obj
 0001:000901e0       ?OnLeaveRoom@CBaseServer@@MAEHHH@Z 004911e0 f   xygament2:xygsvr.obj
 0001:000903d0       ?ValidateClientInfo@CBaseServer@@MAEHH@Z 004913d0 f   xygament2:xygsvr.obj
 0001:00090530       ?GetPlayerLevelInfo@CBaseServer@@MAEHXZ 00491530 f   xygament2:xygsvr.obj
 0001:00090670       ?GetFilterWord@CBaseServer@@MAEHXZ 00491670 f   xygament2:xygsvr.obj
 0001:000908b0       ?GetForbidChatData@CBaseServer@@MAEHXZ 004918b0 f   xygament2:xygsvr.obj
 0001:00090bd0       ?RemoveClients@CBaseServer@@MAEHPAVCTable@@JHH@Z 00491bd0 f   xygament2:xygsvr.obj
 0001:00090c50       ?RemoveOneClients@CBaseServer@@MAEHPAVCTable@@HH@Z 00491c50 f   xygament2:xygsvr.obj
 0001:00090d80       ?GetRoom@CBaseServer@@MAEPAVCRoom@@H@Z 00491d80 f   xygament2:xygsvr.obj
 0001:00090ee0       ?GetHardCode@CBaseServer@@MAEKH@Z 00491ee0 f   xygament2:xygsvr.obj
 0001:00090f70       ?GetRoomTokenID@CBaseServer@@MAEHH@Z 00491f70 f   xygament2:xygsvr.obj
 0001:00091000       ?GetExperience@CBaseServer@@MAEHH@Z 00492000 f   xygament2:xygsvr.obj
 0001:00091090       ?GetRoomSvrWnd@CBaseServer@@MAEPAUHWND__@@H@Z 00492090 f   xygament2:xygsvr.obj
 0001:00091150       ?GetRoomOption@CBaseServer@@MAEKH@Z 00492150 f   xygament2:xygsvr.obj
 0001:00091210       ?GetRoomConfig@CBaseServer@@MAEKH@Z 00492210 f   xygament2:xygsvr.obj
 0001:000912d0       ?GetRoomManage@CBaseServer@@MAEKH@Z 004922d0 f   xygament2:xygsvr.obj
 0001:00091390       ?GetGameOption@CBaseServer@@MAEKH@Z 00492390 f   xygament2:xygsvr.obj
 0001:00091450       ?GetGameParam@CBaseServer@@MAEKH@Z 00492450 f   xygament2:xygsvr.obj
 0001:00091510       ?GetGameData@CBaseServer@@MAEKH@Z 00492510 f   xygament2:xygsvr.obj
 0001:000915d0       ?GetMinPlayScore@CBaseServer@@MAEHH@Z 004925d0 f   xygament2:xygsvr.obj
 0001:000916a0       ?GetMaxPlayScore@CBaseServer@@MAEHH@Z 004926a0 f   xygament2:xygsvr.obj
 0001:00091770       ?GetUserID@CBaseServer@@MAEHK@Z 00492770 f   xygament2:xygsvr.obj
 0001:000917f0       ?SetHardCode@CBaseServer@@MAEXHK@Z 004927f0 f   xygament2:xygsvr.obj
 0001:00091950       ?SetRoomTokenID@CBaseServer@@MAEXHH@Z 00492950 f   xygament2:xygsvr.obj
 0001:00091ab0       ?SetExperience@CBaseServer@@MAEXHH@Z 00492ab0 f   xygament2:xygsvr.obj
 0001:00091c10       ?SetRoomSvrWnd@CBaseServer@@MAEXHPAUHWND__@@@Z 00492c10 f   xygament2:xygsvr.obj
 0001:00091d60       ?SetRoomOption@CBaseServer@@MAEXHK@Z 00492d60 f   xygament2:xygsvr.obj
 0001:00091eb0       ?SetRoomConfig@CBaseServer@@MAEXHK@Z 00492eb0 f   xygament2:xygsvr.obj
 0001:00092000       ?SetRoomManage@CBaseServer@@MAEXHK@Z 00493000 f   xygament2:xygsvr.obj
 0001:00092150       ?SetGameOption@CBaseServer@@MAEXHK@Z 00493150 f   xygament2:xygsvr.obj
 0001:000922a0       ?SetGameParam@CBaseServer@@MAEXHK@Z 004932a0 f   xygament2:xygsvr.obj
 0001:000923f0       ?SetGameData@CBaseServer@@MAEXHK@Z 004933f0 f   xygament2:xygsvr.obj
 0001:00092540       ?SetMinPlayScore@CBaseServer@@MAEXHH@Z 00493540 f   xygament2:xygsvr.obj
 0001:00092690       ?SetMaxPlayScore@CBaseServer@@MAEXHH@Z 00493690 f   xygament2:xygsvr.obj
 0001:000927e0       ?CheckUserClient@CBaseServer@@MAEHHPAU_tagCONTEXT_HEAD@@@Z 004937e0 f   xygament2:xygsvr.obj
 0001:00092890       ?SetUserID@CBaseServer@@MAEXKH@Z 00493890 f   xygament2:xygsvr.obj
 0001:00092a00       ?RemoveRoomTableChairs@CBaseServer@@MAEXHHH@Z 00493a00 f   xygament2:xygsvr.obj
 0001:00092b30       ?RemoveRoomTable@CBaseServer@@MAEXHH@Z 00493b30 f   xygament2:xygsvr.obj
 0001:00092c60       ?SetEnterParams@CBaseServer@@MAEXHHHHIJ@Z 00493c60 f   xygament2:xygsvr.obj
 0001:00092e40       ?SetEnterParams@CBaseServer@@MAEXHHHHHHIJ@Z 00493e40 f   xygament2:xygsvr.obj
 0001:00093130       ?SetEnterParams@CBaseServer@@MAEXPAVCRoom@@HHH@Z 00494130 f   xygament2:xygsvr.obj
 0001:000932f0       ?SetUserDataParam@CBaseServer@@MAEXHHHH@Z 004942f0 f   xygament2:xygsvr.obj
 0001:00093460       ?SetVistorParams@CBaseServer@@MAEXPAVCRoom@@HIJH@Z 00494460 f   xygament2:xygsvr.obj
 0001:00093470       ?ClearStaleUserData@CBaseServer@@MAEHK@Z 00494470 f   xygament2:xygsvr.obj
 0001:00093650       ?OpeAfterCheckResult@CBaseServer@@MAEXPAVCTable@@PAXHHH@Z 00494650 f   xygament2:xygsvr.obj
 0001:00093660       ?SendToRoomThreadFunc@CBaseServer@@KGIPAX@Z 00494660 f   xygament2:xygsvr.obj
 0001:00093670       ?SendToRoomThreadProc@CBaseServer@@MAEIXZ 00494670 f   xygament2:xygsvr.obj
 0001:00093800       ?ConnectRoomThreadFunc@CBaseServer@@KGIPAX@Z 00494800 f   xygament2:xygsvr.obj
 0001:00093810       ?ConnectRoomThreadProc@CBaseServer@@MAEIXZ 00494810 f   xygament2:xygsvr.obj
 0001:000939e0       ?OnRequest@CBaseServer@@MAEHPAX0@Z 004949e0 f   xygament2:xygsvr.obj
 0001:00093df0       ?OnReconnectSvr@CBaseServer@@MAEHPAU_tagCONTEXT_HEAD@@PAVREQUEST@@PAVCWorkerContext@@@Z 00494df0 f   xygament2:xygsvr.obj
 0001:00093f30       ?EjectLeaveGame@CBaseServer@@UAEHHHHHIJ@Z 00494f30 f   xygament2:xygsvr.obj
 0001:00093f40       ?EjectLeaveGameEx@CBaseServer@@UAEHHHHHIJ@Z 00494f40 f   xygament2:xygsvr.obj
 0001:00093f50       ?EjectStartGame@CBaseServer@@UAEHHHHHIJ@Z 00494f50 f   xygament2:xygsvr.obj
 0001:00093f60       ?OnGameEntered@CBaseServer@@UAEHPAVCTable@@HHHHIJ@Z 00494f60 f   xygament2:xygsvr.obj
 0001:00094030       ?OnGameLeft@CBaseServer@@UAEHHH@Z 00495030 f   xygament2:xygsvr.obj
 0001:00094060       ?OnGameLeft@CBaseServer@@UAEHHHHH@Z 00495060 f   xygament2:xygsvr.obj
 0001:000940b0       ?PostSoloUserBoutEnd@CBaseServer@@MAEHHH@Z 004950b0 f   xygament2:xygsvr.obj
 0001:000940e0       ?RegistOnRoomSvr@CBaseServer@@UAEHXZ 004950e0 f   xygament2:xygsvr.obj
 0001:000941e0       ?RegistUserOnRoomSvr@CBaseServer@@UAEHHH@Z 004951e0 f   xygament2:xygsvr.obj
 0001:000942a0       ?MatchPlayerLeave@CBaseServer@@UAEHHHH@Z 004952a0 f   xygament2:xygsvr.obj
 0001:000944e0       ?ClearPlayerInfo@CBaseServer@@MAEHHHH@Z 004954e0 f   xygament2:xygsvr.obj
 0001:000946d0       ?FreshUserDataFromMatchResult@CBaseServer@@MAEXPAVCRoom@@PAU_tagUSER_DIFF@@@Z 004956d0 f   xygament2:xygsvr.obj
 0001:00094920       ?CreateMatchTable@CBaseServer@@UAEHPAU_tagARRANGE_TABLE@@@Z 00495920 f   xygament2:xygsvr.obj
 0001:00094df0       ?OnGameStart@CBaseServer@@MAEHPAU_tagGAME_START@@@Z 00495df0 f   xygament2:xygsvr.obj
 0001:00094e00       ?NotifyOverTime@CBaseServer@@UAEXPAU_tagMATCH_OVERTIME@@@Z 00495e00 f   xygament2:xygsvr.obj
 0001:00094e10       ?NotifyPlayerList@CBaseServer@@UAEXPAU_tagMATCH_RECOVER@@@Z 00495e10 f   xygament2:xygsvr.obj
 0001:000950c0       ?NotifyUserStatus@CBaseServer@@UAEXPAU_tagMATCH_USER_STATUS@@@Z 004960c0 f   xygament2:xygsvr.obj
 0001:000950f0       ?NotifyMatchFinish@CBaseServer@@UAEXPAU_tagMATCH_ASKGAIN@@H@Z 004960f0 f   xygament2:xygsvr.obj
 0001:00095290       ?NotifyMatchGain@CBaseServer@@UAEXPAU_tagMATCH_USERGAIN@@H@Z 00496290 f   xygament2:xygsvr.obj
 0001:00095430       ?CreateArrangeTableInfo@CBaseServer@@UAEPAEPAVCRoom@@PAVCTable@@AAH@Z 00496430 f   xygament2:xygsvr.obj
 0001:00095560       ?NotifyMatchRankList@CBaseServer@@UAEXPAU_tagMATCH_RANK_LIST@@@Z 00496560 f   xygament2:xygsvr.obj
 0001:000955c0       ?NotifyUserWaitFinal@CBaseServer@@UAEXPAU_tagMATCH_WAIT_FINAL@@@Z 004965c0 f   xygament2:xygsvr.obj
 0001:000955e0       ?NotifyRoom@CBaseServer@@UAEHHIPAXHH@Z 004965e0 f   xygament2:xygsvr.obj
 0001:00095720       ?OnPlayerWaitArrage@CBaseServer@@UAEHPAU_tagCONTEXT_HEAD@@PAU_tagMATCH_PLAYER@@PAU_tagMATCH_HINT@@@Z 00496720 f   xygament2:xygsvr.obj
 0001:000959e0       ?OnPlayerDXXW@CBaseServer@@UAEHPAU_tagCONTEXT_HEAD@@PAU_tagMATCH_PLAYER@@PAU_tagMATCH_HINT@@H@Z 004969e0 f   xygament2:xygsvr.obj
 0001:00096010       ?OnEnterMatchDXXW@CBaseServer@@UAEHPAU_tagCONTEXT_HEAD@@PAVCTable@@PAVCPlayer@@@Z 00497010 f   xygament2:xygsvr.obj
 0001:00096020       ?OnPlayerEnterMatch@CBaseServer@@UAEHPAU_tagCONTEXT_HEAD@@PAU_tagMATCH_PLAYER@@PAU_tagMATCH_HINT@@@Z 00497020 f   xygament2:xygsvr.obj
 0001:000965a0       ?OnPlayerEnterGameExt@CBaseServer@@UAEHPAU_tagCONTEXT_HEAD@@PAXPAVREQUEST@@@Z 004975a0 f   xygament2:xygsvr.obj
 0001:000965b0       ?OnPlayerEnterGame@CBaseServer@@UAEHPAU_tagCONTEXT_HEAD@@PAU_tagENTER_GAME_OK_EX@@PAVREQUEST@@@Z 004975b0 f   xygament2:xygsvr.obj
 0001:000965c0       ?CalcEnterUserDatelen@CBaseServer@@UAEHPAVCRoom@@PAVCTable@@PAVCPlayer@@@Z 004975c0 f   xygament2:xygsvr.obj
 0001:00096610       ?CopyEnterUserData@CBaseServer@@UAEXPAVCRoom@@PAVCTable@@PAVCPlayer@@PAEH@Z 00497610 f   xygament2:xygsvr.obj
 0001:000967d0       ?OnPlayerEnterSpecialGame@CBaseServer@@UAEHPAU_tagCONTEXT_HEAD@@PAXPAVREQUEST@@@Z 004977d0 f   xygament2:xygsvr.obj
 0001:000967e0       ?NotifyOneUserStartSoloTable@CBaseServer@@UAEXHIJPAXH@Z 004977e0 f   xygament2:xygsvr.obj
 0001:00096810       ?NotifyPlayersSomeoneEnter@CBaseServer@@UAEXPAVCTable@@PAU_tagSOLO_PLAYER@@J@Z 00497810 f   xygament2:xygsvr.obj
 0001:00096840       ?NotifyVistorsSomeoneEnter@CBaseServer@@UAEXPAVCTable@@PAU_tagSOLO_PLAYER@@J@Z 00497840 f   xygament2:xygsvr.obj
 0001:00096870       ?NotifyOneUserErrorInfo@CBaseServer@@UAEXPAU_tagCONTEXT_HEAD@@PBD@Z 00497870 f   xygament2:xygsvr.obj
 0001:00096910       ?NotifyUser@CBaseServer@@UAEHPAVCRoom@@HIPAXHH@Z 00497910 f   xygament2:xygsvr.obj
 0001:00096920       ?NotifyUser@CBaseServer@@UAEHHHIPAXHH@Z 00497920 f   xygament2:xygsvr.obj
 0001:00096930       ?SimulateReqFromUser@CBaseServer@@UAEHIJIHPAX@Z 00497930 f   xygament2:xygsvr.obj
 0001:000969c0       ?SimulateDelayReqFromUser@CBaseServer@@UAEHIJIHPAXK@Z 004979c0 f   xygament2:xygsvr.obj
 0001:00096a80       ?PlayerEnterMatchTable@CBaseServer@@UAEHHHHHHH@Z 00497a80 f   xygament2:xygsvr.obj
 0001:00096d20       ?NotifyMatchStart@CBaseServer@@UAEXPAU_tagMATCH_START@@@Z 00497d20 f   xygament2:xygsvr.obj
 0001:00096ec0       ?NotifyMatchClear@CBaseServer@@UAEXH@Z 00497ec0 f   xygament2:xygsvr.obj
 0001:00097180       ?NotifyKickOffPlayer@CBaseServer@@UAEXPAU_tagMATCH_KICKPLAYER@@@Z 00498180 f   xygament2:xygsvr.obj
 0001:000972e0       ?NotifyTerminateTable@CBaseServer@@UAEXPAU_tagTERMINATE_TABLE@@@Z 004982e0 f   xygament2:xygsvr.obj
 0001:000973e0       ?NotifyMatchCanceled@CBaseServer@@UAEXPAU_tagMATCH_CANCELED@@@Z 004983e0 f   xygament2:xygsvr.obj
 0001:00097400       ?NotifyMatchSignUped@CBaseServer@@UAEXPAU_tagMATCH_SIGNUPED@@@Z 00498400 f   xygament2:xygsvr.obj
 0001:00097420       ?NotifyMatchSignUpOK@CBaseServer@@UAEXPAU_tagMATCH_SIGNUPOK@@@Z 00498420 f   xygament2:xygsvr.obj
 0001:000974a0       ?NotifyMatchGiveUpOK@CBaseServer@@UAEXPAU_tagMATCH_SIGNUPOK@@@Z 004984a0 f   xygament2:xygsvr.obj
 0001:000974f0       ?OnNewTable@CBaseServer@@UAEPAVCTable@@HHH@Z 004984f0 f   xygament2:xygsvr.obj
 0001:00097570       ?OnNewPlayer@CBaseServer@@UAEPAVCPlayer@@PBDHHHH@Z 00498570 f   xygament2:xygsvr.obj
 0001:000975f0       ?MatchTriggerThreadProc@CBaseServer@@UAEIXZ 004985f0 f   xygament2:xygsvr.obj
 0001:00097630       ?MatchTriggerThreadFunc@CBaseServer@@SGIPAX@Z 00498630 f   xygament2:xygsvr.obj
 0001:00097640       ?CheckRoomStatus@CBaseServer@@UAEXXZ 00498640 f   xygament2:xygsvr.obj
 0001:00097740       ?CheckTableStatus@CBaseServer@@UAEXPAVCRoom@@@Z 00498740 f   xygament2:xygsvr.obj
 0001:000978f0       ?CreateSimulateRequst@CBaseServer@@UAEXKIHPAXIJ@Z 004988f0 f   xygament2:xygsvr.obj
 0001:000979d0       ?FreshSimulateRequest@CBaseServer@@UAEXK@Z 004989d0 f   xygament2:xygsvr.obj
 0001:00097aa0       ?ClearSimulateRequest@CBaseServer@@UAEXXZ 00498aa0 f   xygament2:xygsvr.obj
 0001:00097ae0       ?OnPlayerOffline@CBaseServer@@MAEXPAVCTable@@H@Z 00498ae0 f   xygament2:xygsvr.obj
 0001:00097af0       ?OnUserStart@CBaseServer@@MAEHPAVCTable@@H@Z 00498af0 f   xygament2:xygsvr.obj
 0001:00097c90       ?OnGameStarted@CBaseServer@@MAEHPAVCTable@@K@Z 00498c90 f   xygament2:xygsvr.obj
 0001:00097ca0       ?OnConnectSocket@CBaseServer@@UAEHPAU_tagCONTEXT_HEAD@@PAVREQUEST@@PAVCWorkerContext@@@Z 00498ca0 f   xygament2:xygsvr.obj
 0001:00097dc0       ?RemoveTokenInfo@CBaseServer@@UAEXH@Z 00498dc0 f   xygament2:xygsvr.obj
 0001:00097ed0       ?RemoveTokenData@CBaseServer@@UAEHJAAH00@Z 00498ed0 f   xygament2:xygsvr.obj
 0001:00097f00       ?SetTokenUser@CBaseServer@@UAEHJHH@Z 00498f00 f   xygament2:xygsvr.obj
 0001:00098050       ?OnPlayerInvalid@CBaseServer@@UAEHPAU_tagCONTEXT_HEAD@@PAVREQUEST@@1@Z 00499050 f   xygament2:xygsvr.obj
 0001:00098160       ?OnMatchSignUp@CBaseServer@@MAEHPAU_tagCONTEXT_HEAD@@PAU_tagMATCH_ASKSIGNUP@@@Z 00499160 f   xygament2:xygsvr.obj
 0001:00098280       ?OnMatchGiveUp@CBaseServer@@MAEHPAU_tagCONTEXT_HEAD@@PAU_tagMATCH_ASKSIGNUP@@@Z 00499280 f   xygament2:xygsvr.obj
 0001:000983a0       ?OnMatchGetUserDetail@CBaseServer@@MAEHPAU_tagCONTEXT_HEAD@@PAVREQUEST@@PAVCWorkerContext@@@Z 004993a0 f   xygament2:xygsvr.obj
 0001:00098690       ?OnGameUnableContinue@CBaseServer@@UAEHPAVCTable@@PBD@Z 00499690 f   xygament2:xygsvr.obj
 0001:000986a0       ?OnMatchUnableContinue@CBaseServer@@UAEHPAVCTable@@PBD@Z 004996a0 f   xygament2:xygsvr.obj
 0001:000986b0       ?PostVerifyStart@CBaseServer@@UAEXHHHH@Z 004996b0 f   xygament2:xygsvr.obj
 0001:00098700       ?PostAskNewTable@CBaseServer@@UAEXHHHH@Z 00499700 f   xygament2:xygsvr.obj
 0001:00098750       ?PostSoloGameStart@CBaseServer@@UAEHHH@Z 00499750 f   xygament2:xygsvr.obj
 0001:00098790       ?PostSoloGameWin@CBaseServer@@UAEHHH@Z 00499790 f   xygament2:xygsvr.obj
 0001:000987d0       ?PostGameStart@CBaseServer@@UAEXHH@Z 004997d0 f   xygament2:xygsvr.obj
 0001:00098810       ?PostGameBoutEnd@CBaseServer@@UAEXHHPAVCTable@@@Z 00499810 f   xygament2:xygsvr.obj
 0001:000988e0       ?PostUserPlayingStatus@CBaseServer@@UAEXHH_N@Z 004998e0 f   xygament2:xygsvr.obj
 0001:00098940       ?PostCloseSoloTable@CBaseServer@@UAEHHH@Z 00499940 f   xygament2:xygsvr.obj
 0001:00098980       ?PostChangeTable@CBaseServer@@UAEXHHHH@Z 00499980 f   xygament2:xygsvr.obj
 0001:000989d0       ?PostChangeChair@CBaseServer@@UAEXHHHH@Z 004999d0 f   xygament2:xygsvr.obj
 0001:00098a20       ?PostWelfareDeposit@CBaseServer@@UAEXHHH@Z 00499a20 f   xygament2:xygsvr.obj
 0001:00098a70       ?PostAddDeposit@CBaseServer@@UAEXHHH@Z 00499a70 f   xygament2:xygsvr.obj
 0001:00098ac0       ?PostMinusDeposit@CBaseServer@@UAEXHHH@Z 00499ac0 f   xygament2:xygsvr.obj
 0001:00098b10       ?PostAddScore@CBaseServer@@UAEXHHH@Z 00499b10 f   xygament2:xygsvr.obj
 0001:00098b60       ?PostMinusScore@CBaseServer@@UAEXHHH@Z 00499b60 f   xygament2:xygsvr.obj
 0001:00098bb0       ?IsSoloRoom@CBaseServer@@UAEHH@Z 00499bb0 f   xygament2:xygsvr.obj
 0001:00098bd0       ?IsRandomRoom@CBaseServer@@UAEHH@Z 00499bd0 f   xygament2:xygsvr.obj
 0001:00098bf0       ?IsWaitCheckResult@CBaseServer@@UAEHH@Z 00499bf0 f   xygament2:xygsvr.obj
 0001:00098c20       ?IsLeaveAlone@CBaseServer@@UAEHH@Z 00499c20 f   xygament2:xygsvr.obj
 0001:00098c40       ?IsPrivateRoom@CBaseServer@@UAEHH@Z 00499c40 f   xygament2:xygsvr.obj
 0001:00098c70       ?IsCloakingRoom@CBaseServer@@UAEHH@Z 00499c70 f   xygament2:xygsvr.obj
 0001:00098c90       ?IsTakeDepositRoom@CBaseServer@@UAEHH@Z 00499c90 f   xygament2:xygsvr.obj
 0001:00098cc0       ?IsNeedDepositRoom@CBaseServer@@UAEHH@Z 00499cc0 f   xygament2:xygsvr.obj
 0001:00098ce0       ?IsRoomInOpenTime@CBaseServer@@UAEHHAAH0@Z 00499ce0 f   xygament2:xygsvr.obj
 0001:00098e10       ?IsForbidChatUserID@CBaseServer@@UAEHHAAH@Z 00499e10 f   xygament2:xygsvr.obj
 0001:00098ea0       ?IsForbidChatMachine@CBaseServer@@UAEHPBDAAH@Z 00499ea0 f   xygament2:xygsvr.obj
 0001:00098fc0       ?IsForbidChatUser@CBaseServer@@UAEHHPBDAAH@Z 00499fc0 f   xygament2:xygsvr.obj
 0001:00099010       ?GetYxpdSvrINIFileName@@YA?AVCString@@XZ 0049a010 f   xygament2:xygsvr.obj
 0001:000990c0       ?IsFileExistEx@@YAHPBD@Z   0049a0c0 f   xygament2:xygsvr.obj
 0001:00099100       ?BuildDirectory@@YAHVCString@@H@Z 0049a100 f   xygament2:xygsvr.obj
 0001:000992a0       ?RegistInSystem@CBaseServer@@UAEXXZ 0049a2a0 f   xygament2:xygsvr.obj
 0001:000993d0       ?StoreUpGameWin@CBaseServer@@UAEXPAVCTable@@PAXHH@Z 0049a3d0 f   xygament2:xygsvr.obj
 0001:00099540       ?NotifyClientGameWin@CBaseServer@@UAEXPAVCTable@@@Z 0049a540 f   xygament2:xygsvr.obj
 0001:00099570       ?NotifyMatchWWW@CBaseServer@@UAEXHHIJ@Z 0049a570 f   xygament2:xygsvr.obj
 0001:00099710       ?NotifyHandPhoneQRCodeURL@CBaseServer@@UAEXHHIJ@Z 0049a710 f   xygament2:xygsvr.obj
 0001:00099830       ?ClearGameWin@CBaseServer@@UAEXPAVCTable@@@Z 0049a830 f   xygament2:xygsvr.obj
 0001:00099980       ?CheckGameWin@CBaseServer@@UAEXXZ 0049a980 f   xygament2:xygsvr.obj
 0001:00099c50       ?OnVerifyStart@CBaseServer@@MAEHHHHH@Z 0049ac50 f   xygament2:xygsvr.obj
 0001:00099dc0       ?OnVerifyStartFaild@CBaseServer@@MAEHHHHH@Z 0049adc0 f   xygament2:xygsvr.obj
 0001:00099dd0       ?xyGetAboveFolder@@YA?AVCString@@PBD@Z 0049add0 f   xygament2:xygsvr.obj
 0001:00099ee0       ?OnStartSoloTable@CBaseServer@@MAEHHH@Z 0049aee0 f   xygament2:xygsvr.obj
 0001:0009a080       ?CheckOpenTime@CBaseServer@@UAEHPAVCTable@@@Z 0049b080 f   xygament2:xygsvr.obj
 0001:0009a130       ?StartSoloTable@CBaseServer@@MAEHPAU_tagSTART_SOLOTABLE@@@Z 0049b130 f   xygament2:xygsvr.obj
 0001:0009ae10       ?NotifyServiceFee@CBaseServer@@UAEXPAVCTable@@@Z 0049be10 f   xygament2:xygsvr.obj
 0001:0009ae20       ?NotifyScoreProtect@CBaseServer@@UAEXPAVCTable@@@Z 0049be20 f   xygament2:xygsvr.obj
 0001:0009ae30       ?NotifySoloPlayerRealData@CBaseServer@@UAEXPAVCTable@@@Z 0049be30 f   xygament2:xygsvr.obj
 0001:0009ae40       ?RecordUserGameBout@CBaseServer@@MAEXPAVCTable@@@Z 0049be40 f   xygament2:xygsvr.obj
 0001:0009b010       ?CloseClientInSolo@CBaseServer@@MAEHH@Z 0049c010 f   xygament2:xygsvr.obj
 0001:0009b200       ?MoveUserToChair@CBaseServer@@MAEHHHHPAU_tagSOLO_PLAYER@@@Z 0049c200 f   xygament2:xygsvr.obj
 0001:0009b900       ?LookupUserData@CBaseServer@@UAEHHAAU_tagUSER_DATA@@@Z 0049c900 f   xygament2:xygsvr.obj
 0001:0009b990       ?SetUserData@CBaseServer@@UAEXHAAU_tagUSER_DATA@@AAU_tagGAME_PULSE@@@Z 0049c990 f   xygament2:xygsvr.obj
 0001:0009bb80       ?RemoveUserData@CBaseServer@@UAEXH@Z 0049cb80 f   xygament2:xygsvr.obj
 0001:0009bc90       ?UserCloseClient@CBaseServer@@UAEXJ@Z 0049cc90 f   xygament2:xygsvr.obj
 0001:0009bec0       ?ClearUserToken@CBaseServer@@UAEXXZ 0049cec0 f   xygament2:xygsvr.obj
 0001:0009c070       ?CalcBreakUsers@CBaseServer@@UAEXH@Z 0049d070 f   xygament2:xygsvr.obj
 0001:0009c380       ?RecordGameRunLog@CBaseServer@@UAEXXZ 0049d380 f   xygament2:xygsvr.obj
 0001:0009d480       ?LogAnalyFile@CBaseServer@@UAAXPBDZZ 0049e480 f   xygament2:xygsvr.obj
 0001:0009d550       ?LogAnalyPrintf@CBaseServer@@UAEXPAD@Z 0049e550 f   xygament2:xygsvr.obj
 0001:0009d780       ?LookupSoloPlayer@CBaseServer@@UAEHHAAU_tagSOLO_PLAYER@@@Z 0049e780 f   xygament2:xygsvr.obj
 0001:0009d810       ?SetSoloPlayer@CBaseServer@@UAEXHAAU_tagSOLO_PLAYER@@@Z 0049e810 f   xygament2:xygsvr.obj
 0001:0009d900       ?RemoveSoloPlayer@CBaseServer@@UAEXH@Z 0049e900 f   xygament2:xygsvr.obj
 0001:0009da10       ?FormatDateAndTime@@YA?AVCString@@HH@Z 0049ea10 f   xygament2:xygsvr.obj
 0001:0009dbf0       ?GetOutOfOpenTimeCause@CBaseServer@@UAE?AVCString@@PAU_tagOUT_OF_OPENTIME@@@Z 0049ebf0 f   xygament2:xygsvr.obj
 0001:0009df90       ?GetOpenTimeSection@CBaseServer@@UAEHHPAU_tagOUT_OF_OPENTIME@@@Z 0049ef90 f   xygament2:xygsvr.obj
 0001:0009e180       ?GetActivitySection@CBaseServer@@UAEHPAU_tagOUT_OF_OPENTIME@@@Z 0049f180 f   xygament2:xygsvr.obj
 0001:0009e370       ?GetStrByRemainSec@CBaseServer@@UAE?AVCString@@H@Z 0049f370 f   xygament2:xygsvr.obj
 0001:0009e510       ?CheckRoomInOpenTime@CBaseServer@@UAEHH@Z 0049f510 f   xygament2:xygsvr.obj
 0001:0009e8d0       ?xyStrstr@@YAPADPBD0@Z     0049f8d0 f   xygament2:xygsvr.obj
 0001:0009e970       ?IsIncludeFilterWord@CBaseServer@@MAEHPBD@Z 0049f970 f   xygament2:xygsvr.obj
 0001:0009ea80       ?xyStrstrEx@@YAPADPBD0H@Z  0049fa80 f   xygament2:xygsvr.obj
 0001:0009ec10       ?xyStrTrim_Info@@YAXPAD0@Z 0049fc10 f   xygament2:xygsvr.obj
 0001:0009ec60       ?xyStrTrim_Num@@YAXPAD0@Z  0049fc60 f   xygament2:xygsvr.obj
 0001:0009eca0       ?IsIncludeFilterWord@CBaseServer@@MAEHPBDH@Z 0049fca0 f   xygament2:xygsvr.obj
 0001:0009ee90       ?SetEnterRoomTime@CBaseServer@@MAEXHH@Z 0049fe90 f   xygament2:xygsvr.obj
 0001:0009f000       ?GetEnterRoomTime@CBaseServer@@MAEHH@Z 004a0000 f   xygament2:xygsvr.obj
 0001:0009f090       ?SetUserLastSpeakInfo@CBaseServer@@MAEXH@Z 004a0090 f   xygament2:xygsvr.obj
 0001:0009f1f0       ?SetVisitorLastSpeakInfo@CBaseServer@@MAEXHHH@Z 004a01f0 f   xygament2:xygsvr.obj
 0001:0009f380       ?GetUserLastSpeakInfo@CBaseServer@@MAEHHAAH@Z 004a0380 f   xygament2:xygsvr.obj
 0001:0009f420       ?GetVisitorLastSpeakInfo@CBaseServer@@MAEHHAAH00@Z 004a0420 f   xygament2:xygsvr.obj
 0001:0009f4e0       ?VerifyVistorSpeak@CBaseServer@@MAEHHHHPBD@Z 004a04e0 f   xygament2:xygsvr.obj
 0001:0009f5b0       ?VerifyUserSpeak@CBaseServer@@MAEHH@Z 004a05b0 f   xygament2:xygsvr.obj
 0001:0009f610       ?GetUserSpeakSpan@CBaseServer@@MAEHXZ 004a0610 f   xygament2:xygsvr.obj
 0001:0009f630       ?OnMinDeposit@CBaseServer@@MAEHHH@Z 004a0630 f   xygament2:xygsvr.obj
 0001:0009f650       ?OnMaxDeposit@CBaseServer@@MAEHHH@Z 004a0650 f   xygament2:xygsvr.obj
 0001:0009f670       ?GetMinDeposit@CBaseServer@@MAEHH@Z 004a0670 f   xygament2:xygsvr.obj
 0001:0009f740       ?GetMaxDeposit@CBaseServer@@MAEHH@Z 004a0740 f   xygament2:xygsvr.obj
 0001:0009f810       ?SetMinDeposit@CBaseServer@@MAEXHH@Z 004a0810 f   xygament2:xygsvr.obj
 0001:0009f960       ?SetMaxDeposit@CBaseServer@@MAEXHH@Z 004a0960 f   xygament2:xygsvr.obj
 0001:0009fab0       ?IsAllowStartGame@CBaseServer@@MAEHPAVCTable@@H@Z 004a0ab0 f   xygament2:xygsvr.obj
 0001:0009fac0       ?IsVariableChairRoom@CBaseServer@@MAEHH@Z 004a0ac0 f   xygament2:xygsvr.obj
 0001:0009faf0       ?GetMinPlayerCount@CBaseServer@@MAEHPAVCTable@@H@Z 004a0af0 f   xygament2:xygsvr.obj
 0001:0009fb00       ?GetCountdown@CBaseServer@@MAEHPAVCTable@@H@Z 004a0b00 f   xygament2:xygsvr.obj
 0001:0009fb10       ?OnLookSafeDeposit@CBaseServer@@UAEHPAU_tagCONTEXT_HEAD@@PAVREQUEST@@PAVCWorkerContext@@@Z 004a0b10 f   xygament2:xygsvr.obj
 0001:0009fcc0       ?OnLookSafeDepositOK@CBaseServer@@UAEHPAU_tagCONTEXT_HEAD@@PAVREQUEST@@1@Z 004a0cc0 f   xygament2:xygsvr.obj
 0001:0009fd20       ?OnTakeSafeDeposit@CBaseServer@@UAEHPAU_tagCONTEXT_HEAD@@PAVREQUEST@@PAVCWorkerContext@@@Z 004a0d20 f   xygament2:xygsvr.obj
 0001:000a0230       ?OnTakeSafeDepositOK@CBaseServer@@UAEHPAU_tagCONTEXT_HEAD@@PAVREQUEST@@1@Z 004a1230 f   xygament2:xygsvr.obj
 0001:000a04d0       ?OnSaveSafeDeposit@CBaseServer@@UAEHPAU_tagCONTEXT_HEAD@@PAVREQUEST@@PAVCWorkerContext@@@Z 004a14d0 f   xygament2:xygsvr.obj
 0001:000a0990       ?OnSaveSafeDepositOK@CBaseServer@@UAEHPAU_tagCONTEXT_HEAD@@PAVREQUEST@@1@Z 004a1990 f   xygament2:xygsvr.obj
 0001:000a0c30       ?OnTakeSafeRndKey@CBaseServer@@UAEHPAU_tagCONTEXT_HEAD@@PAVREQUEST@@PAVCWorkerContext@@@Z 004a1c30 f   xygament2:xygsvr.obj
 0001:000a0d90       ?OnTakeSafeRndKeyOK@CBaseServer@@UAEHPAU_tagCONTEXT_HEAD@@PAVREQUEST@@1@Z 004a1d90 f   xygament2:xygsvr.obj
 0001:000a0df0       ?OnLookBackDepositInGame@CBaseServer@@UAEHPAU_tagCONTEXT_HEAD@@PAVREQUEST@@PAVCWorkerContext@@@Z 004a1df0 f   xygament2:xygsvr.obj
 0001:000a0fa0       ?OnLookBackDepositInGameOK@CBaseServer@@UAEHPAU_tagCONTEXT_HEAD@@PAVREQUEST@@1@Z 004a1fa0 f   xygament2:xygsvr.obj
 0001:000a1000       ?OnTakeBackDepositInGame@CBaseServer@@UAEHPAU_tagCONTEXT_HEAD@@PAVREQUEST@@PAVCWorkerContext@@@Z 004a2000 f   xygament2:xygsvr.obj
 0001:000a14c0       ?OnTakeBackDepositInGameOK@CBaseServer@@UAEHPAU_tagCONTEXT_HEAD@@PAVREQUEST@@1@Z 004a24c0 f   xygament2:xygsvr.obj
 0001:000a1760       ?OnSaveBackDepositInGame@CBaseServer@@UAEHPAU_tagCONTEXT_HEAD@@PAVREQUEST@@PAVCWorkerContext@@@Z 004a2760 f   xygament2:xygsvr.obj
 0001:000a1c20       ?OnSaveBackDepositInGameOK@CBaseServer@@UAEHPAU_tagCONTEXT_HEAD@@PAVREQUEST@@1@Z 004a2c20 f   xygament2:xygsvr.obj
 0001:000a1ec0       ?OnNewTableChair@CBaseServer@@MAEHHHHH@Z 004a2ec0 f   xygament2:xygsvr.obj
 0001:000a2530       ?OnNewChair@CBaseServer@@MAEHHHHH@Z 004a3530 f   xygament2:xygsvr.obj
 0001:000a2920       ?OnHomeUserID@CBaseServer@@MAEHHH@Z 004a3920 f   xygament2:xygsvr.obj
 0001:000a2a70       ?OnUserClothing@CBaseServer@@MAEHHH@Z 004a3a70 f   xygament2:xygsvr.obj
 0001:000a2da0       ?OnBecomeMember@CBaseServer@@MAEHHH@Z 004a3da0 f   xygament2:xygsvr.obj
 0001:000a30f0       ?OnVerifyRoomTableChair@CBaseServer@@MAEHHHHH@Z 004a40f0 f   xygament2:xygsvr.obj
 0001:000a3350       ?OnAskNewTableChair@CBaseServer@@UAEHPAU_tagCONTEXT_HEAD@@PAVREQUEST@@PAVCWorkerContext@@@Z 004a4350 f   xygament2:xygsvr.obj
 0001:000a36d0       ?OnAskOnlyChangeChair@CBaseServer@@UAEHPAU_tagCONTEXT_HEAD@@PAVREQUEST@@PAVCWorkerContext@@@Z 004a46d0 f   xygament2:xygsvr.obj
 0001:000a3a40       ?OnHomeTickPlayer@CBaseServer@@UAEHPAU_tagCONTEXT_HEAD@@PAVREQUEST@@PAVCWorkerContext@@@Z 004a4a40 f   xygament2:xygsvr.obj
 0001:000a3f00       ?GetAskNewTableTimeSpan@CBaseServer@@UAEHXZ 004a4f00 f   xygament2:xygsvr.obj
 0001:000a3f20       ?VerifyAskNewTableChair@CBaseServer@@UAEHH@Z 004a4f20 f   xygament2:xygsvr.obj
 0001:000a40b0       ?OnChangeHomeUserID@CBaseServer@@UAEHHPAVCTable@@@Z 004a50b0 f   xygament2:xygsvr.obj
 0001:000a41a0       ?OnAskRandomTable@CBaseServer@@UAEHPAU_tagCONTEXT_HEAD@@PAVREQUEST@@PAVCWorkerContext@@@Z 004a51a0 f   xygament2:xygsvr.obj
 0001:000a4730       ?KickOffTooManyIdlePlayer@CBaseServer@@MAEXPAVCTable@@H@Z 004a5730 f   xygament2:xygsvr.obj
 0001:000a4740       ?GetMinPlayingDeposit@CBaseServer@@MAEHPAVCTable@@H@Z 004a5740 f   xygament2:xygsvr.obj
 0001:000a4750       ?IsCheckDepositMin@CBaseServer@@UAEHH@Z 004a5750 f   xygament2:xygsvr.obj
 0001:000a4780       ?IsCheckDepositMax@CBaseServer@@UAEHH@Z 004a5780 f   xygament2:xygsvr.obj
 0001:000a47b0       ?GetChatTags@CBaseServer@@UAE?AVCString@@K@Z 004a57b0 f   xygament2:xygsvr.obj
 0001:000a4820       ?CreateSoapThreads@CBaseServer@@UAEXXZ 004a5820 f   xygament2:xygsvr.obj
 0001:000a4870       ?InitSoapConfig@CBaseServer@@UAEHXZ 004a5870 f   xygament2:xygsvr.obj
 0001:000a4a00       ?xyRetrieveFields_Ref@@YAHPADPAPADH1@Z 004a5a00 f   xygament2:xygsvr.obj
 0001:000a4a70       ?xyConvertIPToStr_Ref@@YA?AVCString@@K@Z 004a5a70 f   xygament2:xygsvr.obj
 0001:000a4b10       ?SoapThreadFunc@CBaseServer@@KGIPAX@Z 004a5b10 f   xygament2:xygsvr.obj
 0001:000a4b30       ?SoapThreadProc@CBaseServer@@MAEIPAX@Z 004a5b30 f   xygament2:xygsvr.obj
 0001:000a4f60       ?DealSoapMessage@CBaseServer@@UAEHPAU_tagSOAP_SERVICE@@AAV?$_com_ptr_t@V?$_com_IIID@UIXYSoapClient@XYSOAPCLIENTLib@@$1?_GUID_56fdbc41_47d1_4175_8116_487b0cb069d7@@3U__s_GUID@@A@@@@PAU_tagCONTEXT_HEAD@@PAVREQUEST@@@Z 004a5f60 f   xygament2:xygsvr.obj
 0001:000a4fe0       ?DealApplyBaseWelfare@CBaseServer@@UAEHPAU_tagSOAP_SERVICE@@AAV?$_com_ptr_t@V?$_com_IIID@UIXYSoapClient@XYSOAPCLIENTLib@@$1?_GUID_56fdbc41_47d1_4175_8116_487b0cb069d7@@3U__s_GUID@@A@@@@PAU_tagCONTEXT_HEAD@@PAVREQUEST@@@Z 004a5fe0 f   xygament2:xygsvr.obj
 0001:000a4ff0       ?DealApplyBaseWelfareEx@CBaseServer@@UAEHPAU_tagSOAP_SERVICE@@AAV?$_com_ptr_t@V?$_com_IIID@UIXYSoapClient@XYSOAPCLIENTLib@@$1?_GUID_56fdbc41_47d1_4175_8116_487b0cb069d7@@3U__s_GUID@@A@@@@PAU_tagCONTEXT_HEAD@@PAVREQUEST@@@Z 004a5ff0 f   xygament2:xygsvr.obj
 0001:000a5000       ?DealGetWelfareConfig@CBaseServer@@UAEHPAU_tagSOAP_SERVICE@@AAV?$_com_ptr_t@V?$_com_IIID@UIXYSoapClient@XYSOAPCLIENTLib@@$1?_GUID_56fdbc41_47d1_4175_8116_487b0cb069d7@@3U__s_GUID@@A@@@@PAU_tagCONTEXT_HEAD@@PAVREQUEST@@@Z 004a6000 f   xygament2:xygsvr.obj
 0001:000a5010       ?DealSelfMessage@CBaseServer@@UAEHPAU_tagSOAP_SERVICE@@AAV?$_com_ptr_t@V?$_com_IIID@UIXYSoapClient@XYSOAPCLIENTLib@@$1?_GUID_56fdbc41_47d1_4175_8116_487b0cb069d7@@3U__s_GUID@@A@@@@PAU_tagCONTEXT_HEAD@@PAVREQUEST@@@Z 004a6010 f   xygament2:xygsvr.obj
 0001:000a5020       ?OnApplyBaseWelfare@CBaseServer@@UAEHPAU_tagCONTEXT_HEAD@@PAVREQUEST@@PAVCWorkerContext@@@Z 004a6020 f   xygament2:xygsvr.obj
 0001:000a5090       ?OnApplyBaseWelfareEx@CBaseServer@@UAEHPAU_tagCONTEXT_HEAD@@PAVREQUEST@@PAVCWorkerContext@@@Z 004a6090 f   xygament2:xygsvr.obj
 0001:000a5100       ?OnGetWelfareConfig@CBaseServer@@UAEHPAU_tagCONTEXT_HEAD@@PAVREQUEST@@PAVCWorkerContext@@@Z 004a6100 f   xygament2:xygsvr.obj
 0001:000a5170       ?PostSoapRequest@CBaseServer@@UAEHIPAU_tagCONTEXT_HEAD@@PAVREQUEST@@@Z 004a6170 f   xygament2:xygsvr.obj
 0001:000a5250       ?IsBaseWelfareActive@CBaseServer@@UAEHXZ 004a6250 f   xygament2:xygsvr.obj
 0001:000a5260       ?NeedUpdateWelfareConfig@CBaseServer@@UAEHXZ 004a6260 f   xygament2:xygsvr.obj
 0001:000a5270       ?SetUpdateWelfareConfig@CBaseServer@@UAEXH@Z 004a6270 f   xygament2:xygsvr.obj
 0001:000a5280       ?AddToMobileBkgQueue@CBaseServer@@UAEXAAU_tagENTER_BKG_MB@@@Z 004a6280 f   xygament2:xygsvr.obj
 0001:000a5350       ?RemoveFromMobileBkgQueue@CBaseServer@@UAEXAAU_tagENTER_BKG_MB@@@Z 004a6350 f   xygament2:xygsvr.obj
 0001:000a5400       ?AddToMobileBkgQueue_GameOver@CBaseServer@@UAEXPAVCTable@@@Z 004a6400 f   xygament2:xygsvr.obj
 0001:000a54c0       ?ClearMobileBkg@CBaseServer@@UAEXXZ 004a64c0 f   xygament2:xygsvr.obj
 0001:000a5520       ?IsValidMobileUserData@CBaseServer@@UAEHHHHH@Z 004a6520 f   xygament2:xygsvr.obj
 0001:000a5690       ?NeedRemoveFromBkgQueue@CBaseServer@@UAEHAAU_tagENTER_BKG_MB@@HHAAK@Z 004a6690 f   xygament2:xygsvr.obj
 0001:000a5720       ?IsKickMobileBkgActive@CBaseServer@@UAEHXZ 004a6720 f   xygament2:xygsvr.obj
 0001:000a5740       ?GetKickBkgInterval@CBaseServer@@UAEHXZ 004a6740 f   xygament2:xygsvr.obj
 0001:000a5770       ?GetKickBkgWait@CBaseServer@@UAEHXZ 004a6770 f   xygament2:xygsvr.obj
 0001:000a57a0       ?GetKickBkgWait_GameOver@CBaseServer@@UAEHXZ 004a67a0 f   xygament2:xygsvr.obj
 0001:000a57d0       ?DoTimingWork_KickMobileUser@CBaseServer@@UAEXXZ 004a67d0 f   xygament2:xygsvr.obj
 0001:000a5ac0       ?GetGameCode@CBaseServer@@UAE?AVCString@@XZ 004a6ac0 f   xygament2:xygsvr.obj
 0001:000a5bd0       ?BroadCast@CBaseServer@@UAEHPAU_tagBROAD_CAST@@@Z 004a6bd0 f   xygament2:xygsvr.obj
 0001:000a5be0       ?GetBroadCastInterval@CBaseServer@@UAEHXZ 004a6be0 f   xygament2:xygsvr.obj
 0001:000a5bf0       ?ClearBroadcast@CBaseServer@@UAEXXZ 004a6bf0 f   xygament2:xygsvr.obj
 0001:000a5c50       ?OnLookGameDepositBonus@CBaseServer@@UAEHPAU_tagCONTEXT_HEAD@@PAVREQUEST@@PAVCWorkerContext@@@Z 004a6c50 f   xygament2:xygsvr.obj
 0001:000a5c60       ?OnLookGameDepositBonusOK@CBaseServer@@UAEHPAU_tagCONTEXT_HEAD@@PAVREQUEST@@1@Z 004a6c60 f   xygament2:xygsvr.obj
 0001:000a5c70       ?OnTakeGameDepositBonus@CBaseServer@@UAEHPAU_tagCONTEXT_HEAD@@PAVREQUEST@@PAVCWorkerContext@@@Z 004a6c70 f   xygament2:xygsvr.obj
 0001:000a5fe0       ?OnTakeGameDepositBonusOK@CBaseServer@@UAEHPAU_tagCONTEXT_HEAD@@PAVREQUEST@@1@Z 004a6fe0 f   xygament2:xygsvr.obj
 0001:000a5ff0       ?OnTakeGameDepositBonusFail@CBaseServer@@UAEHPAU_tagCONTEXT_HEAD@@PAVREQUEST@@1@Z 004a6ff0 f   xygament2:xygsvr.obj
 0001:000a6030       ?NotifyTakeBonusInfo@CBaseServer@@UAEHPAU_tagCONTEXT_HEAD@@PAVREQUEST@@KPBD@Z 004a7030 f   xygament2:xygsvr.obj
 0001:000a6040       ?NeedChangeBaseDeposit@CBaseServer@@UAEHPAVCTable@@PAVCPlayer@@@Z 004a7040 f   xygament2:xygsvr.obj
 0001:000a60a0       ?ChangeBaseDeposit@CBaseServer@@UAEHPAVCTable@@@Z 004a70a0 f   xygament2:xygsvr.obj
 0001:000a60e0       ?BaseVerify@CBaseServer@@UAEHHHHH@Z 004a70e0 f   xygament2:xygsvr.obj
 0001:000a6120       ?GetRoomPtr@CBaseServer@@UAEHHPAPAVCRoom@@@Z 004a7120 f   xygament2:xygsvr.obj
 0001:000a61a0       ?GetTablePtr@CBaseServer@@UAEHPAVCRoom@@HPAPAVCTable@@@Z 004a71a0 f   xygament2:xygsvr.obj
 0001:000a6220       ?DestructorClear@CBaseServer@@UAEXXZ 004a7220 f   xygament2:xygsvr.obj
 0001:000a6250       ?IsPassiveReq@CBaseServer@@UAEHPAU_tagCONTEXT_HEAD@@@Z 004a7250 f   xygament2:xygsvr.obj
 0001:000a6270       ?IsPlayerIdle@CBaseServer@@UAEHHHHHJ@Z 004a7270 f   xygament2:xygsvr.obj
 0001:000a6380       ?SetOneUserTakingBonus@CBaseServer@@UAEHPAU_tagCONTEXT_HEAD@@HHHHH@Z 004a7380 f   xygament2:xygsvr.obj
 0001:000a6390       ?FreshGameWinDelay@CBaseServer@@UAEXK@Z 004a7390 f   xygament2:xygsvr.obj
 0001:000a6490       ?ClearGameWinDelay@CBaseServer@@UAEXXZ 004a7490 f   xygament2:xygsvr.obj
 0001:000a64f0       ?SetGameWinDelay@CBaseServer@@UAEXK@Z 004a74f0 f   xygament2:xygsvr.obj
 0001:000a6510       ?GetGameWinDelay@CBaseServer@@UBEKXZ 004a7510 f   xygament2:xygsvr.obj
 0001:000a6520       ?GetRequestDelay@CBaseServer@@UBEKXZ 004a7520 f   xygament2:xygsvr.obj
 0001:000a6530       ?MD5String@CBaseServer@@UAE?AVCString@@PBD@Z 004a7530 f   xygament2:xygsvr.obj
 0001:000a6600       ?IsSupportPassive@CBaseServer@@UAEHXZ 004a7600 f   xygament2:xygsvr.obj
 0001:000a6620       ?GetBoutLeast@CBaseServer@@UAEHXZ 004a7620 f   xygament2:xygsvr.obj
 0001:000a6640       ?GetBoutTimeMin@CBaseServer@@UAEHXZ 004a7640 f   xygament2:xygsvr.obj
 0001:000a6660       ?GetBoutTimeMax@CBaseServer@@UAEHXZ 004a7660 f   xygament2:xygsvr.obj
 0001:000a6680       ?OnPayResultToGame@CBaseServer@@UAEHPAVREQUEST@@@Z 004a7680 f   xygament2:xygsvr.obj
 0001:000a6a30       ?OnCurrencyExchange@CBaseServer@@UAEHPAVREQUEST@@@Z 004a7a30 f   xygament2:xygsvr.obj
 0001:000a6dc0       ?QueryTopRankList2Check@CBaseServer@@QAEXW4GAME_RANK_FIELD@@H@Z 004a7dc0 f   xygament2:xygsvr.obj
 0001:000a6e80       ?OnQueryTopRankListOK@CBaseServer@@UAEHPAU_tagCONTEXT_HEAD@@PAVREQUEST@@1@Z 004a7e80 f   xygament2:xygsvr.obj
 0001:000a6e90       ??1?$list@U_tagENTER_BKG_MB@@V?$allocator@U_tagENTER_BKG_MB@@@std@@@std@@QAE@XZ 004a7e90 f i xygament2:xygsvr.obj
 0001:000a6ee0       ?begin@?$list@U_tagENTER_BKG_MB@@V?$allocator@U_tagENTER_BKG_MB@@@std@@@std@@QAE?AViterator@12@XZ 004a7ee0 f i xygament2:xygsvr.obj
 0001:000a6ef0       ??1?$list@U_tagBROAD_CAST@@V?$allocator@U_tagBROAD_CAST@@@std@@@std@@QAE@XZ 004a7ef0 f i xygament2:xygsvr.obj
 0001:000a6f40       ??1?$list@U_tagGAME_WIN_DELAY@@V?$allocator@U_tagGAME_WIN_DELAY@@@std@@@std@@QAE@XZ 004a7f40 f i xygament2:xygsvr.obj
 0001:000a6f90       ?begin@?$list@U_tagGAME_WIN_DELAY@@V?$allocator@U_tagGAME_WIN_DELAY@@@std@@@std@@QAE?AViterator@12@XZ 004a7f90 f i xygament2:xygsvr.obj
 0001:000a6fa0       ??1?$vector@U_tagENTER_BKG_MB@@V?$allocator@U_tagENTER_BKG_MB@@@std@@@std@@QAE@XZ 004a7fa0 f i xygament2:xygsvr.obj
 0001:000a6fd0       ?erase@?$list@U_tagENTER_BKG_MB@@V?$allocator@U_tagENTER_BKG_MB@@@std@@@std@@QAE?AViterator@12@V312@0@Z 004a7fd0 f i xygament2:xygsvr.obj
 0001:000a7020       ?begin@?$list@U_tagBROAD_CAST@@V?$allocator@U_tagBROAD_CAST@@@std@@@std@@QAE?AViterator@12@XZ 004a8020 f i xygament2:xygsvr.obj
 0001:000a7030       ?erase@?$list@U_tagBROAD_CAST@@V?$allocator@U_tagBROAD_CAST@@@std@@@std@@QAE?AViterator@12@V312@@Z 004a8030 f i xygament2:xygsvr.obj
 0001:000a7070       ?erase@?$list@U_tagBROAD_CAST@@V?$allocator@U_tagBROAD_CAST@@@std@@@std@@QAE?AViterator@12@V312@0@Z 004a8070 f i xygament2:xygsvr.obj
 0001:000a70c0       ?erase@?$list@U_tagGAME_WIN_DELAY@@V?$allocator@U_tagGAME_WIN_DELAY@@@std@@@std@@QAE?AViterator@12@V312@0@Z 004a80c0 f i xygament2:xygsvr.obj
 0001:000a7110       ?insert@?$vector@U_tagENTER_BKG_MB@@V?$allocator@U_tagENTER_BKG_MB@@@std@@@std@@QAEPAU_tagENTER_BKG_MB@@PAU3@ABU3@@Z 004a8110 f i xygament2:xygsvr.obj
 0001:000a7310       ?size@?$vector@U_tagENTER_BKG_MB@@V?$allocator@U_tagENTER_BKG_MB@@@std@@@std@@QBEIXZ 004a8310 f i xygament2:xygsvr.obj
 0001:000a7340       ?erase@?$vector@U_tagENTER_BKG_MB@@V?$allocator@U_tagENTER_BKG_MB@@@std@@@std@@QAEPAU_tagENTER_BKG_MB@@PAU3@0@Z 004a8340 f i xygament2:xygsvr.obj
 0001:000a7380       ?_Destroy@?$vector@U_tagENTER_BKG_MB@@V?$allocator@U_tagENTER_BKG_MB@@@std@@@std@@IAEXPAU_tagENTER_BKG_MB@@0@Z 004a8380 f i xygament2:xygsvr.obj
 0001:000a7390       ?insert@?$vector@U_tagENTER_BKG_MB@@V?$allocator@U_tagENTER_BKG_MB@@@std@@@std@@QAEXPAU_tagENTER_BKG_MB@@IABU3@@Z 004a8390 f i xygament2:xygsvr.obj
 0001:000a7690       ?_Ucopy@?$vector@U_tagENTER_BKG_MB@@V?$allocator@U_tagENTER_BKG_MB@@@std@@@std@@IAEPAU_tagENTER_BKG_MB@@PBU3@0PAU3@@Z 004a8690 f i xygament2:xygsvr.obj
 0001:000a76d0       ?_Ufill@?$vector@U_tagENTER_BKG_MB@@V?$allocator@U_tagENTER_BKG_MB@@@std@@@std@@IAEXPAU_tagENTER_BKG_MB@@IABU3@@Z 004a86d0 f i xygament2:xygsvr.obj
 0001:000a7700       ??1?$CMap@HHHH@@UAE@XZ     004a8700 f i xygament2:xygsvr.obj
 0001:000a7790       ?Serialize@?$CMap@HHHH@@UAEXAAVCArchive@@@Z 004a8790 f i xygament2:xygsvr.obj
 0001:000a79a0       ?_Construct@std@@YAXPAU_tagENTER_BKG_MB@@ABU2@@Z 004a89a0 f i xygament2:xygsvr.obj
 0001:000a79c0       ??_G?$CMap@HHHH@@UAEPAXI@Z 004a89c0 f i xygament2:xygsvr.obj
 0001:000a79c0       ??_E?$CMap@HHHH@@UAEPAXI@Z 004a89c0 f i xygament2:xygsvr.obj
 0001:000a79e0       ?FreeAssoc@?$CMap@JJU_tagID_SOCKET@@U1@@@IAEXPAUCAssoc@1@@Z 004a89e0 f i xygament2:xygsvr.obj
 0001:000a7a50       ?InitHashTable@?$CMap@HHHH@@QAEXIH@Z 004a8a50 f i xygament2:xygsvr.obj
 0001:000a7ac0       ?NewAssoc@?$CMap@HHHH@@IAEPAUCAssoc@1@XZ 004a8ac0 f i xygament2:xygsvr.obj
 0001:000a7b20       ?GetAssocAt@?$CMap@HHHH@@IBEPAUCAssoc@1@HAAI@Z 004a8b20 f i xygament2:xygsvr.obj
 0001:000a7be0       ??1CSockServer@@UAE@XZ     004a8be0 f i xygament2:xygsvr.obj
 0001:000a7db0       ??_GCSockServer@@UAEPAXI@Z 004a8db0 f i xygament2:xygsvr.obj
 0001:000a7db0       ??_ECSockServer@@UAEPAXI@Z 004a8db0 f i xygament2:xygsvr.obj
 0001:000a7dd0       ?ClearMatchTable@CBaseServer@@UAEXPAVCRoom@@PAVCTable@@@Z 004a8dd0 f i xygament2:xygsvr.obj
 0001:000a7de0       ?DisableUnActiveTable@CBaseServer@@UAEXPAVCRoom@@PAVCTable@@@Z 004a8de0 f i xygament2:xygsvr.obj
 0001:000a7df0       ??0?$CMap@JJHH@@QAE@H@Z    004a8df0 f i xygament2:xygsvr.obj
 0001:000a7e20       ??1?$CMap@JJHH@@UAE@XZ     004a8e20 f i xygament2:xygsvr.obj
 0001:000a7eb0       ?Serialize@?$CMap@JJHH@@UAEXAAVCArchive@@@Z 004a8eb0 f i xygament2:xygsvr.obj
 0001:000a80c0       ??0?$CMap@JJU_tagID_SOCKET@@U1@@@QAE@H@Z 004a90c0 f i xygament2:xygsvr.obj
 0001:000a80f0       ??1?$CMap@JJU_tagID_SOCKET@@U1@@@UAE@XZ 004a90f0 f i xygament2:xygsvr.obj
 0001:000a8180       ?Serialize@?$CMap@JJU_tagID_SOCKET@@U1@@@UAEXAAVCArchive@@@Z 004a9180 f i xygament2:xygsvr.obj
 0001:000a83a0       ??0?$CMap@HHPAVCRoom@@PAV1@@@QAE@H@Z 004a93a0 f i xygament2:xygsvr.obj
 0001:000a83d0       ?Serialize@?$CMap@HHPAVCRoom@@PAV1@@@UAEXAAVCArchive@@@Z 004a93d0 f i xygament2:xygsvr.obj
 0001:000a85e0       ??1?$CMap@HHU_tagPLAYERLEVEL_EX@@U1@@@UAE@XZ 004a95e0 f i xygament2:xygsvr.obj
 0001:000a8670       ?Serialize@?$CMap@HHU_tagPLAYERLEVEL_EX@@U1@@@UAEXAAVCArchive@@@Z 004a9670 f i xygament2:xygsvr.obj
 0001:000a8890       ??1?$CMap@HHU_tagFILTER_WORD_EX@@AAU1@@@UAE@XZ 004a9890 f i xygament2:xygsvr.obj
 0001:000a8920       ?Serialize@?$CMap@HHU_tagFILTER_WORD_EX@@AAU1@@@UAEXAAVCArchive@@@Z 004a9920 f i xygament2:xygsvr.obj
 0001:000a8b40       ??1?$CMap@VCString@@PBDU_tagCHAT_FORBID_EX@@AAU2@@@UAE@XZ 004a9b40 f i xygament2:xygsvr.obj
 0001:000a8be0       ?Serialize@?$CMap@VCString@@PBDU_tagCHAT_FORBID_EX@@AAU2@@@UAEXAAVCArchive@@@Z 004a9be0 f i xygament2:xygsvr.obj
 0001:000a8e20       ??1?$CMap@HHU_tagCHAT_FORBID_EX@@AAU1@@@UAE@XZ 004a9e20 f i xygament2:xygsvr.obj
 0001:000a8eb0       ?Serialize@?$CMap@HHU_tagCHAT_FORBID_EX@@AAU1@@@UAEXAAVCArchive@@@Z 004a9eb0 f i xygament2:xygsvr.obj
 0001:000a90d0       ??1?$CMap@HHU_tagUSER_DATA@@AAU1@@@UAE@XZ 004aa0d0 f i xygament2:xygsvr.obj
 0001:000a9160       ?Serialize@?$CMap@HHU_tagUSER_DATA@@AAU1@@@UAEXAAVCArchive@@@Z 004aa160 f i xygament2:xygsvr.obj
 0001:000a93a0       ??1?$CMap@JJU_tagTOKEN_INFO@@AAU1@@@UAE@XZ 004aa3a0 f i xygament2:xygsvr.obj
 0001:000a9430       ?Serialize@?$CMap@JJU_tagTOKEN_INFO@@AAU1@@@UAEXAAVCArchive@@@Z 004aa430 f i xygament2:xygsvr.obj
 0001:000a9650       ??1?$CMap@KKU_tagCHAIR_DATA@@AAU1@@@UAE@XZ 004aa650 f i xygament2:xygsvr.obj
 0001:000a96e0       ?Serialize@?$CMap@KKU_tagCHAIR_DATA@@AAU1@@@UAEXAAVCArchive@@@Z 004aa6e0 f i xygament2:xygsvr.obj
 0001:000a9900       ??1?$CMap@HHU_tagROOM_DATA@@AAU1@@@UAE@XZ 004aa900 f i xygament2:xygsvr.obj
 0001:000a9990       ?Serialize@?$CMap@HHU_tagROOM_DATA@@AAU1@@@UAEXAAVCArchive@@@Z 004aa990 f i xygament2:xygsvr.obj
 0001:000a9bb0       ??1?$CMap@KKU_tagSOLO_PLAYER@@AAU1@@@UAE@XZ 004aabb0 f i xygament2:xygsvr.obj
 0001:000a9c40       ?Serialize@?$CMap@KKU_tagSOLO_PLAYER@@AAU1@@@UAEXAAVCArchive@@@Z 004aac40 f i xygament2:xygsvr.obj
 0001:000a9e70       ??_E?$CMap@JJHH@@UAEPAXI@Z 004aae70 f i xygament2:xygsvr.obj
 0001:000a9e70       ??_G?$CMap@JJHH@@UAEPAXI@Z 004aae70 f i xygament2:xygsvr.obj
 0001:000a9e90       ??_G?$CMap@JJU_tagID_SOCKET@@U1@@@UAEPAXI@Z 004aae90 f i xygament2:xygsvr.obj
 0001:000a9e90       ??_E?$CMap@JJU_tagID_SOCKET@@U1@@@UAEPAXI@Z 004aae90 f i xygament2:xygsvr.obj
 0001:000a9eb0       ??_E?$CMap@HHPAVCRoom@@PAV1@@@UAEPAXI@Z 004aaeb0 f i xygament2:xygsvr.obj
 0001:000a9eb0       ??_G?$CMap@HHPAVCRoom@@PAV1@@@UAEPAXI@Z 004aaeb0 f i xygament2:xygsvr.obj
 0001:000a9ed0       ??1?$CMap@HHPAVCRoom@@PAV1@@@UAE@XZ 004aaed0 f i xygament2:xygsvr.obj
 0001:000a9f60       ??_E?$CMap@HHU_tagPLAYERLEVEL_EX@@U1@@@UAEPAXI@Z 004aaf60 f i xygament2:xygsvr.obj
 0001:000a9f60       ??_G?$CMap@HHU_tagPLAYERLEVEL_EX@@U1@@@UAEPAXI@Z 004aaf60 f i xygament2:xygsvr.obj
 0001:000a9f80       ??_G?$CMap@HHU_tagFILTER_WORD_EX@@AAU1@@@UAEPAXI@Z 004aaf80 f i xygament2:xygsvr.obj
 0001:000a9f80       ??_E?$CMap@HHU_tagFILTER_WORD_EX@@AAU1@@@UAEPAXI@Z 004aaf80 f i xygament2:xygsvr.obj
 0001:000a9fa0       ??_E?$CMap@VCString@@PBDU_tagCHAT_FORBID_EX@@AAU2@@@UAEPAXI@Z 004aafa0 f i xygament2:xygsvr.obj
 0001:000a9fa0       ??_G?$CMap@VCString@@PBDU_tagCHAT_FORBID_EX@@AAU2@@@UAEPAXI@Z 004aafa0 f i xygament2:xygsvr.obj
 0001:000a9fc0       ??_E?$CMap@HHU_tagCHAT_FORBID_EX@@AAU1@@@UAEPAXI@Z 004aafc0 f i xygament2:xygsvr.obj
 0001:000a9fc0       ??_G?$CMap@HHU_tagCHAT_FORBID_EX@@AAU1@@@UAEPAXI@Z 004aafc0 f i xygament2:xygsvr.obj
 0001:000a9fe0       ??_G?$CMap@HHU_tagUSER_DATA@@AAU1@@@UAEPAXI@Z 004aafe0 f i xygament2:xygsvr.obj
 0001:000a9fe0       ??_E?$CMap@HHU_tagUSER_DATA@@AAU1@@@UAEPAXI@Z 004aafe0 f i xygament2:xygsvr.obj
 0001:000aa000       ??_G?$CMap@JJU_tagTOKEN_INFO@@AAU1@@@UAEPAXI@Z 004ab000 f i xygament2:xygsvr.obj
 0001:000aa000       ??_E?$CMap@JJU_tagTOKEN_INFO@@AAU1@@@UAEPAXI@Z 004ab000 f i xygament2:xygsvr.obj
 0001:000aa020       ??_G?$CMap@KKU_tagCHAIR_DATA@@AAU1@@@UAEPAXI@Z 004ab020 f i xygament2:xygsvr.obj
 0001:000aa020       ??_E?$CMap@KKU_tagCHAIR_DATA@@AAU1@@@UAEPAXI@Z 004ab020 f i xygament2:xygsvr.obj
 0001:000aa040       ??_G?$CMap@HHU_tagROOM_DATA@@AAU1@@@UAEPAXI@Z 004ab040 f i xygament2:xygsvr.obj
 0001:000aa040       ??_E?$CMap@HHU_tagROOM_DATA@@AAU1@@@UAEPAXI@Z 004ab040 f i xygament2:xygsvr.obj
 0001:000aa060       ??_G?$CMap@KKU_tagSOLO_PLAYER@@AAU1@@@UAEPAXI@Z 004ab060 f i xygament2:xygsvr.obj
 0001:000aa060       ??_E?$CMap@KKU_tagSOLO_PLAYER@@AAU1@@@UAEPAXI@Z 004ab060 f i xygament2:xygsvr.obj
 0001:000aa080       ?RemoveAll@?$CMap@JJHH@@QAEXXZ 004ab080 f i xygament2:xygsvr.obj
 0001:000aa0d0       ?RemoveAll@?$CMap@JJU_tagID_SOCKET@@U1@@@QAEXXZ 004ab0d0 f i xygament2:xygsvr.obj
 0001:000aa120       ?RemoveAll@?$CMap@HHPAVCRoom@@PAV1@@@QAEXXZ 004ab120 f i xygament2:xygsvr.obj
 0001:000aa170       ?RemoveAll@?$CMap@HHU_tagPLAYERLEVEL_EX@@U1@@@QAEXXZ 004ab170 f i xygament2:xygsvr.obj
 0001:000aa1c0       ?RemoveAll@?$CMap@HHU_tagFILTER_WORD_EX@@AAU1@@@QAEXXZ 004ab1c0 f i xygament2:xygsvr.obj
 0001:000aa210       ?RemoveAll@?$CMap@VCString@@PBDU_tagCHAT_FORBID_EX@@AAU2@@@QAEXXZ 004ab210 f i xygament2:xygsvr.obj
 0001:000aa270       ?RemoveAll@?$CMap@HHU_tagCHAT_FORBID_EX@@AAU1@@@QAEXXZ 004ab270 f i xygament2:xygsvr.obj
 0001:000aa2c0       ?RemoveAll@?$CMap@HHU_tagUSER_DATA@@AAU1@@@QAEXXZ 004ab2c0 f i xygament2:xygsvr.obj
 0001:000aa310       ?RemoveAll@?$CMap@JJU_tagTOKEN_INFO@@AAU1@@@QAEXXZ 004ab310 f i xygament2:xygsvr.obj
 0001:000aa360       ?RemoveAll@?$CMap@KKU_tagCHAIR_DATA@@AAU1@@@QAEXXZ 004ab360 f i xygament2:xygsvr.obj
 0001:000aa3b0       ?RemoveAll@?$CMap@HHU_tagROOM_DATA@@AAU1@@@QAEXXZ 004ab3b0 f i xygament2:xygsvr.obj
 0001:000aa400       ?RemoveAll@?$CMap@KKU_tagSOLO_PLAYER@@AAU1@@@QAEXXZ 004ab400 f i xygament2:xygsvr.obj
 0001:000aa450       ??A?$CMap@HHU_tagMATCHPLAYERINFO@@AAU1@@@QAEAAU_tagMATCHPLAYERINFO@@H@Z 004ab450 f i xygament2:xygsvr.obj
 0001:000aa550       ??A?$CMap@JJHH@@QAEAAHJ@Z  004ab550 f i xygament2:xygsvr.obj
 0001:000aa630       ??A?$CMap@VCString@@PBDU_tagCHAT_FORBID_EX@@AAU2@@@QAEAAU_tagCHAT_FORBID_EX@@PBD@Z 004ab630 f i xygament2:xygsvr.obj
 0001:000aa750       ??A?$CMap@HHU_tagCHAT_FORBID_EX@@AAU1@@@QAEAAU_tagCHAT_FORBID_EX@@H@Z 004ab750 f i xygament2:xygsvr.obj
 0001:000aa850       ?InitHashTable@?$CMap@HHU_tagMATCHPLAYERINFO@@AAU1@@@QAEXIH@Z 004ab850 f i xygament2:xygsvr.obj
 0001:000aa8c0       ?NewAssoc@?$CMap@HHU_tagMATCHPLAYERINFO@@AAU1@@@IAEPAUCAssoc@1@XZ 004ab8c0 f i xygament2:xygsvr.obj
 0001:000aa930       ?GetAssocAt@?$CMap@HHU_tagMATCHPLAYERINFO@@AAU1@@@IBEPAUCAssoc@1@HAAI@Z 004ab930 f i xygament2:xygsvr.obj
 0001:000aa970       ?InitHashTable@?$CMap@HHU_tagFILTER_WORD_EX@@AAU1@@@QAEXIH@Z 004ab970 f i xygament2:xygsvr.obj
 0001:000aa9e0       ?GetAssocAt@?$CMap@HHU_tagFILTER_WORD_EX@@AAU1@@@IBEPAUCAssoc@1@HAAI@Z 004ab9e0 f i xygament2:xygsvr.obj
 0001:000aaa20       ?InitHashTable@?$CMap@HHU_tagCHAT_FORBID_EX@@AAU1@@@QAEXIH@Z 004aba20 f i xygament2:xygsvr.obj
 0001:000aaa90       ?NewAssoc@?$CMap@HHU_tagCHAT_FORBID_EX@@AAU1@@@IAEPAUCAssoc@1@XZ 004aba90 f i xygament2:xygsvr.obj
 0001:000aab00       ?GetAssocAt@?$CMap@HHU_tagCHAT_FORBID_EX@@AAU1@@@IBEPAUCAssoc@1@HAAI@Z 004abb00 f i xygament2:xygsvr.obj
 0001:000aab40       ?NewAssoc@?$CMap@JJU_tagTOKEN_INFO@@AAU1@@@IAEPAUCAssoc@1@XZ 004abb40 f i xygament2:xygsvr.obj
 0001:000aabb0       ?NewAssoc@?$CMap@KKU_tagCHAIR_DATA@@AAU1@@@IAEPAUCAssoc@1@XZ 004abbb0 f i xygament2:xygsvr.obj
 0001:000aac20       ?NewAssoc@?$CMap@HHU_tagROOM_DATA@@AAU1@@@IAEPAUCAssoc@1@XZ 004abc20 f i xygament2:xygsvr.obj
 0001:000aac90       ?NewAssoc@?$CMap@KKU_tagSOLO_PLAYER@@AAU1@@@IAEPAUCAssoc@1@XZ 004abc90 f i xygament2:xygsvr.obj
 0001:000aad00       ?InitRoomData@@YAXAAU_tagROOM_DATA@@@Z 004abd00 f   xygament2:xygsocks.obj
 0001:000aad30       ?MakeRoomTableChair@@YAKHHH@Z 004abd30 f   xygament2:xygsocks.obj
 0001:000aad70       ?ParseRoomTableChair@@YAXKAAH00@Z 004abd70 f   xygament2:xygsocks.obj
 0001:000aadc0       ?MakeTableChairStatus@@YAKHQAHH@Z 004abdc0 f   xygament2:xygsocks.obj
 0001:000aadf0       ?ParseTableChairStatus@@YAXKAAHQAHH@Z 004abdf0 f   xygament2:xygsocks.obj
 0001:000aae30       ?Shutdown@CSockServer@@UAEXXZ 004abe30 f   xygament2:xygsocks.obj
 0001:000aae50       ?OnWorkerStart@CSockServer@@MAEPAXXZ 004abe50 f   xygament2:xygsocks.obj
 0001:000aaee0       ?OnWorkerExit@CSockServer@@MAEXPAX@Z 004abee0 f   xygament2:xygsocks.obj
 0001:000aaf10       ??1CWorkerContext@@QAE@XZ  004abf10 f i xygament2:xygsocks.obj
 0001:000aaf20       ?OnRequest@CSockServer@@MAEHPAX0@Z 004abf20 f   xygament2:xygsocks.obj
 0001:000aaf60       ?OnUnsupported@CSockServer@@MAEHPAU_tagCONTEXT_HEAD@@PAVREQUEST@@PAVCWorkerContext@@@Z 004abf60 f   xygament2:xygsocks.obj
 0001:000aaf70       ?SendUserResponse@CSockServer@@UAEHPAU_tagCONTEXT_HEAD@@PAVREQUEST@@HH@Z 004abf70 f   xygament2:xygsocks.obj
 0001:000aafe0       ?SendResponseData@CSockServer@@UAEHPAU_tagCONTEXT_HEAD@@AAVREQUEST@@PAXH@Z 004abfe0 f   xygament2:xygsocks.obj
 0001:000ab010       ?SendErrorInfoResponse@CSockServer@@UAEHPAU_tagCONTEXT_HEAD@@PBD@Z 004ac010 f   xygament2:xygsocks.obj
 0001:000ab100       ?SendFailedResponse@CSockServer@@UAEHPAU_tagCONTEXT_HEAD@@HH@Z 004ac100 f   xygament2:xygsocks.obj
 0001:000ab180       ?NotifyOneUser@CSockServer@@UAEHIJIPAXHH@Z 004ac180 f   xygament2:xygsocks.obj
 0001:000ab250       ?NotifyTablePlayers@CSockServer@@UAEHPAVCTable@@IPAXHJH@Z 004ac250 f   xygament2:xygsocks.obj
 0001:000ab2e0       ?NotifyTableVisitors@CSockServer@@UAEHPAVCTable@@IPAXHJH@Z 004ac2e0 f   xygament2:xygsocks.obj
 0001:000ab340       ?NotifyChairVisitors@CSockServer@@UAEHPAVCTable@@HIPAXHJH@Z 004ac340 f   xygament2:xygsocks.obj
 0001:000ab420       ?ClearRoomMap@CSockServer@@MAEXXZ 004ac420 f   xygament2:xygsocks.obj
 0001:000ab5b0       ?RemoveTokenData@CSockServer@@MAEHJAAH00@Z 004ac5b0 f   xygament2:xygsocks.obj
 0001:000ab750       ?FreeAssoc@?$CMap@JJHH@@IAEXPAUCAssoc@1@@Z 004ac750 f i xygament2:xygsocks.obj
 0001:000ab840       ??1?$_com_ptr_t@V?$_com_IIID@U_Connection@@$1?_GUID_00000550_0000_0010_8000_00aa006d2ea4@@3U__s_GUID@@A@@@@QAE@XZ 004ac840 f i xygament2:xygsocks.obj
 0001:000ab850       ??0CMainService@@QAE@PBD0HH000HHKK@Z 004ac850 f   xygament2:xygsvc.obj
 0001:000ab8f0       ??_GCMainService@@UAEPAXI@Z 004ac8f0 f i xygament2:xygsvc.obj
 0001:000ab8f0       ??_ECMainService@@UAEPAXI@Z 004ac8f0 f i xygament2:xygsvc.obj
 0001:000ab910       ??1CMainService@@UAE@XZ    004ac910 f   xygament2:xygsvc.obj
 0001:000ab920       ?OnInit@CMainService@@UAEHXZ 004ac920 f   xygament2:xygsvc.obj
 0001:000aba50       ?Run@CMainService@@UAEXXZ  004aca50 f   xygament2:xygsvc.obj
 0001:000abb10       ?OnStop@CMainService@@UAEXXZ 004acb10 f   xygament2:xygsvc.obj
 0001:000abb30       ?OnUserControl@CMainService@@UAEHK@Z 004acb30 f   xygament2:xygsvc.obj
 0001:000abb50       ?SaveStatus@CMainService@@UAEXXZ 004acb50 f   xygament2:xygsvc.obj
 0001:000abc50       ?OnNewServer@CMainService@@UAEPAVCBaseServer@@XZ 004acc50 f   xygament2:xygsvc.obj
 0001:000abd60       ??0CSkTable@@QAE@HHHHKKHHHHHHHHQAHHHHHHHP6AHHK@Z111P6AHHHK@Z2@Z 004acd60 f   tcgsk2:tcgsk.obj
 0001:000abec0       ??_ECSkTable@@UAEPAXI@Z    004acec0 f i tcgsk2:tcgsk.obj
 0001:000abec0       ??_GCSkTable@@UAEPAXI@Z    004acec0 f i tcgsk2:tcgsk.obj
 0001:000abee0       ??1CSkTable@@UAE@XZ        004acee0 f   tcgsk2:tcgsk.obj
 0001:000abf50       ?ResetMembers@CSkTable@@UAEXH@Z 004acf50 f   tcgsk2:tcgsk.obj
 0001:000abfb0       ?SK_GetCardIndex@@YAHHK@Z  004acfb0 f   tcgsk2:tcgsk.obj
 0001:000abfe0       ?SK_GetCardScore@@YAHHK@Z  004acfe0 f   tcgsk2:tcgsk.obj
 0001:000ac020       ?SK_GetCardShape@@YAHHK@Z  004ad020 f   tcgsk2:tcgsk.obj
 0001:000ac050       ?SK_GetCardValue@@YAHHK@Z  004ad050 f   tcgsk2:tcgsk.obj
 0001:000ac070       ?SK_GetCardPRI@@YAHHHK@Z   004ad070 f   tcgsk2:tcgsk.obj
 0001:000ac0a0       ?SK_GetIndexPRI@@YAHHHK@Z  004ad0a0 f   tcgsk2:tcgsk.obj
 0001:000ac0d0       ?SK_GetCardIndexEx@@YAHHK@Z 004ad0d0 f   tcgsk2:tcgsk.obj
 0001:000ac0f0       ?SK_GetCardScoreEx@@YAHHK@Z 004ad0f0 f   tcgsk2:tcgsk.obj
 0001:000ac110       ?SK_GetCardShapeEx@@YAHHK@Z 004ad110 f   tcgsk2:tcgsk.obj
 0001:000ac130       ?SK_GetCardValueEx@@YAHHK@Z 004ad130 f   tcgsk2:tcgsk.obj
 0001:000ac150       ?SK_GetCardPRIEx@@YAHHHK@Z 004ad150 f   tcgsk2:tcgsk.obj
 0001:000ac180       ?SK_GetIndexPRIEx@@YAHHHK@Z 004ad180 f   tcgsk2:tcgsk.obj
 0001:000ac1a0       ?GetGameTableInfoSize@CSkTable@@UAEHXZ 004ad1a0 f   tcgsk2:tcgsk.obj
 0001:000ac1b0       ?GetGameStartSize@CSkTable@@UAEHXZ 004ad1b0 f   tcgsk2:tcgsk.obj
 0001:000ac1c0       ?GetGameWinSize@CSkTable@@UAEHXZ 004ad1c0 f   tcgsk2:tcgsk.obj
 0001:000ac1d0       ?GetEnterGameInfoSize@CSkTable@@UAEHXZ 004ad1d0 f   tcgsk2:tcgsk.obj
 0001:000ac1e0       ?FillupEnterGameInfo@CSkTable@@UAEXPAXHHH@Z 004ad1e0 f   tcgsk2:tcgsk.obj
 0001:000ac200       ?FillupGameStart@CSkTable@@UAEXPAXHHH@Z 004ad200 f   tcgsk2:tcgsk.obj
 0001:000ac240       ?FillupStartData@CSkTable@@UAEXPAXH@Z 004ad240 f   tcgsk2:tcgsk.obj
 0001:000ac250       ?FillupGameTableInfo@CSkTable@@UAEXPAXHHH@Z 004ad250 f   tcgsk2:tcgsk.obj
 0001:000ac290       ?CalcBankerChairBefore@CSkTable@@UAEHXZ 004ad290 f   tcgsk2:tcgsk.obj
 0001:000ac2b0       ?CalcBankerChairAfter@CSkTable@@UAEHPAXH@Z 004ad2b0 f   tcgsk2:tcgsk.obj
 0001:000ac2c0       ?CatchOneCard@CSkTable@@UAEHH@Z 004ad2c0 f   tcgsk2:tcgsk.obj
 0001:000ac2d0       ?GiveCard@CSkTable@@UAEHHHH@Z 004ad2d0 f   tcgsk2:tcgsk.obj
 0001:000ac2e0       ?SetStatusOnStart@CSkTable@@UAEKXZ 004ad2e0 f   tcgsk2:tcgsk.obj
 0001:000ac2f0       ?SetStatusOnEnd@CSkTable@@UAEKXZ 004ad2f0 f   tcgsk2:tcgsk.obj
 0001:000ac310       ?ValidatePass@CSkTable@@UAEHPAU_tagCARDS_PASS@@@Z 004ad310 f   tcgsk2:tcgsk.obj
 0001:000ac350       ?IsCardIdUnique@@YAHQAHH@Z 004ad350 f   tcgsk2:tcgsk.obj
 0001:000ac3a0       ?ValidateThrow@CSkTable@@UAEHPAU_tagCARDS_THROW@@@Z 004ad3a0 f   tcgsk2:tcgsk.obj
 0001:000ac4d0       ?ThrowCards@CSkTable@@UAEHPAU_tagCARDS_THROW@@@Z 004ad4d0 f   tcgsk2:tcgsk.obj
 0001:000ac4f0       ?CalcChairThrowTime@CSkTable@@UAEHH@Z 004ad4f0 f   tcgsk2:tcgsk.obj
 0001:000ac500       ?CalcBombInThrow@CSkTable@@UAEXPAU_tagCARDS_THROW@@@Z 004ad500 f   tcgsk2:tcgsk.obj
 0001:000ac510       ?CalcBombInHand@CSkTable@@UAEXH@Z 004ad510 f   tcgsk2:tcgsk.obj
 0001:000ac520       ?SetCurrentRank@CSkTable@@UAEXH@Z 004ad520 f   tcgsk2:tcgsk.obj
 0001:000ac530       ?GetCurrentRank@CSkTable@@UAEHXZ 004ad530 f   tcgsk2:tcgsk.obj
 0001:000ac540       ?GetCardCount@CSkTable@@UAEHQAHH@Z 004ad540 f   tcgsk2:tcgsk.obj
 0001:000ac570       ?IsCardInHand@CSkTable@@UAEHHQAHH@Z 004ad570 f   tcgsk2:tcgsk.obj
 0001:000ac5d0       ?GetCard@CSkTable@@UAEPAU_tagCARDINFO@@H@Z 004ad5d0 f   tcgsk2:tcgsk.obj
 0001:000ac5e0       ?SetCardStatus@CSkTable@@UAEHHHH@Z 004ad5e0 f   tcgsk2:tcgsk.obj
 0001:000ac5f0       ?HaveCards@CSkTable@@UAEHH@Z 004ad5f0 f   tcgsk2:tcgsk.obj
 0001:000ac610       ?CalcWinOnThrow@CSkTable@@UAEHPAU_tagCARDS_THROW@@@Z 004ad610 f   tcgsk2:tcgsk.obj
 0001:000ac620       ?CalcWinOnPass@CSkTable@@UAEHPAU_tagCARDS_PASS@@@Z 004ad620 f   tcgsk2:tcgsk.obj
 0001:000ac630       ?PutThrowCardsToCost@CSkTable@@UAEXH@Z 004ad630 f   tcgsk2:tcgsk.obj
 0001:000ac640       ?OnPass@CSkTable@@UAEXPAU_tagCARDS_PASS@@@Z 004ad640 f   tcgsk2:tcgsk.obj
 0001:000ac650       ?GetInHandCard@CSkTable@@UAEHHQAH@Z 004ad650 f   tcgsk2:tcgsk.obj
 0001:000ac660       ?GetFriend@CSkTable@@UAEHH@Z 004ad660 f   tcgsk2:tcgsk.obj
 0001:000ac680       ?GetTributeCard@CSkTable@@UAEHH@Z 004ad680 f   tcgsk2:tcgsk.obj
 0001:000ac690       ?AddScoreCard@CSkTable@@UAEXH@Z 004ad690 f   tcgsk2:tcgsk.obj
 0001:000ac6a0       ?WinScoreCard@CSkTable@@UAEHH@Z 004ad6a0 f   tcgsk2:tcgsk.obj
 0001:000ac6b0       ?IsGameMsg@CSkTable@@UAEHI@Z 004ad6b0 f   tcgsk2:tcgsk.obj
 0001:000ac6f0       ?PreDealCards@CSkTable@@UAEHQAHH0HAAH@Z 004ad6f0 f   tcgsk2:tcgsk.obj
 0001:000ac7d0       ?IsJoker@CSkTable@@UAEHH@Z 004ad7d0 f   tcgsk2:tcgsk.obj
 0001:000ac7e0       ?IsJokerEx@CSkTable@@UAEHH@Z 004ad7e0 f   tcgsk2:tcgsk.obj
 0001:000ac7f0       ?GetJokerCount@CSkTable@@UAEHQAHHH@Z 004ad7f0 f   tcgsk2:tcgsk.obj
 0001:000ac850       ?GetSameCountEx@CSkTable@@UAEHQAHHHHH@Z 004ad850 f   tcgsk2:tcgsk.obj
 0001:000ac930       ?GetSameCount@CSkTable@@UAEHQAHHHH@Z 004ad930 f   tcgsk2:tcgsk.obj
 0001:000ac9d0       ?GetDoubleCount@CSkTable@@UAEHQAHHHHHHAAH1@Z 004ad9d0 f   tcgsk2:tcgsk.obj
 0001:000acb30       ?ReMoveBigestPair@CSkTable@@UAEHQAHHHAAH@Z 004adb30 f   tcgsk2:tcgsk.obj
 0001:000acc00       ?GetUniteDetails@CSkTable@@UAEHHQAHHAAU_tagCARD_UNITE@@K@Z 004adc00 f   tcgsk2:tcgsk.obj
 0001:000ace00       ?CompareCards@CSkTable@@UAEHAAU_tagUNITE_TYPE@@0@Z 004ade00 f   tcgsk2:tcgsk.obj
 0001:000ace40       ?GetBestUnitType@CSkTable@@UAEHAAU_tagCARD_UNITE@@@Z 004ade40 f   tcgsk2:tcgsk.obj
 0001:000acf50       ?GetBestUnitType@CSkTable@@UAEHAAU_tagUNITE_TYPE@@AAU_tagCARD_UNITE@@@Z 004adf50 f   tcgsk2:tcgsk.obj
 0001:000ad040       ?PutCardToArray@CSkTable@@UAEXQAHH0HHHH@Z 004ae040 f   tcgsk2:tcgsk.obj
 0001:000ad250       ?GetMinFitValue@CSkTable@@UAEHQAHHH@Z 004ae250 f   tcgsk2:tcgsk.obj
 0001:000ad300       ?CalcCardType_Single@CSkTable@@UAEHQAHHHPAU_tagCARD_UNITE@@@Z 004ae300 f   tcgsk2:tcgsk.obj
 0001:000ad3a0       ?GetCardType_Single@CSkTable@@UAEHQAHHAAU_tagUNITE_TYPE@@@Z 004ae3a0 f   tcgsk2:tcgsk.obj
 0001:000ad4c0       ?CalcCardType_Couple@CSkTable@@UAEHQAHHHPAU_tagCARD_UNITE@@@Z 004ae4c0 f   tcgsk2:tcgsk.obj
 0001:000ad5e0       ?GetCardType_Couple@CSkTable@@UAEHQAHH0HHAAU_tagUNITE_TYPE@@@Z 004ae5e0 f   tcgsk2:tcgsk.obj
 0001:000ad6d0       ?CalcCardType_Three@CSkTable@@UAEHQAHHHPAU_tagCARD_UNITE@@@Z 004ae6d0 f   tcgsk2:tcgsk.obj
 0001:000ad7c0       ?GetCardType_Three@CSkTable@@UAEHQAHH0HHAAU_tagUNITE_TYPE@@@Z 004ae7c0 f   tcgsk2:tcgsk.obj
 0001:000ad8c0       ?CalcCardType_Bomb@CSkTable@@UAEHQAHHHPAU_tagCARD_UNITE@@@Z 004ae8c0 f   tcgsk2:tcgsk.obj
 0001:000ad9e0       ?GetCardType_Bomb@CSkTable@@UAEHQAHH0HHAAU_tagUNITE_TYPE@@H@Z 004ae9e0 f   tcgsk2:tcgsk.obj
 0001:000adb70       ?CaclCardType_SuperBomb@CSkTable@@UAEHQAHHHPAU_tagCARD_UNITE@@@Z 004aeb70 f   tcgsk2:tcgsk.obj
 0001:000adc70       ?GetCardType_SuperBomb@CSkTable@@UAEHQAHH0HHAAU_tagUNITE_TYPE@@H@Z 004aec70 f   tcgsk2:tcgsk.obj
 0001:000ade00       ?CaclCardType_Three_Couple@CSkTable@@UAEHQAHHHPAU_tagCARD_UNITE@@@Z 004aee00 f   tcgsk2:tcgsk.obj
 0001:000adf00       ?GetCardType_Three_Couple@CSkTable@@UAEHQAHH0HHAAU_tagUNITE_TYPE@@@Z 004aef00 f   tcgsk2:tcgsk.obj
 0001:000ae060       ?CaclCardType_ABT_Single@CSkTable@@UAEHQAHHHPAU_tagCARD_UNITE@@@Z 004af060 f   tcgsk2:tcgsk.obj
 0001:000ae180       ?GetCardType_ABT_Single@CSkTable@@UAEHQAHH0HHAAU_tagUNITE_TYPE@@H@Z 004af180 f   tcgsk2:tcgsk.obj
 0001:000ae320       ?CaclCardType_ABT_Couple@CSkTable@@UAEHQAHHHPAU_tagCARD_UNITE@@@Z 004af320 f   tcgsk2:tcgsk.obj
 0001:000ae430       ?GetCardType_ABT_Couple@CSkTable@@UAEHQAHH0HHAAU_tagUNITE_TYPE@@H@Z 004af430 f   tcgsk2:tcgsk.obj
 0001:000ae630       ?CaclCardType_ABT_Three@CSkTable@@UAEHQAHHHPAU_tagCARD_UNITE@@@Z 004af630 f   tcgsk2:tcgsk.obj
 0001:000ae740       ?GetCardType_ABT_Three@CSkTable@@UAEHQAHH0HHAAU_tagUNITE_TYPE@@H@Z 004af740 f   tcgsk2:tcgsk.obj
 0001:000ae930       ?CaclCardType_ABT_Three_Couple@CSkTable@@UAEHQAHHHPAU_tagCARD_UNITE@@@Z 004af930 f   tcgsk2:tcgsk.obj
 0001:000aea50       ?GetCardType_ABT_Three_Couple@CSkTable@@UAEHQAHH0HHAAU_tagUNITE_TYPE@@H@Z 004afa50 f   tcgsk2:tcgsk.obj
 0001:000aed90       ?CaclCardType_TongHuaShun@CSkTable@@UAEHQAHHHPAU_tagCARD_UNITE@@@Z 004afd90 f   tcgsk2:tcgsk.obj
 0001:000aeeb0       ?GetCardType_TongHuaShun@CSkTable@@UAEHQAHH0HHAAU_tagUNITE_TYPE@@H@Z 004afeb0 f   tcgsk2:tcgsk.obj
 0001:000af230       ?CaclCardType_4King@CSkTable@@UAEHQAHHHPAU_tagCARD_UNITE@@@Z 004b0230 f   tcgsk2:tcgsk.obj
 0001:000af320       ?GetCardType_4King@CSkTable@@UAEHQAHH0HHAAU_tagUNITE_TYPE@@@Z 004b0320 f   tcgsk2:tcgsk.obj
 0001:000af420       ?CalcCardType_Bug@CSkTable@@UAEHQAHHHPAU_tagCARD_UNITE@@@Z 004b0420 f   tcgsk2:tcgsk.obj
 0001:000af4f0       ?PutAllCardsToCost@CSkTable@@UAEXXZ 004b04f0 f   tcgsk2:tcgsk.obj
 0001:000af500       ?OnAuctionBanker@CSkTable@@UAEHPAU_tagAUCTION_BANKER@@AAH@Z 004b0500 f   tcgsk2:tcgsk.obj
 0001:000af6d0       ?OnAuctionFinished@CSkTable@@UAEHXZ 004b06d0 f   tcgsk2:tcgsk.obj
 0001:000af710       ?SetGroupsOnAuctionFinished@CSkTable@@UAEHXZ 004b0710 f   tcgsk2:tcgsk.obj
 0001:000af720       ?SK_LayCards@@YAHQAHH0K@Z  004b0720 f   tcgsk2:tcgsk.obj
 0001:000af7f0       ?OnRequest@CSkServer@@MAEHPAX0@Z 004b07f0 f   tcgsknt2:tcgsvrsk.obj
 0001:000af900       ?OnNewTable@CSkServer@@MAEPAVCTable@@HHH@Z 004b0900 f   tcgsknt2:tcgsvrsk.obj
 0001:000af9c0       ?OnAllowCardView@CSkServer@@MAEHPAU_tagCONTEXT_HEAD@@PAVREQUEST@@PAVCWorkerContext@@@Z 004b09c0 f   tcgsknt2:tcgsvrsk.obj
 0001:000afd40       ?OnAuctionBanker@CSkServer@@UAEHPAU_tagCONTEXT_HEAD@@PAVREQUEST@@PAVCWorkerContext@@@Z 004b0d40 f   tcgsknt2:tcgsvrsk.obj
 0001:000b0140       ?NotifyAuctionBanker@CSkServer@@UAEXPAVCSkTable@@PAU_tagAUCTION_BANKER@@J@Z 004b1140 f   tcgsknt2:tcgsvrsk.obj
 0001:000b01c0       ?NotifyAuctionFinished@CSkServer@@UAEXPAVCSkTable@@PAU_tagAUCTION_BANKER@@J@Z 004b11c0 f   tcgsknt2:tcgsvrsk.obj
 0001:000b0260       ?NotifyPlayerMsgAndResponse@CSkServer@@UAEHPAU_tagCONTEXT_HEAD@@PAVCTable@@HKKPAX@Z 004b1260 f   tcgsknt2:tcgsvrsk.obj
 0001:000b04c0       ?NotifyTableMsg@CSkServer@@UAEHPAVCTable@@HHHPAXJ@Z 004b14c0 f   tcgsknt2:tcgsvrsk.obj
 0001:000b0600       ?NotifyResponseFaild@CSkServer@@UAEHPAU_tagCONTEXT_HEAD@@@Z 004b1600 f   tcgsknt2:tcgsvrsk.obj
 0001:000b0690       ?NotifyResponseSucceesd@CSkServer@@UAEHPAU_tagCONTEXT_HEAD@@@Z 004b1690 f   tcgsknt2:tcgsvrsk.obj
 0001:000b0720       ?OnSendSysMsgToServer@CSkServer@@UAEHPAU_tagCONTEXT_HEAD@@PAVREQUEST@@PAVCWorkerContext@@@Z 004b1720 f   tcgsknt2:tcgsvrsk.obj
 0001:000b0e40       ?OnEnterMatchDXXW@CSkServer@@UAEHPAU_tagCONTEXT_HEAD@@PAVCTable@@PAVCPlayer@@@Z 004b1e40 f   tcgsknt2:tcgsvrsk.obj
 0001:000b0e70       ?SimulateGameMsgFromUser@CSkServer@@UAEHHPAVCPlayer@@HHPAXK@Z 004b1e70 f   tcgsknt2:tcgsvrsk.obj
 0001:000b0f50       ?OnPlayerLeave@CSkServer@@MAEXPAU_tagCONTEXT_HEAD@@PAVCTable@@H@Z 004b1f50 f   tcgsknt2:tcgsvrsk.obj
 0001:000b0f80       ?OnSeverAutoPlay@CSkServer@@UAEXPAVCRoom@@PAVCTable@@H@Z 004b1f80 f   tcgsknt2:tcgsvrsk.obj
 0001:000b0f90       ?NotifyCardsThrow@CSkServer@@UAEXPAVCSkTable@@PAU_tagCARDS_THROW@@J@Z 004b1f90 f   tcgsknt2:tcgsvrsk.obj
 0001:000b1010       ?NotifyCardsPass@CSkServer@@UAEXPAVCSkTable@@PAU_tagCARDS_PASS@@J@Z 004b2010 f   tcgsknt2:tcgsvrsk.obj
 0001:000b1070       ?OnThrowCards@CSkServer@@UAEHPAU_tagCONTEXT_HEAD@@PAVREQUEST@@PAVCWorkerContext@@@Z 004b2070 f   tcgsknt2:tcgsvrsk.obj
 0001:000b1510       ?OnPassCards@CSkServer@@UAEHPAU_tagCONTEXT_HEAD@@PAVREQUEST@@PAVCWorkerContext@@@Z 004b2510 f   tcgsknt2:tcgsvrsk.obj
 0001:000b19b0       ?UwlClearRequest@@YAXPAVREQUEST@@@Z 004b29b0 f   uwl:uwlreq.obj
 0001:000b19e0       ?UwlCopyRequest@@YAXPAVREQUEST@@0@Z 004b29e0 f   uwl:uwlreq.obj
 0001:000b1a40       ?UwlConstructRequest@@YAHPAXHAAPAU_tagCONTEXT_HEAD@@AAPAVREQUEST@@QBEKKKH@Z 004b2a40 f   uwl:uwlreq.obj
 0001:000b1d00       ?UwlBeginLog@@YAXPADK@Z    004b2d00 f   uwl:uwllog.obj
 0001:000b1d50       ?UwlEndLog@@YAXXZ          004b2d50 f   uwl:uwllog.obj
 0001:000b1d60       ?UwlLogFile@@YAXPADZZ      004b2d60 f   uwl:uwllog.obj
 0001:000b1da0       ?_UwlLogPrintf@@YAXPAD@Z   004b2da0 f   uwl:uwllog.obj
 0001:000b20d0       ?UwlGetErrMsg@@YAHHAAVCString@@@Z 004b30d0 f   uwl:uwlerr.obj
 0001:000b21a0       ?UWL_TESTHR@@YAXJ@Z        004b31a0 f   uwl:uwlutil.obj
 0001:000b21b0       ?new_byte_array@@YAPAXHH@Z 004b31b0 f   uwl:uwlutil.obj
 0001:000b21f0       ?UwlLog2@@YAHH@Z           004b31f0 f   uwl:uwlutil.obj
 0001:000b2210       ?UwlPow2@@YAHH@Z           004b3210 f   uwl:uwlutil.obj
 0001:000b2230       ?UwlAnsiStrToWide@@YAXPAGPBDH@Z 004b3230 f   uwl:uwlutil.obj
 0001:000b2280       ?UwlWideStrToAnsi@@YAXPADPBGH@Z 004b3280 f   uwl:uwlutil.obj
 0001:000b22d0       ?UwlGeneStrToAnsi@@YAXPADPBDH@Z 004b32d0 f   uwl:uwlutil.obj
 0001:000b2320       ?UwlGeneStrToWide@@YAXPAGPBDH@Z 004b3320 f   uwl:uwlutil.obj
 0001:000b2340       ?UwlAnsiStrToGene@@YAXPADPBDH@Z 004b3340 f   uwl:uwlutil.obj
 0001:000b2390       ?UwlWideStrToGene@@YAXPADPBGH@Z 004b3390 f   uwl:uwlutil.obj
 0001:000b23b0       ?UwlSplitPath@@YAXPADH0@Z  004b33b0 f   uwl:uwlutil.obj
 0001:000b24f0       ?UwlPathExists@@YAHPBDH@Z  004b34f0 f   uwl:uwlutil.obj
 0001:000b2550       ?UwlReadStrRegKey@@YAJPAUHKEY__@@PAD1K1@Z 004b3550 f   uwl:uwlutil.obj
 0001:000b25b0       ?UwlWriteStrRegKey@@YAJPAUHKEY__@@PAD1@Z 004b35b0 f   uwl:uwlutil.obj
 0001:000b25e0       ?UwlReadIntRegKey@@YAJPAUHKEY__@@PADPAKK@Z 004b35e0 f   uwl:uwlutil.obj
 0001:000b2620       ?UwlWriteIntRegKey@@YAJPAUHKEY__@@PADK@Z 004b3620 f   uwl:uwlutil.obj
 0001:000b2650       ?UwlReadBoolRegKey@@YAJPAUHKEY__@@PADPAHH@Z 004b3650 f   uwl:uwlutil.obj
 0001:000b2690       ?UwlWriteBoolRegKey@@YAJPAUHKEY__@@PADH@Z 004b3690 f   uwl:uwlutil.obj
 0001:000b26c0       ?UwlReadGuidRegKey@@YAJPAUHKEY__@@PADPAU_GUID@@AAU2@@Z 004b36c0 f   uwl:uwlutil.obj
 0001:000b2710       ?UwlWriteGuidRegKey@@YAJPAUHKEY__@@PADU_GUID@@@Z 004b3710 f   uwl:uwlutil.obj
 0001:000b2740       ?UwlGetExePath@@YAHPAD@Z   004b3740 f   uwl:uwlutil.obj
 0001:000b2780       ?UwlGetAPIErrStr@@YA?AVCString@@K@Z 004b3780 f   uwl:uwlutil.obj
 0001:000b2830       ?UwlConvertHexToStr@@YAXPAEHAAVCString@@@Z 004b3830 f   uwl:uwlutil.obj
 0001:000b28e0       ?UwlConvertHexStrToBin@@YAXPBDHPAD@Z 004b38e0 f   uwl:uwlutil.obj
 0001:000b2a80       ?UwlConvertBinStrToHex@@YAXPBDHPAD@Z 004b3a80 f   uwl:uwlutil.obj
 0001:000b2ec0       ?UwlMakeOnewayCodeDWord@@YAHPBDHAAKPAK@Z 004b3ec0 f   uwl:uwlutil.obj
 0001:000b2fa0       ??0CBuffer@@QAE@XZ         004b3fa0 f   uwl:uwlutil.obj
 0001:000b2fc0       ??_GCBuffer@@UAEPAXI@Z     004b3fc0 f i uwl:uwlutil.obj
 0001:000b2fc0       ??_ECBuffer@@UAEPAXI@Z     004b3fc0 f i uwl:uwlutil.obj
 0001:000b2fe0       ??1CBuffer@@UAE@XZ         004b3fe0 f   uwl:uwlutil.obj
 0001:000b3000       ?ClearBuffer@CBuffer@@QAEXXZ 004b4000 f   uwl:uwlutil.obj
 0001:000b3020       ?GetBufferLen@CBuffer@@QAEIXZ 004b4020 f   uwl:uwlutil.obj
 0001:000b3030       ?Delete@CBuffer@@QAEII@Z   004b4030 f   uwl:uwlutil.obj
 0001:000b30a0       ?Read@CBuffer@@QAEIPAEI@Z  004b40a0 f   uwl:uwlutil.obj
 0001:000b3130       ?Write@CBuffer@@QAEIPAEI@Z 004b4130 f   uwl:uwlutil.obj
 0001:000b3180       ?Scan@CBuffer@@QAEHPAEI@Z  004b4180 f   uwl:uwlutil.obj
 0001:000b31d0       ?Insert@CBuffer@@QAEIPAEI@Z 004b41d0 f   uwl:uwlutil.obj
 0001:000b3230       ?Copy@CBuffer@@QAEXAAV1@@Z 004b4230 f   uwl:uwlutil.obj
 0001:000b32a0       ?GetBuffer@CBuffer@@QAEPAEI@Z 004b42a0 f   uwl:uwlutil.obj
 0001:000b32b0       ?ReAllocateBuffer@CBuffer@@IAEII@Z 004b42b0 f   uwl:uwlutil.obj
 0001:000b3360       ?DeAllocateBuffer@CBuffer@@IAEII@Z 004b4360 f   uwl:uwlutil.obj
 0001:000b3420       ?GetMemSize@CBuffer@@IAEIXZ 004b4420 f   uwl:uwlutil.obj
 0001:000b3430       ?UwlGetCurrentDateTime@@YAHAAH0@Z 004b4430 f   uwl:uwlutil.obj
 0001:000b34c0       ?UwlGetCurrentSeconds@@YAHXZ 004b44c0 f   uwl:uwlutil.obj
 0001:000b34d0       ?UwlCreateRandomBytes@@YAHPAEK@Z 004b44d0 f   uwl:uwlutil.obj
 0001:000b3570       ?UwlCreateUniqueID@@YAHPAD@Z 004b4570 f   uwl:uwlutil.obj
 0001:000b3620       ?UwlCreateRandomNumbers@@YAHAAHK@Z 004b4620 f   uwl:uwlutil.obj
 0001:000b36c0       ?_UwlTraceComError@@YAXAAV_com_error@@@Z 004b46c0 f   uwl:uwlutil.obj
 0001:000b37a0       ?UwlStrToken@@YAHPADAAVCStringArray@@PBD@Z 004b47a0 f   uwl:uwlutil.obj
 0001:000b3800       ?UwlGetRandomBetween@@YAHHH@Z 004b4800 f   uwl:uwlutil.obj
 0001:000b3830       ?UwlGetRandomBetweenEx@@YAHHHH@Z 004b4830 f   uwl:uwlutil.obj
 0001:000b3880       ?UwlCreateRandomArray@@YAHAAV?$CArray@HH@@H@Z 004b4880 f   uwl:uwlutil.obj
 0001:000b3a30       ?UwlGetAvailableVM@@YAKXZ  004b4a30 f   uwl:uwlutil.obj
 0001:000b3a60       ?UwlGetMemoryLoad@@YAKXZ   004b4a60 f   uwl:uwlutil.obj
 0001:000b3a90       ?UwlAllTrim@@YAPADPAD@Z    004b4a90 f   uwl:uwlutil.obj
 0001:000b3af0       ?UwlRetrieveField@@YAPADPADH@Z 004b4af0 f   uwl:uwlutil.obj
 0001:000b3b30       ?UwlRetrieveFields@@YAHPADPAPADH1@Z 004b4b30 f   uwl:uwlutil.obj
 0001:000b3ba0       ?UwlGetVolumeSerialNumber@@YA?AVCString@@XZ 004b4ba0 f   uwl:uwlutil.obj
 0001:000b3cd0       ?UwlGetHardDiskNumberList@@YA?AVCString@@XZ 004b4cd0 f   uwl:uwlutil.obj
 0001:000b3e00       ?UwlRtlGetVersion@@YAHPAU_OSVERSIONINFOW@@@Z 004b4e00 f   uwl:uwlutil.obj
 0001:000b3e70       ?UwlRegQueryOSProductType@@YAKXZ 004b4e70 f   uwl:uwlutil.obj
 0001:000b3f10       ?UwlGetSystemVersion@@YAHAAK@Z 004b4f10 f   uwl:uwlutil.obj
 0001:000b42a0       ?Description@_com_error@@QBE?AV_bstr_t@@XZ 004b52a0 f i uwl:uwlutil.obj
 0001:000b4330       ?Source@_com_error@@QBE?AV_bstr_t@@XZ 004b5330 f i uwl:uwlutil.obj
 0001:000b43c0       ??0CBaseWorker@@QAE@XZ     004b53c0 f   uwl:uwlwork.obj
 0001:000b4460       ??_ECBaseWorker@@UAEPAXI@Z 004b5460 f i uwl:uwlwork.obj
 0001:000b4460       ??_GCBaseWorker@@UAEPAXI@Z 004b5460 f i uwl:uwlwork.obj
 0001:000b4480       ??1CBaseWorker@@UAE@XZ     004b5480 f   uwl:uwlwork.obj
 0001:000b4550       ?Begin@CBaseWorker@@UAEHHJ@Z 004b5550 f   uwl:uwlwork.obj
 0001:000b45c0       ?End@CBaseWorker@@UAEXXZ   004b55c0 f   uwl:uwlwork.obj
 0001:000b4630       ?WorkerThreadFunc@CBaseWorker@@KGIPAX@Z 004b5630 f   uwl:uwlwork.obj
 0001:000b4640       ?WorkerThreadProc@CBaseWorker@@MAEIXZ 004b5640 f   uwl:uwlwork.obj
 0001:000b4680       ?BeginWorkerPool@CBaseWorker@@MAEHH@Z 004b5680 f   uwl:uwlwork.obj
 0001:000b46e0       ?OnWorkerThreadStart@CBaseWorker@@MAEHXZ 004b56e0 f   uwl:uwlwork.obj
 0001:000b47e0       ?OnWorkerThreadExit@CBaseWorker@@MAEHXZ 004b57e0 f   uwl:uwlwork.obj
 0001:000b4900       ?GetWorkerContext@CBaseWorker@@MAEPAXK@Z 004b5900 f   uwl:uwlwork.obj
 0001:000b4970       ?OnWorkerStart@CBaseWorker@@MAEPAXXZ 004b5970 f   uwl:uwlwork.obj
 0001:000b4980       ?OnWorkerExit@CBaseWorker@@MAEXPAX@Z 004b5980 f   uwl:uwlwork.obj
 0001:000b49a0       ?AllocateReqOv@CBaseWorker@@MAEPAVREQ_OV@@PAX0@Z 004b59a0 f   uwl:uwlwork.obj
 0001:000b4a50       ?MoveReqOvToFree@CBaseWorker@@MAEPAVREQ_OV@@PAV2@@Z 004b5a50 f   uwl:uwlwork.obj
 0001:000b4b10       ?PutRequestToQueue@CBaseWorker@@MAEHKKPAX00@Z 004b5b10 f   uwl:uwlwork.obj
 0001:000b4b70       ?CheckRequest@CBaseWorker@@MAEHPAX0@Z 004b5b70 f   uwl:uwlwork.obj
 0001:000b4b80       ?OnRequest@CBaseWorker@@MAEHPAX0@Z 004b5b80 f   uwl:uwlwork.obj
 0001:000b4b90       ??0CQueueWorker@@QAE@XZ    004b5b90 f   uwl:uwlwork.obj
 0001:000b4be0       ??_ECQueueWorker@@UAEPAXI@Z 004b5be0 f i uwl:uwlwork.obj
 0001:000b4be0       ??_GCQueueWorker@@UAEPAXI@Z 004b5be0 f i uwl:uwlwork.obj
 0001:000b4c00       ??1CQueueWorker@@UAE@XZ    004b5c00 f   uwl:uwlwork.obj
 0001:000b4c20       ?Begin@CQueueWorker@@UAEHHJ@Z 004b5c20 f   uwl:uwlwork.obj
 0001:000b4c40       ?End@CQueueWorker@@UAEXXZ  004b5c40 f   uwl:uwlwork.obj
 0001:000b4c50       ?InitializeQueue@CQueueWorker@@MAEHXZ 004b5c50 f   uwl:uwlwork.obj
 0001:000b4cd0       ?CloseQueueHandle@CQueueWorker@@MAEXXZ 004b5cd0 f   uwl:uwlwork.obj
 0001:000b4d10       ?TerminateWorker@CQueueWorker@@MAEXXZ 004b5d10 f   uwl:uwlwork.obj
 0001:000b4e30       ?ClearQueueData@CQueueWorker@@MAEXXZ 004b5e30 f   uwl:uwlwork.obj
 0001:000b4eb0       ?PutDataToQueue@CQueueWorker@@MAEHKKPAVREQ_OV@@@Z 004b5eb0 f   uwl:uwlwork.obj
 0001:000b4f30       ?DoWorkLoop@CQueueWorker@@MAEXXZ 004b5f30 f   uwl:uwlwork.obj
 0001:000b5070       ??_GCPtrQueue@@UAEPAXI@Z   004b6070 f i uwl:uwlwork.obj
 0001:000b5070       ??_ECPtrQueue@@UAEPAXI@Z   004b6070 f i uwl:uwlwork.obj
 0001:000b5090       ??1?$CMap@KKPAXPAX@@UAE@XZ 004b6090 f i uwl:uwlwork.obj
 0001:000b5120       ?Serialize@?$CMap@KKPAXPAX@@UAEXAAVCArchive@@@Z 004b6120 f i uwl:uwlwork.obj
 0001:000b5330       ??_E?$CMap@KKPAXPAX@@UAEPAXI@Z 004b6330 f i uwl:uwlwork.obj
 0001:000b5330       ??_G?$CMap@KKPAXPAX@@UAEPAXI@Z 004b6330 f i uwl:uwlwork.obj
 0001:000b5350       ?NewAssoc@?$CMap@KKPAXPAX@@IAEPAUCAssoc@1@XZ 004b6350 f i uwl:uwlwork.obj
 0001:000b53b0       ?UwlInit@@YAHXZ            004b63b0 f   uwl:uwlmain.obj
 0001:000b5400       ?UwlTerm@@YAXXZ            004b6400 f   uwl:uwlmain.obj
 0001:000b5410       ?UwlLoadStr@@YAHIPADH@Z    004b6410 f   uwl:uwlmain.obj
 0001:000b54c0       ?UwlInitSeeds@@YAHPAK@Z    004b64c0 f   uwl:uwllic.obj
 0001:000b5500       ?UwlMakeLicense@@YAHPAU_tagLICSETTINGS@@VCString@@AAV2@2H@Z 004b6500 f   uwl:uwllic.obj
 0001:000b6280       ?UwlWriteLicFile@@YAHPBDAAVCString@@@Z 004b7280 f   uwl:uwllic.obj
 0001:000b62d0       ?UwlValidateLicFile@@YAHPBDPAU_tagLICSETTINGS@@AAVCString@@H@Z 004b72d0 f   uwl:uwllic.obj
 0001:000b65f0       ?UwlCheckLicense@@YAHPBDVCString@@1AAHPAU_tagLICSETTINGS@@H@Z 004b75f0 f   uwl:uwllic.obj
 0001:000b6780       ?UwlGetLicFeature@@YAHPBDVCString@@AAV1@AAHH@Z 004b7780 f   uwl:uwllic.obj
 0001:000b68e0       ?UwlGetLicWarning@@YAHPAU_tagLICSETTINGS@@AAHAAVCString@@@Z 004b78e0 f   uwl:uwllic.obj
 0001:000b6c50       ?UwlAddConnection@@YAHPBDHAAHPAU_tagLICSETTINGS@@@Z 004b7c50 f   uwl:uwllic.obj
 0001:000b6d90       ?UwlCheckProductInfo@@YAHPBD@Z 004b7d90 f   uwl:uwllic.obj
 0001:000b6e10       ?UwlGetProductInfo@@YAHPBDVCString@@AAV1@@Z 004b7e10 f   uwl:uwllic.obj
 0001:000b6f10       ?UwlCleanSectionContent@@YA?AVCString@@V1@@Z 004b7f10 f   uwl:uwllic.obj
 0001:000b7070       ?ReplaceSectionNullStr@@YA?AVCString@@PADH@Z 004b8070 f   uwl:uwllic.obj
 0001:000b7150       ?FormatDate@@YA?AVCString@@PBD@Z 004b8150 f   uwl:uwllic.obj
 0001:000b72f0       ?CheckProduct@@YAHPAU_tagLICSETTINGS@@VCString@@AAH@Z 004b82f0 f   uwl:uwllic.obj
 0001:000b73e0       ?CheckVersion@@YAHPAU_tagLICSETTINGS@@VCString@@AAH@Z 004b83e0 f   uwl:uwllic.obj
 0001:000b74d0       ?CheckExpiration@@YAHPAU_tagLICSETTINGS@@AAH@Z 004b84d0 f   uwl:uwllic.obj
 0001:000b7660       ?CheckStartDate@@YAHPAU_tagLICSETTINGS@@AAH@Z 004b8660 f   uwl:uwllic.obj
 0001:000b77a0       ?CheckDays@@YAHPAU_tagLICSETTINGS@@AAH@Z 004b87a0 f   uwl:uwllic.obj
 0001:000b7960       ?CheckMacAddress@@YAHPAU_tagLICSETTINGS@@AAH@Z 004b8960 f   uwl:uwllic.obj
 0001:000b7ae0       ?CheckHardDiskNumber@@YAHPAU_tagLICSETTINGS@@AAH@Z 004b8ae0 f   uwl:uwllic.obj
 0001:000b7bd0       ?UwlGetLicErrMsg@@YAHHAAVCString@@@Z 004b8bd0 f   uwl:uwllic.obj
 0001:000b7bf0       ?UwlCheckLicense2@@YAHPBDVCString@@1AAHPAU_tagLICSETTINGS@@H@Z 004b8bf0 f   uwl:uwllic.obj
 0001:000b7d80       ?UwlCheckLicense3@@YAHPBDVCString@@1AAHPAU_tagLICSETTINGS@@H@Z 004b8d80 f   uwl:uwllic.obj
 0001:000b7f10       ?CheckMachineID@@YAHPAU_tagLICSETTINGS@@AAH@Z 004b8f10 f   uwl:uwllic.obj
 0001:000b80f0       ?GetDiskIDInNT@@YA?AVCString@@XZ 004b90f0 f   uwl:uwllic.obj
 0001:000b8310       ?ChangeByteOrder@@YAXPADG@Z 004b9310 f   uwl:uwllic.obj
 0001:000b8340       ??0CTimeSpan@@QAE@ABV0@@Z  004b9340 f i uwl:uwllic.obj
 0001:000b8350       ??GCTime@@QBE?AVCTimeSpan@@V0@@Z 004b9350 f i uwl:uwllic.obj
 0001:000b8370       ??HCTime@@QBE?AV0@VCTimeSpan@@@Z 004b9370 f i uwl:uwllic.obj
 0001:000b8390       ??MCTime@@QBEHV0@@Z        004b9390 f i uwl:uwllic.obj
 0001:000b83a0       ??OCTime@@QBEHV0@@Z        004b93a0 f i uwl:uwllic.obj
 0001:000b83b0       ??NCTime@@QBEHV0@@Z        004b93b0 f i uwl:uwllic.obj
 0001:000b8440       ?UwlInitSocket@@YAHXZ      004b9440 f   uwl:uwlsock.obj
 0001:000b8470       ?UwlTermSocket@@YAXXZ      004b9470 f   uwl:uwlsock.obj
 0001:000b8480       ?UwlRegSocketWnd@@YAHXZ    004b9480 f   uwl:uwlsock.obj
 0001:000b8520       ?UwlUnregSocketWnd@@YAXXZ  004b9520 f   uwl:uwlsock.obj
 0001:000b8540       ?UwlSockAddr@@YAHPBDHAAUsockaddr_in@@@Z 004b9540 f   uwl:uwlsock.obj
 0001:000b85f0       ?UwlGetPeerName@@YAHIPAD@Z 004b95f0 f   uwl:uwlsock.obj
 0001:000b8660       ?UwlGetSockName@@YAHIPAD@Z 004b9660 f   uwl:uwlsock.obj
 0001:000b86d0       ?UwlGetPeerAddr@@YAHIAAK@Z 004b96d0 f   uwl:uwlsock.obj
 0001:000b8740       ?UwlGetSockAddr@@YAHIAAK@Z 004b9740 f   uwl:uwlsock.obj
 0001:000b87b0       ?UwlGetPeerPort@@YAHIAAH@Z 004b97b0 f   uwl:uwlsock.obj
 0001:000b8820       ?UwlGetSockPort@@YAHIAAH@Z 004b9820 f   uwl:uwlsock.obj
 0001:000b8890       ?UwlAddrToName@@YAHKPAD@Z  004b9890 f   uwl:uwlsock.obj
 0001:000b88c0       ?UwlAddrToNameEx@@YAHPAUsockaddr_in@@PAD@Z 004b98c0 f   uwl:uwlsock.obj
 0001:000b88e0       ?UwlNameToAddr@@YAHPADAAK@Z 004b98e0 f   uwl:uwlsock.obj
 0001:000b8930       ?UwlGetIPAddrDW@@YAKPAUsockaddr@@@Z 004b9930 f   uwl:uwlsock.obj
 0001:000b8940       ?UwlAddrToIPStr@@YA?AVCString@@PAUsockaddr@@@Z 004b9940 f   uwl:uwlsock.obj
 0001:000b89a0       ?UwlIsSameIPAddr@@YAHKKH@Z 004b99a0 f   uwl:uwlsock.obj
 0001:000b8ac0       ?UwlGetConnectedSeconds@@YAHI@Z 004b9ac0 f   uwl:uwlsock.obj
 0001:000b8b40       ?UwlIsConnected@@YAHI@Z    004b9b40 f   uwl:uwlsock.obj
 0001:000b8b60       ?UwlPrintAddress@@YAHPAUsockaddr@@H@Z 004b9b60 f   uwl:uwlsock.obj
 0001:000b8d60       ?UwlFormatAddress@@YAHPAUsockaddr@@HPADH@Z 004b9d60 f   uwl:uwlsock.obj
 0001:000b8fc0       ?UwlResolveAddress@@YAPAUaddrinfo@@PAD0HHH@Z 004b9fc0 f   uwl:uwlsock.obj
 0001:000b9280       _WspiapiLegacyFreeAddrInfo@4 004ba280 f i uwl:uwlsock.obj
 0001:000b92d0       _WspiapiLegacyGetAddrInfo@16 004ba2d0 f i uwl:uwlsock.obj
 0001:000b9910       _WspiapiStrdup@4           004ba910 f i uwl:uwlsock.obj
 0001:000b9970       _WspiapiNewAddrInfo@16     004ba970 f i uwl:uwlsock.obj
 0001:000b99f0       _WspiapiLegacyGetNameInfo@28 004ba9f0 f i uwl:uwlsock.obj
 0001:000b9c30       ?UwlMD5Init@@YAXPAUMD5_CTX@@PAK@Z 004bac30 f   uwl:uwlmd5.obj
 0001:000b9c80       ?UwlMD5Update@@YAXPAUMD5_CTX@@PAEI@Z 004bac80 f   uwl:uwlmd5.obj
 0001:000b9d30       ?UwlMD5Final@@YAXPAUMD5_CTX@@@Z 004bad30 f   uwl:uwlmd5.obj
 0001:000ba800       ?UwlComposePacket@@YAHAAVCBuffer@@0H@Z 004bb800 f   uwl:uwlpack.obj
 0001:000ba8c0       ?UwlDecomposePacket@@YAHAAVCBuffer@@0H@Z 004bb8c0 f   uwl:uwlpack.obj
 0001:000ba990       ??0CPackager@@QAE@QBEKKK@Z 004bb990 f   uwl:uwlpack.obj
 0001:000baa00       ??_ECPackager@@UAEPAXI@Z   004bba00 f i uwl:uwlpack.obj
 0001:000baa00       ??_GCPackager@@UAEPAXI@Z   004bba00 f i uwl:uwlpack.obj
 0001:000baa20       ??1CPackager@@UAE@XZ       004bba20 f   uwl:uwlpack.obj
 0001:000baa80       ?SetParam@CPackager@@UAEHQBEKKK@Z 004bba80 f   uwl:uwlpack.obj
 0001:000baab0       ?Package@CPackager@@UAEHAAVCBuffer@@K@Z 004bbab0 f   uwl:uwlpack.obj
 0001:000bab20       ?Compress@CPackager@@UAEHAAVCBuffer@@K@Z 004bbb20 f   uwl:uwlpack.obj
 0001:000bacf0       ?Encrypt@CPackager@@UAEHAAVCBuffer@@K@Z 004bbcf0 f   uwl:uwlpack.obj
 0001:000baf40       ?EncryptFileA@CPackager@@UAEHPBD0KK@Z 004bbf40 f   uwl:uwlpack.obj
 0001:000bb0c0       ??0CCompresser@@QAE@XZ     004bc0c0 f   uwl:uwlpack.obj
 0001:000bb0d0       ??_GCCompresser@@UAEPAXI@Z 004bc0d0 f i uwl:uwlpack.obj
 0001:000bb0d0       ??_ECCompresser@@UAEPAXI@Z 004bc0d0 f i uwl:uwlpack.obj
 0001:000bb0f0       ??1CCompresser@@UAE@XZ     004bc0f0 f   uwl:uwlpack.obj
 0001:000bb100       ?Compress@CCompresser@@QAEHPADHPAPADAAHK@Z 004bc100 f   uwl:uwlpack.obj
 0001:000bb160       ??0CEncrypter@@QAE@XZ      004bc160 f   uwl:uwlpack.obj
 0001:000bb170       ??_GCEncrypter@@UAEPAXI@Z  004bc170 f i uwl:uwlpack.obj
 0001:000bb170       ??_ECEncrypter@@UAEPAXI@Z  004bc170 f i uwl:uwlpack.obj
 0001:000bb190       ??1CEncrypter@@UAE@XZ      004bc190 f   uwl:uwlpack.obj
 0001:000bb1a0       ?Encrypt@CEncrypter@@QAEHQBEKPBEHPAEAAHK@Z 004bc1a0 f   uwl:uwlpack.obj
 0001:000bb260       ?EncodePassword@CEncrypter@@QAEHPAKPBDHPADAAH@Z 004bc260 f   uwl:uwlpack.obj
 0001:000bb3f0       ?UwlGetMacAddr@@YAHPAE@Z   004bc3f0 f   uwl:uwlmac.obj
 0001:000bb4a0       ?UwlFindMacAddr@@YAHPBD@Z  004bc4a0 f   uwl:uwlmac.obj
 0001:000bb690       ?Deflate@CFlate@@QAEXPAUISequentialStream@@0@Z 004bc690 f   uwl:uwlflate.obj
 0001:000bb780       ?Inflate@CFlate@@QAEXPAUISequentialStream@@0@Z 004bc780 f   uwl:uwlflate.obj
 0001:000bb870       ?Deflate@CFlate@@QAEXPAVCFile@@0@Z 004bc870 f   uwl:uwlflate.obj
 0001:000bb940       ?Inflate@CFlate@@QAEXPAVCFile@@0@Z 004bc940 f   uwl:uwlflate.obj
 0001:000bba10       ?Compress@CFlate@@QAEHAAVCByteArray@@PBEI@Z 004bca10 f   uwl:uwlflate.obj
 0001:000bbaa0       ?Uncompress@CFlate@@QAEHAAVCByteArray@@PBEI@Z 004bcaa0 f   uwl:uwlflate.obj
 0001:000bbb30       ?UwlCompressZip@@YAHPADHPAPADAAH@Z 004bcb30 f   uwl:uwlflate.obj
 0001:000bbc00       ?UwlDecompressZip@@YAHPADHPAPADAAH@Z 004bcc00 f   uwl:uwlflate.obj
 0001:000bbd50       ??1CBAStreamReader@@QAE@XZ 004bcd50 f i uwl:uwlflate.obj
 0001:000bbd60       ?QueryInterface@CBAStreamReader@@UAGJABU_GUID@@PAPAX@Z 004bcd60 f i uwl:uwlflate.obj
 0001:000bbda0       ?AddRef@CBAStreamReader@@UAGKXZ 004bcda0 f i uwl:uwlflate.obj
 0001:000bbdb0       ?Release@CBAStreamReader@@UAGKXZ 004bcdb0 f i uwl:uwlflate.obj
 0001:000bbdc0       ?Read@CBAStreamReader@@UAGJPAXKPAK@Z 004bcdc0 f i uwl:uwlflate.obj
 0001:000bbe20       ?Write@CBAStreamReader@@UAGJPBXKPAK@Z 004bce20 f i uwl:uwlflate.obj
 0001:000bbe30       ??1CBAStreamWriter@@QAE@XZ 004bce30 f i uwl:uwlflate.obj
 0001:000bbe40       ?QueryInterface@CBAStreamWriter@@UAGJABU_GUID@@PAPAX@Z 004bce40 f i uwl:uwlflate.obj
 0001:000bbe80       ?AddRef@CBAStreamWriter@@UAGKXZ 004bce80 f i uwl:uwlflate.obj
 0001:000bbe90       ?Release@CBAStreamWriter@@UAGKXZ 004bce90 f i uwl:uwlflate.obj
 0001:000bbea0       ?Read@CBAStreamWriter@@UAGJPAXKPAK@Z 004bcea0 f i uwl:uwlflate.obj
 0001:000bbeb0       ?Write@CBAStreamWriter@@UAGJPBXKPAK@Z 004bceb0 f i uwl:uwlflate.obj
 0001:000bbf10       ?gen_tabs@?%D:\library\UWL9.1\uwl\uwlaes.cpp122741709@@YAXXZ 004bcf10 f   uwl:uwlaes.obj
 0001:000bc220       ?name@CRijndael@@QAEPADXZ  004bd220 f   uwl:uwlaes.obj
 0001:000bc230       ?set_key@CRijndael@@UAEXQBEK@Z 004bd230 f   uwl:uwlaes.obj
 0001:000bc5b0       ?encrypt@CRijndael@@UAEXQBEQAE@Z 004bd5b0 f   uwl:uwlaes.obj
 0001:000bd5e0       ?decrypt@CRijndael@@UAEXQBEQAE@Z 004be5e0 f   uwl:uwlaes.obj
 0001:000be640       ?AesEncrypt@CRijndael@@QAEXPBEHPAEAAH@Z 004bf640 f   uwl:uwlaes.obj
 0001:000be6f0       ?AesDecrypt@CRijndael@@QAEXPBEHPAEAAH@Z 004bf6f0 f   uwl:uwlaes.obj
 0001:000be810       ?UwlShowServiceDlg@@YAHAAVCDialog@@@Z 004bf810 f   uwlnt:uwlsvcwd.obj
 0001:000be900       ?UwlShowServiceMsg@@YAHPBD0I@Z 004bf900 f   uwlnt:uwlsvcwd.obj
 0001:000be990       ??0CNTService@@QAE@PBD0HH@Z 004bf990 f   uwlnt:uwlsvc.obj
 0001:000bea50       ??_GCNTService@@UAEPAXI@Z  004bfa50 f i uwlnt:uwlsvc.obj
 0001:000bea50       ??_ECNTService@@UAEPAXI@Z  004bfa50 f i uwlnt:uwlsvc.obj
 0001:000bea70       ??1CNTService@@UAE@XZ      004bfa70 f   uwlnt:uwlsvc.obj
 0001:000bea90       ?OnVersion@CNTService@@QAEXXZ 004bfa90 f   uwlnt:uwlsvc.obj
 0001:000beaa0       ?OnInstall@CNTService@@QAEXXZ 004bfaa0 f   uwlnt:uwlsvc.obj
 0001:000beac0       ?OnUninstall@CNTService@@QAEXXZ 004bfac0 f   uwlnt:uwlsvc.obj
 0001:000beb00       ?ParseStandardArgs@CNTService@@QAEHHQAPAD@Z 004bfb00 f   uwlnt:uwlsvc.obj
 0001:000beb90       ?FindOneOf@@YAPBDPBD0@Z    004bfb90 f   uwlnt:uwlsvc.obj
 0001:000bebe0       ?ParseCommandLine@CNTService@@QAEHPAD@Z 004bfbe0 f   uwlnt:uwlsvc.obj
 0001:000bec90       ?IsInstalled@CNTService@@QAEHXZ 004bfc90 f   uwlnt:uwlsvc.obj
 0001:000bece0       ?Install@CNTService@@QAEHXZ 004bfce0 f   uwlnt:uwlsvc.obj
 0001:000bee90       ?Uninstall@CNTService@@QAEHXZ 004bfe90 f   uwlnt:uwlsvc.obj
 0001:000bef80       ?LogEvent@CNTService@@QAEXGKPBD00@Z 004bff80 f   uwlnt:uwlsvc.obj
 0001:000bf010       ?StartServiceA@CNTService@@QAEHXZ 004c0010 f   uwlnt:uwlsvc.obj
 0001:000bf040       ?ServiceMain@CNTService@@SGXKPAPAD@Z 004c0040 f   uwlnt:uwlsvc.obj
 0001:000bf0d0       ?SetStatus@CNTService@@QAEXK@Z 004c00d0 f   uwlnt:uwlsvc.obj
 0001:000bf100       ?Initialize@CNTService@@QAEHXZ 004c0100 f   uwlnt:uwlsvc.obj
 0001:000bf170       ?Run@CNTService@@UAEXXZ    004c0170 f   uwlnt:uwlsvc.obj
 0001:000bf1a0       ?Handler@CNTService@@SGXK@Z 004c01a0 f   uwlnt:uwlsvc.obj
 0001:000bf260       ?OnInit@CNTService@@UAEHXZ 004c0260 f   uwlnt:uwlsvc.obj
 0001:000bf270       ?OnStop@CNTService@@UAEXXZ 004c0270 f   uwlnt:uwlsvc.obj
 0001:000bf280       ?OnInterrogate@CNTService@@UAEXXZ 004c0280 f   uwlnt:uwlsvc.obj
 0001:000bf290       ?OnPause@CNTService@@UAEXXZ 004c0290 f   uwlnt:uwlsvc.obj
 0001:000bf2a0       ?OnContinue@CNTService@@UAEXXZ 004c02a0 f   uwlnt:uwlsvc.obj
 0001:000bf2b0       ?OnShutdown@CNTService@@UAEXXZ 004c02b0 f   uwlnt:uwlsvc.obj
 0001:000bf2c0       ?OnUserControl@CNTService@@UAEHK@Z 004c02c0 f   uwlnt:uwlsvc.obj
 0001:000bf2d0       ?DebugMsg@CNTService@@QAAXPBDZZ 004c02d0 f   uwlnt:uwlsvc.obj
 0001:000bf360       ??0CIocpWorker@@QAE@XZ     004c0360 f   tcns:tciocp.obj
 0001:000bf380       ??_GCIocpWorker@@UAEPAXI@Z 004c0380 f i tcns:tciocp.obj
 0001:000bf380       ??_ECIocpWorker@@UAEPAXI@Z 004c0380 f i tcns:tciocp.obj
 0001:000bf3a0       ??1CIocpWorker@@UAE@XZ     004c03a0 f   tcns:tciocp.obj
 0001:000bf3b0       ?Begin@CIocpWorker@@UAEHHJ@Z 004c03b0 f   tcns:tciocp.obj
 0001:000bf3d0       ?End@CIocpWorker@@UAEXXZ   004c03d0 f   tcns:tciocp.obj
 0001:000bf3e0       ?InitializeQueue@CIocpWorker@@MAEHXZ 004c03e0 f   tcns:tciocp.obj
 0001:000bf410       ?CloseQueueHandle@CIocpWorker@@MAEXXZ 004c0410 f   tcns:tciocp.obj
 0001:000bf420       ?TerminateWorker@CIocpWorker@@MAEXXZ 004c0420 f   tcns:tciocp.obj
 0001:000bf4a0       ?ClearQueueData@CIocpWorker@@MAEXXZ 004c04a0 f   tcns:tciocp.obj
 0001:000bf520       ?PutDataToQueue@CIocpWorker@@MAEHKKPAVREQ_OV@@@Z 004c0520 f   tcns:tciocp.obj
 0001:000bf540       ?DoWorkLoop@CIocpWorker@@MAEXXZ 004c0540 f   tcns:tciocp.obj
 0001:000bf600       ?ClearIoSendContext@@YAXPAU_tagIO_SEND_CXT@@@Z 004c0600 f   tcns:tciocp.obj
 0001:000bf620       ??0CIocpServer@@QAE@QBEKKKHH@Z 004c0620 f   tcns:tciocp.obj
 0001:000bf7e0       ??_ECIocpServer@@UAEPAXI@Z 004c07e0 f i tcns:tciocp.obj
 0001:000bf7e0       ??_GCIocpServer@@UAEPAXI@Z 004c07e0 f i tcns:tciocp.obj
 0001:000bf800       ??1CIocpServer@@UAE@XZ     004c0800 f   tcns:tciocp.obj
 0001:000bf8a0       ?Initialize@CIocpServer@@UAEHPBDHPAXHHHHHKHHJHHHHHHHHHHH@Z 004c08a0 f   tcns:tciocp.obj
 0001:000bfa50       ?Shutdown@CIocpServer@@UAEXXZ 004c0a50 f   tcns:tciocp.obj
 0001:000bfab0       ?BuildDataBuffer@CIocpServer@@UAEPAVCBuffer@@PAVREQUEST@@KK@Z 004c0ab0 f   tcns:tciocp.obj
 0001:000bfc10       ?SendDataBuffer@CIocpServer@@UAEHIPAU_tagCONTEXT_HEAD@@PAVCBuffer@@HH@Z 004c0c10 f   tcns:tciocp.obj
 0001:000bfc70       ?SendResponse@CIocpServer@@UAEHIPAU_tagCONTEXT_HEAD@@PAVREQUEST@@HKKH@Z 004c0c70 f   tcns:tciocp.obj
 0001:000bfcd0       ?SendRequest@CIocpServer@@UAEHIPAU_tagCONTEXT_HEAD@@PAVREQUEST@@HKKH@Z 004c0cd0 f   tcns:tciocp.obj
 0001:000bfd00       ?CleanStales@CIocpServer@@UAEHKAAVCDWordArray@@@Z 004c0d00 f   tcns:tciocp.obj
 0001:000bfda0       ?CloseStiffs@CIocpServer@@UAEHK@Z 004c0da0 f   tcns:tciocp.obj
 0001:000bfe40       ?FindClient@CIocpServer@@UAEPAVCClientContext@@IJHH@Z 004c0e40 f   tcns:tciocp.obj
 0001:000bfec0       ?FindNextClient@CIocpServer@@MAEPAVCClientContext@@AAIAAJHH@Z 004c0ec0 f   tcns:tciocp.obj
 0001:000bff70       ?CloseClient@CIocpServer@@UAEHIJ@Z 004c0f70 f   tcns:tciocp.obj
 0001:000c0010       ?GetClientCount@CIocpServer@@UAEHXZ 004c1010 f   tcns:tciocp.obj
 0001:000c0020       ?GetMaxClients@CIocpServer@@UAEHXZ 004c1020 f   tcns:tciocp.obj
 0001:000c0030       ?SetMaxClients@CIocpServer@@UAEJH@Z 004c1030 f   tcns:tciocp.obj
 0001:000c0050       ?ClearForbiddenIPs@CIocpServer@@UAEXXZ 004c1050 f   tcns:tciocp.obj
 0001:000c00b0       ?AddForbiddenIP@CIocpServer@@UAEXPBD@Z 004c10b0 f   tcns:tciocp.obj
 0001:000c0130       ?GetClientAddress@CIocpServer@@UAEKIJ@Z 004c1130 f   tcns:tciocp.obj
 0001:000c0190       ?PutRequestToWorker@CIocpServer@@UAEHKKPAX00@Z 004c1190 f   tcns:tciocp.obj
 0001:000c01c0       ?SetNotifyWindow@CIocpServer@@UAEHPAUHWND__@@@Z 004c11c0 f   tcns:tciocp.obj
 0001:000c01e0       ?InitializeIo@CIocpServer@@MAEHXZ 004c11e0 f   tcns:tciocp.obj
 0001:000c0210       ?BeginThreadPool@CIocpServer@@MAEHH@Z 004c1210 f   tcns:tciocp.obj
 0001:000c0260       ?BeginListen@CIocpServer@@MAEHPBDHHHHH@Z 004c1260 f   tcns:tciocp.obj
 0001:000c0480       ?BindSocketToIo@CIocpServer@@MAEPAXIK@Z 004c1480 f   tcns:tciocp.obj
 0001:000c04b0       ?DestroyHandles@CIocpServer@@MAEXXZ 004c14b0 f   tcns:tciocp.obj
 0001:000c0530       ?CloseSockets@CIocpServer@@UAEXXZ 004c1530 f   tcns:tciocp.obj
 0001:000c0610       ?TerminateAcceptThd@CIocpServer@@MAEXXZ 004c1610 f   tcns:tciocp.obj
 0001:000c0630       ?TerminateIoThreads@CIocpServer@@MAEXXZ 004c1630 f   tcns:tciocp.obj
 0001:000c06c0       ?ClearPendingBuffers@CIocpServer@@MAEXXZ 004c16c0 f   tcns:tciocp.obj
 0001:000c0740       ?FreePengingBuf@CIocpServer@@MAEXPAVCSocketBuffer@@K@Z 004c1740 f   tcns:tciocp.obj
 0001:000c0780       ?ClearAllList@CIocpServer@@MAEXXZ 004c1780 f   tcns:tciocp.obj
 0001:000c0880       ?GetSocketBuffer@CIocpServer@@MAEPAVCSocketBuffer@@W4IoType@@IJ@Z 004c1880 f   tcns:tciocp.obj
 0001:000c0a30       ?FreeSocketBuffer@CIocpServer@@MAEXPAVCSocketBuffer@@@Z 004c1a30 f   tcns:tciocp.obj
 0001:000c0aa0       ?ReleaseSockBufPool@CIocpServer@@UAEHXZ 004c1aa0 f   tcns:tciocp.obj
 0001:000c0b10       ?InsertPendingAccept@CIocpServer@@MAEXPAVCListenContext@@PAVCSocketBuffer@@@Z 004c1b10 f   tcns:tciocp.obj
 0001:000c0b60       ?RemovePendingAccept@CIocpServer@@MAEXPAVCListenContext@@PAVCSocketBuffer@@@Z 004c1b60 f   tcns:tciocp.obj
 0001:000c0bb0       ?PostRecv@CIocpServer@@MAEHPAVCClientContext@@PAVCSocketBuffer@@AAK@Z 004c1bb0 f   tcns:tciocp.obj
 0001:000c0c80       ?PostSend@CIocpServer@@MAEHPAVCClientContext@@PAVCSocketBuffer@@AAK@Z 004c1c80 f   tcns:tciocp.obj
 0001:000c0dc0       ?SetSocBufSize@CIocpServer@@MAEHIHH@Z 004c1dc0 f   tcns:tciocp.obj
 0001:000c0e60       ?PostAccept@CIocpServer@@MAEHPAVCListenContext@@PAVCSocketBuffer@@AAK@Z 004c1e60 f   tcns:tciocp.obj
 0001:000c0f90       ?SocketThreadFunc@CIocpServer@@KGIPAX@Z 004c1f90 f   tcns:tciocp.obj
 0001:000c0fa0       ?SocketThreadProc@CIocpServer@@MAEIXZ 004c1fa0 f   tcns:tciocp.obj
 0001:000c0fe0       ?AcceptThreadFunc@CIocpServer@@KGIPAX@Z 004c1fe0 f   tcns:tciocp.obj
 0001:000c0ff0       ?AcceptThreadProc@CIocpServer@@MAEIXZ 004c1ff0 f   tcns:tciocp.obj
 0001:000c1210       ?DoIoLoop@CIocpServer@@MAEXXZ 004c2210 f   tcns:tciocp.obj
 0001:000c12f0       ?GetClientContext@CIocpServer@@MAEPAVCClientContext@@IH@Z 004c22f0 f   tcns:tciocp.obj
 0001:000c14f0       ?FreeClientContext@CIocpServer@@MAEHPAVCClientContext@@@Z 004c24f0 f   tcns:tciocp.obj
 0001:000c15d0       ?ClearClientContext@CIocpServer@@MAEXPAVCClientContext@@@Z 004c25d0 f   tcns:tciocp.obj
 0001:000c1650       ?SetSocketClosing@CIocpServer@@MAEXPAVCClientContext@@@Z 004c2650 f   tcns:tciocp.obj
 0001:000c1680       ?GetSockBufCount@CIocpServer@@MAEHPAVCSocketBuffer@@@Z 004c2680 f   tcns:tciocp.obj
 0001:000c16a0       ?CloseSocketBuffer@CIocpServer@@MAEXPAVCSocketBuffer@@@Z 004c26a0 f   tcns:tciocp.obj
 0001:000c16d0       ?HandleIo@CIocpServer@@MAEXKPAVCSocketBuffer@@KK@Z 004c26d0 f   tcns:tciocp.obj
 0001:000c17b0       ?HandleIoUnknown@CIocpServer@@MAEXKPAVCSocketBuffer@@KK@Z 004c27b0 f   tcns:tciocp.obj
 0001:000c17c0       ?HandleIoInit@CIocpServer@@MAEXKPAVCSocketBuffer@@KK@Z 004c27c0 f   tcns:tciocp.obj
 0001:000c1b20       ?HandleIoRead@CIocpServer@@MAEXKPAVCSocketBuffer@@KK@Z 004c2b20 f   tcns:tciocp.obj
 0001:000c1bf0       ?HandleIoWrite@CIocpServer@@MAEXKPAVCSocketBuffer@@KK@Z 004c2bf0 f   tcns:tciocp.obj
 0001:000c1c60       ?HandleIoSend@CIocpServer@@MAEXKPAVCSocketBuffer@@KK@Z 004c2c60 f   tcns:tciocp.obj
 0001:000c1cf0       ?HandleIoClose@CIocpServer@@MAEXKPAVCSocketBuffer@@KK@Z 004c2cf0 f   tcns:tciocp.obj
 0001:000c1d60       ?HandleIoEcho@CIocpServer@@MAEXKPAVCSocketBuffer@@KK@Z 004c2d60 f   tcns:tciocp.obj
 0001:000c1da0       ?CheckRequest@CIocpServer@@MAEHPAX0@Z 004c2da0 f   tcns:tciocp.obj
 0001:000c1db0       ?SkipFirstRead@CIocpServer@@MAEHXZ 004c2db0 f   tcns:tciocp.obj
 0001:000c1dc0       ?OnDataComing@CIocpServer@@MAEPAVCSocketBuffer@@PAVCClientContext@@PAV2@K@Z 004c2dc0 f   tcns:tciocp.obj
 0001:000c1ff0       ?GetWaitingRecvsSize@CIocpServer@@MAEHPAVCClientContext@@@Z 004c2ff0 f   tcns:tciocp.obj
 0001:000c2020       ?SetExpectedToHead@CIocpServer@@MAEHPAVCClientContext@@@Z 004c3020 f   tcns:tciocp.obj
 0001:000c2050       ?AbsorbWaitingRecvs@CIocpServer@@MAEXPAVCClientContext@@@Z 004c3050 f   tcns:tciocp.obj
 0001:000c20b0       ?GetPacketNO@CIocpServer@@MAEJPAVCSocketBuffer@@@Z 004c30b0 f   tcns:tciocp.obj
 0001:000c20c0       ?CheckInitialData@CIocpServer@@MAEHPAVCSocketBuffer@@K@Z 004c30c0 f   tcns:tciocp.obj
 0001:000c20f0       ?OnVerifyData@CIocpServer@@MAEHPAVCClientContext@@PAXH@Z 004c30f0 f   tcns:tciocp.obj
 0001:000c21a0       ?OnReceiveData@CIocpServer@@MAEHPAVCClientContext@@PAXH@Z 004c31a0 f   tcns:tciocp.obj
 0001:000c22d0       ?OnProcessData@CIocpServer@@MAEHPAVCClientContext@@PAXH@Z 004c32d0 f   tcns:tciocp.obj
 0001:000c23a0       ?CleanupClient@CIocpServer@@MAEHPAVCClientContext@@HJJJJJJ@Z 004c33a0 f   tcns:tciocp.obj
 0001:000c2470       ?PostDataToSend@CIocpServer@@MAEHIJPAVCBuffer@@HJHH@Z 004c3470 f   tcns:tciocp.obj
 0001:000c2560       ?SendSync@CIocpServer@@MAEHPAVCClientContext@@JAAVCBuffer@@HJHH@Z 004c3560 f   tcns:tciocp.obj
 0001:000c2710       ?SendPacket@CIocpServer@@MAEHPAVCClientContext@@PAXHAAU_tagSESSION_HEAD@@H@Z 004c3710 f   tcns:tciocp.obj
 0001:000c2840       ?SendData@CIocpServer@@MAEHPAVCClientContext@@PAXH@Z 004c3840 f   tcns:tciocp.obj
 0001:000c28f0       ?SendEcho@CIocpServer@@MAEHPAVCClientContext@@PAXH@Z 004c38f0 f   tcns:tciocp.obj
 0001:000c2a60       ?EnqueueWaitingToSend@CIocpServer@@MAEHPAVCClientContext@@PAVCSocketBuffer@@@Z 004c3a60 f   tcns:tciocp.obj
 0001:000c2a90       ?DequeueWaitingToSend@CIocpServer@@MAEPAVCSocketBuffer@@PAVCClientContext@@@Z 004c3a90 f   tcns:tciocp.obj
 0001:000c2ab0       ?GetHeadWaitingToSend@CIocpServer@@MAEPAVCSocketBuffer@@PAVCClientContext@@@Z 004c3ab0 f   tcns:tciocp.obj
 0001:000c2ac0       ?PutHeadWaitingToSend@CIocpServer@@MAEXPAVCClientContext@@PAVCSocketBuffer@@@Z 004c3ac0 f   tcns:tciocp.obj
 0001:000c2ae0       ?ProcessWaitingToSend@CIocpServer@@MAEHPAVCClientContext@@@Z 004c3ae0 f   tcns:tciocp.obj
 0001:000c2b80       ?PrintStatistics@CIocpServer@@MAEXXZ 004c3b80 f   tcns:tciocp.obj
 0001:000c2c20       ?GetAllowedSends@CIocpServer@@MAEHXZ 004c3c20 f   tcns:tciocp.obj
 0001:000c2c30       ?GetAllowedRecvs@CIocpServer@@MAEHXZ 004c3c30 f   tcns:tciocp.obj
 0001:000c2c40       ?PutInitRequest@CIocpServer@@MAEHPAVCClientContext@@@Z 004c3c40 f   tcns:tciocp.obj
 0001:000c2cf0       ?PutCloseRequest@CIocpServer@@MAEHPAVCClientContext@@@Z 004c3cf0 f   tcns:tciocp.obj
 0001:000c2da0       ?ResetResponseSession@CIocpServer@@MAEXPAVCClientContext@@J@Z 004c3da0 f   tcns:tciocp.obj
 0001:000c2dd0       ?GetResponseSession@CIocpServer@@MAEXPAVCClientContext@@AAJ1@Z 004c3dd0 f   tcns:tciocp.obj
 0001:000c2df0       ?WriteSessionBuffer@CIocpServer@@MAEXPAVCClientContext@@AAVCBuffer@@PAXAAU_tagSESSION_HEAD@@@Z 004c3df0 f   tcns:tciocp.obj
 0001:000c2e80       ?ComposePacket@CIocpServer@@MAEHAAVCBuffer@@0H@Z 004c3e80 f   tcns:tciocp.obj
 0001:000c2ea0       ?DecomposePacket@CIocpServer@@MAEHAAVCBuffer@@0H@Z 004c3ea0 f   tcns:tciocp.obj
 0001:000c2ec0       ??0CIocpClient@@QAE@QBEKKKHH@Z 004c3ec0 f   tcns:tciocp.obj
 0001:000c2f30       ??_GCIocpClient@@UAEPAXI@Z 004c3f30 f i tcns:tciocp.obj
 0001:000c2f30       ??_ECIocpClient@@UAEPAXI@Z 004c3f30 f i tcns:tciocp.obj
 0001:000c2f50       ??1CIocpClient@@UAE@XZ     004c3f50 f   tcns:tciocp.obj
 0001:000c2f70       ?Create@CIocpClient@@UAEHPBDHKHPAXHHHHHKHHJHHHHHHHHH@Z 004c3f70 f   tcns:tciocp.obj
 0001:000c30f0       ?Destroy@CIocpClient@@UAEXXZ 004c40f0 f   tcns:tciocp.obj
 0001:000c3120       ?BeginConnect@CIocpClient@@UAEHPBDHHHHHK@Z 004c4120 f   tcns:tciocp.obj
 0001:000c32d0       ?SendRequest@CIocpClient@@UAEHPAU_tagCONTEXT_HEAD@@PAVREQUEST@@1AAHKKKH@Z 004c42d0 f   tcns:tciocp.obj
 0001:000c34e0       ?SendCast@CIocpClient@@UAEHPAU_tagCONTEXT_HEAD@@PAVREQUEST@@1KKH@Z 004c44e0 f   tcns:tciocp.obj
 0001:000c3680       ?WaitForFirstData@CIocpClient@@MAEHK@Z 004c4680 f   tcns:tciocp.obj
 0001:000c36c0       ?SkipFirstRead@CIocpClient@@MAEHXZ 004c46c0 f   tcns:tciocp.obj
 0001:000c36e0       ?OnReceiveData@CIocpClient@@MAEHPAVCClientContext@@PAXH@Z 004c46e0 f   tcns:tciocp.obj
 0001:000c3840       ?OnResponseData@CIocpClient@@MAEHPAVCClientContext@@PAXH@Z 004c4840 f   tcns:tciocp.obj
 0001:000c3970       ?GetSocket@CIocpClient@@UAEIXZ 004c4970 f   tcns:tciocp.obj
 0001:000c3a00       ??1CClientContext@@QAE@XZ  004c4a00 f i tcns:tciocp.obj
 0001:000c3a70       ??1CListenContext@@QAE@XZ  004c4a70 f i tcns:tciocp.obj
 0001:000c3b10       ??1ValueAllocator@Json@@UAE@XZ 004c4b10 f   jsoncpp:json_value.obj
 0001:000c3b30       ??_GValueAllocator@Json@@UAEPAXI@Z 004c4b30 f i jsoncpp:json_value.obj
 0001:000c3b30       ??_EValueAllocator@Json@@UAEPAXI@Z 004c4b30 f i jsoncpp:json_value.obj
 0001:000c3bd0       ??1DefaultValueAllocator@Json@@UAE@XZ 004c4bd0 f i jsoncpp:json_value.obj
 0001:000c3bf0       ?makeMemberName@DefaultValueAllocator@Json@@UAEPADPBD@Z 004c4bf0 f i jsoncpp:json_value.obj
 0001:000c3c10       ?releaseMemberName@DefaultValueAllocator@Json@@UAEXPAD@Z 004c4c10 f i jsoncpp:json_value.obj
 0001:000c3c30       ?duplicateStringValue@DefaultValueAllocator@Json@@UAEPADPBDI@Z 004c4c30 f i jsoncpp:json_value.obj
 0001:000c3ca0       ?releaseStringValue@DefaultValueAllocator@Json@@UAEXPAD@Z 004c4ca0 f i jsoncpp:json_value.obj
 0001:000c3cc0       ??_EDefaultValueAllocator@Json@@UAEPAXI@Z 004c4cc0 f i jsoncpp:json_value.obj
 0001:000c3cc0       ??_GDefaultValueAllocator@Json@@UAEPAXI@Z 004c4cc0 f i jsoncpp:json_value.obj
 0001:000c3cf0       ??0DefaultValueAllocator@Json@@QAE@XZ 004c4cf0 f i jsoncpp:json_value.obj
 0001:000c3d10       ??0ValueIteratorBase@Json@@QAE@XZ 004c4d10 f   jsoncpp:json_value.obj
 0001:000c3d30       ??0ValueIteratorBase@Json@@QAE@ABViterator@?$_Tree@VCZString@Value@Json@@U?$pair@$$CBVCZString@Value@Json@@V23@@std@@U_Kfn@?$map@VCZString@Value@Json@@V23@U?$less@VCZString@Value@Json@@@std@@V?$allocator@VValue@Json@@@5@@5@U?$less@VCZString@Value@Json@@@5@V?$allocator@VValue@Json@@@5@@std@@@Z 004c4d30 f   jsoncpp:json_value.obj
 0001:000c3d60       ?deref@ValueIteratorBase@Json@@IBEAAVValue@2@XZ 004c4d60 f   jsoncpp:json_value.obj
 0001:000c3d80       ?increment@ValueIteratorBase@Json@@IAEXXZ 004c4d80 f   jsoncpp:json_value.obj
 0001:000c3e00       ?decrement@ValueIteratorBase@Json@@IAEXXZ 004c4e00 f   jsoncpp:json_value.obj
 0001:000c3eb0       ?computeDistance@ValueIteratorBase@Json@@IBEHABV12@@Z 004c4eb0 f   jsoncpp:json_value.obj
 0001:000c3f90       ?isEqual@ValueIteratorBase@Json@@IBE_NABV12@@Z 004c4f90 f   jsoncpp:json_value.obj
 0001:000c3fc0       ?copy@ValueIteratorBase@Json@@IAEXABV12@@Z 004c4fc0 f   jsoncpp:json_value.obj
 0001:000c3fe0       ?key@ValueIteratorBase@Json@@QBE?AVValue@2@XZ 004c4fe0 f   jsoncpp:json_value.obj
 0001:000c40e0       ?index@ValueIteratorBase@Json@@QBEIXZ 004c50e0 f   jsoncpp:json_value.obj
 0001:000c4170       ?memberName@ValueIteratorBase@Json@@QBEPBDXZ 004c5170 f   jsoncpp:json_value.obj
 0001:000c41b0       ??0ValueConstIterator@Json@@QAE@XZ 004c51b0 f   jsoncpp:json_value.obj
 0001:000c41d0       ??0ValueConstIterator@Json@@AAE@ABViterator@?$_Tree@VCZString@Value@Json@@U?$pair@$$CBVCZString@Value@Json@@V23@@std@@U_Kfn@?$map@VCZString@Value@Json@@V23@U?$less@VCZString@Value@Json@@@std@@V?$allocator@VValue@Json@@@5@@5@U?$less@VCZString@Value@Json@@@5@V?$allocator@VValue@Json@@@5@@std@@@Z 004c51d0 f   jsoncpp:json_value.obj
 0001:000c41f0       ??4ValueConstIterator@Json@@QAEAAV01@ABVValueIteratorBase@1@@Z 004c51f0 f   jsoncpp:json_value.obj
 0001:000c4210       ??0ValueIterator@Json@@QAE@XZ 004c5210 f   jsoncpp:json_value.obj
 0001:000c4230       ??0ValueIterator@Json@@AAE@ABViterator@?$_Tree@VCZString@Value@Json@@U?$pair@$$CBVCZString@Value@Json@@V23@@std@@U_Kfn@?$map@VCZString@Value@Json@@V23@U?$less@VCZString@Value@Json@@@std@@V?$allocator@VValue@Json@@@5@@5@U?$less@VCZString@Value@Json@@@5@V?$allocator@VValue@Json@@@5@@std@@@Z 004c5230 f   jsoncpp:json_value.obj
 0001:000c4250       ??0ValueIterator@Json@@QAE@ABVValueConstIterator@1@@Z 004c5250 f   jsoncpp:json_value.obj
 0001:000c4270       ??0ValueIterator@Json@@QAE@ABV01@@Z 004c5270 f   jsoncpp:json_value.obj
 0001:000c4290       ??4ValueIterator@Json@@QAEAAV01@ABV01@@Z 004c5290 f   jsoncpp:json_value.obj
 0001:000c42b0       ??0CommentInfo@Value@Json@@QAE@XZ 004c52b0 f   jsoncpp:json_value.obj
 0001:000c42d0       ??1CommentInfo@Value@Json@@QAE@XZ 004c52d0 f   jsoncpp:json_value.obj
 0001:000c4300       ?setComment@CommentInfo@Value@Json@@QAEXPBD@Z 004c5300 f   jsoncpp:json_value.obj
 0001:000c4570       ??0CZString@Value@Json@@QAE@H@Z 004c5570 f   jsoncpp:json_value.obj
 0001:000c45a0       ??0CZString@Value@Json@@QAE@PBDW4DuplicationPolicy@012@@Z 004c55a0 f   jsoncpp:json_value.obj
 0001:000c45f0       ??0CZString@Value@Json@@QAE@ABV012@@Z 004c55f0 f   jsoncpp:json_value.obj
 0001:000c4670       ??1CZString@Value@Json@@QAE@XZ 004c5670 f   jsoncpp:json_value.obj
 0001:000c46b0       ?swap@CZString@Value@Json@@AAEXAAV123@@Z 004c56b0 f   jsoncpp:json_value.obj
 0001:000c4710       ??4CZString@Value@Json@@QAEAAV012@ABV012@@Z 004c5710 f   jsoncpp:json_value.obj
 0001:000c4780       ??MCZString@Value@Json@@QBE_NABV012@@Z 004c5780 f   jsoncpp:json_value.obj
 0001:000c4810       ??8CZString@Value@Json@@QBE_NABV012@@Z 004c5810 f   jsoncpp:json_value.obj
 0001:000c48a0       ?index@CZString@Value@Json@@QBEHXZ 004c58a0 f   jsoncpp:json_value.obj
 0001:000c48c0       ?c_str@CZString@Value@Json@@QBEPBDXZ 004c58c0 f   jsoncpp:json_value.obj
 0001:000c48d0       ?isStaticString@CZString@Value@Json@@QBE_NXZ 004c58d0 f   jsoncpp:json_value.obj
 0001:000c48f0       ??0Value@Json@@QAE@W4ValueType@1@@Z 004c58f0 f   jsoncpp:json_value.obj
 0001:000c4b50       ??0Value@Json@@QAE@H@Z     004c5b50 f   jsoncpp:json_value.obj
 0001:000c4b90       ??0Value@Json@@QAE@I@Z     004c5b90 f   jsoncpp:json_value.obj
 0001:000c4bd0       ??0Value@Json@@QAE@N@Z     004c5bd0 f   jsoncpp:json_value.obj
 0001:000c4c10       ??0Value@Json@@QAE@PBD@Z   004c5c10 f   jsoncpp:json_value.obj
 0001:000c4c70       ??0Value@Json@@QAE@PBD0@Z  004c5c70 f   jsoncpp:json_value.obj
 0001:000c4ce0       ??0Value@Json@@QAE@ABV?$basic_string@DU?$char_traits@D@std@@V?$allocator@D@2@@std@@@Z 004c5ce0 f   jsoncpp:json_value.obj
 0001:000c4d70       ??0Value@Json@@QAE@ABVStaticString@1@@Z 004c5d70 f   jsoncpp:json_value.obj
 0001:000c4dc0       ??0Value@Json@@QAE@_N@Z    004c5dc0 f   jsoncpp:json_value.obj
 0001:000c4e00       ??0Value@Json@@QAE@ABV01@@Z 004c5e00 f   jsoncpp:json_value.obj
 0001:000c52b0       ??_ECommentInfo@Value@Json@@QAEPAXI@Z 004c62b0 f i jsoncpp:json_value.obj
 0001:000c5320       ??1Value@Json@@QAE@XZ      004c6320 f   jsoncpp:json_value.obj
 0001:000c5460       ??1?$map@VCZString@Value@Json@@V23@U?$less@VCZString@Value@Json@@@std@@V?$allocator@VValue@Json@@@5@@std@@QAE@XZ 004c6460 f i jsoncpp:json_value.obj
 0001:000c5690       ??4Value@Json@@QAEAAV01@ABV01@@Z 004c6690 f   jsoncpp:json_value.obj
 0001:000c5700       ?swap@Value@Json@@QAEXAAV12@@Z 004c6700 f   jsoncpp:json_value.obj
 0001:000c57e0       ?type@Value@Json@@QBE?AW4ValueType@2@XZ 004c67e0 f   jsoncpp:json_value.obj
 0001:000c5800       ?compare@Value@Json@@QAEHABV12@@Z 004c6800 f   jsoncpp:json_value.obj
 0001:000c5810       ??MValue@Json@@QBE_NABV01@@Z 004c6810 f   jsoncpp:json_value.obj
 0001:000c5c20       ??NValue@Json@@QBE_NABV01@@Z 004c6c20 f   jsoncpp:json_value.obj
 0001:000c5c50       ??PValue@Json@@QBE_NABV01@@Z 004c6c50 f   jsoncpp:json_value.obj
 0001:000c5c80       ??OValue@Json@@QBE_NABV01@@Z 004c6c80 f   jsoncpp:json_value.obj
 0001:000c5ca0       ??8Value@Json@@QBE_NABV01@@Z 004c6ca0 f   jsoncpp:json_value.obj
 0001:000c6000       ??9Value@Json@@QBE_NABV01@@Z 004c7000 f   jsoncpp:json_value.obj
 0001:000c6030       ?asCString@Value@Json@@QBEPBDXZ 004c7030 f   jsoncpp:json_value.obj
 0001:000c6040       ?asString@Value@Json@@QBE?AV?$basic_string@DU?$char_traits@D@std@@V?$allocator@D@2@@std@@XZ 004c7040 f   jsoncpp:json_value.obj
 0001:000c6490       ?asInt@Value@Json@@QBEHXZ  004c7490 f   jsoncpp:json_value.obj
 0001:000c68e0       ?asUInt@Value@Json@@QBEIXZ 004c78e0 f   jsoncpp:json_value.obj
 0001:000c6d30       ?asDouble@Value@Json@@QBENXZ 004c7d30 f   jsoncpp:json_value.obj
 0001:000c7010       ?asBool@Value@Json@@QBE_NXZ 004c8010 f   jsoncpp:json_value.obj
 0001:000c70f0       ?isConvertibleTo@Value@Json@@QBE_NW4ValueType@2@@Z 004c80f0 f   jsoncpp:json_value.obj
 0001:000c7360       ?size@Value@Json@@QBEIXZ   004c8360 f   jsoncpp:json_value.obj
 0001:000c74a0       ?empty@Value@Json@@QBE_NXZ 004c84a0 f   jsoncpp:json_value.obj
 0001:000c74f0       ??7Value@Json@@QBE_NXZ     004c84f0 f   jsoncpp:json_value.obj
 0001:000c7510       ?clear@Value@Json@@QAEXXZ  004c8510 f   jsoncpp:json_value.obj
 0001:000c7710       ?resize@Value@Json@@QAEXI@Z 004c8710 f   jsoncpp:json_value.obj
 0001:000c7b30       ??AValue@Json@@QAEAAV01@I@Z 004c8b30 f   jsoncpp:json_value.obj
 0001:000c7cc0       ??1?$pair@$$CBVCZString@Value@Json@@V23@@std@@QAE@XZ 004c8cc0 f i jsoncpp:json_value.obj
 0001:000c7d10       ??AValue@Json@@QBEABV01@I@Z 004c8d10 f   jsoncpp:json_value.obj
 0001:000c7e60       ??AValue@Json@@QAEAAV01@PBD@Z 004c8e60 f   jsoncpp:json_value.obj
 0001:000c7e80       ?resolveReference@Value@Json@@AAEAAV12@PBD_N@Z 004c8e80 f   jsoncpp:json_value.obj
 0001:000c8030       ?get@Value@Json@@QBE?AV12@IABV12@@Z 004c9030 f   jsoncpp:json_value.obj
 0001:000c8090       ?isValidIndex@Value@Json@@QBE_NI@Z 004c9090 f   jsoncpp:json_value.obj
 0001:000c80b0       ??AValue@Json@@QBEABV01@PBD@Z 004c90b0 f   jsoncpp:json_value.obj
 0001:000c8200       ??AValue@Json@@QAEAAV01@ABV?$basic_string@DU?$char_traits@D@std@@V?$allocator@D@2@@std@@@Z 004c9200 f   jsoncpp:json_value.obj
 0001:000c8240       ??AValue@Json@@QBEABV01@ABV?$basic_string@DU?$char_traits@D@std@@V?$allocator@D@2@@std@@@Z 004c9240 f   jsoncpp:json_value.obj
 0001:000c8280       ??AValue@Json@@QAEAAV01@ABVStaticString@1@@Z 004c9280 f   jsoncpp:json_value.obj
 0001:000c82b0       ?append@Value@Json@@QAEAAV12@ABV12@@Z 004c92b0 f   jsoncpp:json_value.obj
 0001:000c82e0       ?get@Value@Json@@QBE?AV12@PBDABV12@@Z 004c92e0 f   jsoncpp:json_value.obj
 0001:000c8340       ?get@Value@Json@@QBE?AV12@ABV?$basic_string@DU?$char_traits@D@std@@V?$allocator@D@2@@std@@ABV12@@Z 004c9340 f   jsoncpp:json_value.obj
 0001:000c83a0       ?removeMember@Value@Json@@QAE?AV12@PBD@Z 004c93a0 f   jsoncpp:json_value.obj
 0001:000c8560       ?removeMember@Value@Json@@QAE?AV12@ABV?$basic_string@DU?$char_traits@D@std@@V?$allocator@D@2@@std@@@Z 004c9560 f   jsoncpp:json_value.obj
 0001:000c85b0       ?isMember@Value@Json@@QBE_NPBD@Z 004c95b0 f   jsoncpp:json_value.obj
 0001:000c85e0       ?isMember@Value@Json@@QBE_NABV?$basic_string@DU?$char_traits@D@std@@V?$allocator@D@2@@std@@@Z 004c95e0 f   jsoncpp:json_value.obj
 0001:000c8620       ?getMemberNames@Value@Json@@QBE?AV?$vector@V?$basic_string@DU?$char_traits@D@std@@V?$allocator@D@2@@std@@V?$allocator@V?$basic_string@DU?$char_traits@D@std@@V?$allocator@D@2@@std@@@2@@std@@XZ 004c9620 f   jsoncpp:json_value.obj
 0001:000c8a90       ?isNull@Value@Json@@QBE_NXZ 004c9a90 f   jsoncpp:json_value.obj
 0001:000c8ab0       ?isBool@Value@Json@@QBE_NXZ 004c9ab0 f   jsoncpp:json_value.obj
 0001:000c8ad0       ?isInt@Value@Json@@QBE_NXZ 004c9ad0 f   jsoncpp:json_value.obj
 0001:000c8af0       ?isUInt@Value@Json@@QBE_NXZ 004c9af0 f   jsoncpp:json_value.obj
 0001:000c8b10       ?isIntegral@Value@Json@@QBE_NXZ 004c9b10 f   jsoncpp:json_value.obj
 0001:000c8b70       ?isDouble@Value@Json@@QBE_NXZ 004c9b70 f   jsoncpp:json_value.obj
 0001:000c8b90       ?isNumeric@Value@Json@@QBE_NXZ 004c9b90 f   jsoncpp:json_value.obj
 0001:000c8be0       ?isString@Value@Json@@QBE_NXZ 004c9be0 f   jsoncpp:json_value.obj
 0001:000c8c00       ?isArray@Value@Json@@QBE_NXZ 004c9c00 f   jsoncpp:json_value.obj
 0001:000c8c50       ?isObject@Value@Json@@QBE_NXZ 004c9c50 f   jsoncpp:json_value.obj
 0001:000c8ca0       ?setComment@Value@Json@@QAEXPBDW4CommentPlacement@2@@Z 004c9ca0 f   jsoncpp:json_value.obj
 0001:000c8d60       ?setComment@Value@Json@@QAEXABV?$basic_string@DU?$char_traits@D@std@@V?$allocator@D@2@@std@@W4CommentPlacement@2@@Z 004c9d60 f   jsoncpp:json_value.obj
 0001:000c8da0       ?hasComment@Value@Json@@QBE_NW4CommentPlacement@2@@Z 004c9da0 f   jsoncpp:json_value.obj
 0001:000c8de0       ?getComment@Value@Json@@QBE?AV?$basic_string@DU?$char_traits@D@std@@V?$allocator@D@2@@std@@W4CommentPlacement@2@@Z 004c9de0 f   jsoncpp:json_value.obj
 0001:000c9160       ?toStyledString@Value@Json@@QBE?AV?$basic_string@DU?$char_traits@D@std@@V?$allocator@D@2@@std@@XZ 004ca160 f   jsoncpp:json_value.obj
 0001:000c9460       ?begin@Value@Json@@QBE?AVValueConstIterator@2@XZ 004ca460 f   jsoncpp:json_value.obj
 0001:000c94d0       ?end@Value@Json@@QBE?AVValueConstIterator@2@XZ 004ca4d0 f   jsoncpp:json_value.obj
 0001:000c9540       ?begin@Value@Json@@QAE?AVValueIterator@2@XZ 004ca540 f   jsoncpp:json_value.obj
 0001:000c95b0       ?end@Value@Json@@QAE?AVValueIterator@2@XZ 004ca5b0 f   jsoncpp:json_value.obj
 0001:000c9620       ??0PathArgument@Json@@QAE@XZ 004ca620 f   jsoncpp:json_value.obj
 0001:000c96d0       ??0PathArgument@Json@@QAE@I@Z 004ca6d0 f   jsoncpp:json_value.obj
 0001:000c9790       ??0PathArgument@Json@@QAE@PBD@Z 004ca790 f   jsoncpp:json_value.obj
 0001:000c9a10       ??0PathArgument@Json@@QAE@ABV?$basic_string@DU?$char_traits@D@std@@V?$allocator@D@2@@std@@@Z 004caa10 f   jsoncpp:json_value.obj
 0001:000c9cb0       ??0Path@Json@@QAE@ABV?$basic_string@DU?$char_traits@D@std@@V?$allocator@D@2@@std@@ABVPathArgument@1@1111@Z 004cacb0 f   jsoncpp:json_value.obj
 0001:000c9ee0       ?makePath@Path@Json@@AAEXABV?$basic_string@DU?$char_traits@D@std@@V?$allocator@D@2@@std@@ABV?$vector@PBVPathArgument@Json@@V?$allocator@PBVPathArgument@Json@@@std@@@4@@Z 004caee0 f   jsoncpp:json_value.obj
 0001:000ca400       ?addPathInArg@Path@Json@@AAEXABV?$basic_string@DU?$char_traits@D@std@@V?$allocator@D@2@@std@@ABV?$vector@PBVPathArgument@Json@@V?$allocator@PBVPathArgument@Json@@@std@@@4@AAPBQBVPathArgument@2@W4Kind@62@@Z 004cb400 f   jsoncpp:json_value.obj
 0001:000ca790       ?invalidPath@Path@Json@@AAEXABV?$basic_string@DU?$char_traits@D@std@@V?$allocator@D@2@@std@@H@Z 004cb790 f   jsoncpp:json_value.obj
 0001:000ca7a0       ?resolve@Path@Json@@QBEABVValue@2@ABV32@@Z 004cb7a0 f   jsoncpp:json_value.obj
 0001:000ca850       ?resolve@Path@Json@@QBE?AVValue@2@ABV32@0@Z 004cb850 f   jsoncpp:json_value.obj
 0001:000ca980       ?make@Path@Json@@QBEAAVValue@2@AAV32@@Z 004cb980 f   jsoncpp:json_value.obj
 0001:000caab0       ??1PathArgument@Json@@QAE@XZ 004cbab0 f i jsoncpp:json_value.obj
 0001:000cab50       ??1StyledWriter@Json@@UAE@XZ 004cbb50 f i jsoncpp:json_value.obj
 0001:000cadd0       ??_EStyledWriter@Json@@UAEPAXI@Z 004cbdd0 f i jsoncpp:json_value.obj
 0001:000cadd0       ??_GStyledWriter@Json@@UAEPAXI@Z 004cbdd0 f i jsoncpp:json_value.obj
 0001:000cae00       ??1?$vector@PBVPathArgument@Json@@V?$allocator@PBVPathArgument@Json@@@std@@@std@@QAE@XZ 004cbe00 f i jsoncpp:json_value.obj
 0001:000cae80       ??1?$vector@VPathArgument@Json@@V?$allocator@VPathArgument@Json@@@std@@@std@@QAE@XZ 004cbe80 f i jsoncpp:json_value.obj
 0001:000caf20       ??1?$vector@V?$basic_string@DU?$char_traits@D@std@@V?$allocator@D@2@@std@@V?$allocator@V?$basic_string@DU?$char_traits@D@std@@V?$allocator@D@2@@std@@@2@@std@@QAE@XZ 004cbf20 f i jsoncpp:json_value.obj
 0001:000cb050       ?_Destroy@?$vector@VPathArgument@Json@@V?$allocator@VPathArgument@Json@@@std@@@std@@IAEXPAVPathArgument@Json@@0@Z 004cc050 f i jsoncpp:json_value.obj
 0001:000cb090       ?begin@?$_Tree@VCZString@Value@Json@@U?$pair@$$CBVCZString@Value@Json@@V23@@std@@U_Kfn@?$map@VCZString@Value@Json@@V23@U?$less@VCZString@Value@Json@@@std@@V?$allocator@VValue@Json@@@5@@5@U?$less@VCZString@Value@Json@@@5@V?$allocator@VValue@Json@@@5@@std@@QAE?AViterator@12@XZ 004cc090 f i jsoncpp:json_value.obj
 0001:000cb0c0       ?insert@?$_Tree@VCZString@Value@Json@@U?$pair@$$CBVCZString@Value@Json@@V23@@std@@U_Kfn@?$map@VCZString@Value@Json@@V23@U?$less@VCZString@Value@Json@@@std@@V?$allocator@VValue@Json@@@5@@5@U?$less@VCZString@Value@Json@@@5@V?$allocator@VValue@Json@@@5@@std@@QAE?AViterator@12@V312@ABU?$pair@$$CBVCZString@Value@Json@@V23@@2@@Z 004cc0c0 f i jsoncpp:json_value.obj
 0001:000cb520       ?erase@?$_Tree@VCZString@Value@Json@@U?$pair@$$CBVCZString@Value@Json@@V23@@std@@U_Kfn@?$map@VCZString@Value@Json@@V23@U?$less@VCZString@Value@Json@@@std@@V?$allocator@VValue@Json@@@5@@5@U?$less@VCZString@Value@Json@@@5@V?$allocator@VValue@Json@@@5@@std@@QAE?AViterator@12@V312@@Z 004cc520 f i jsoncpp:json_value.obj
 0001:000cbf70       ?_Dec@const_iterator@?$_Tree@VCZString@Value@Json@@U?$pair@$$CBVCZString@Value@Json@@V23@@std@@U_Kfn@?$map@VCZString@Value@Json@@V23@U?$less@VCZString@Value@Json@@@std@@V?$allocator@VValue@Json@@@5@@5@U?$less@VCZString@Value@Json@@@5@V?$allocator@VValue@Json@@@5@@std@@QAEXXZ 004ccf70 f i jsoncpp:json_value.obj
 0001:000cc020       ?_Inc@const_iterator@?$_Tree@VCZString@Value@Json@@U?$pair@$$CBVCZString@Value@Json@@V23@@std@@U_Kfn@?$map@VCZString@Value@Json@@V23@U?$less@VCZString@Value@Json@@@std@@V?$allocator@VValue@Json@@@5@@5@U?$less@VCZString@Value@Json@@@5@V?$allocator@VValue@Json@@@5@@std@@QAEXXZ 004cd020 f i jsoncpp:json_value.obj
 0001:000cc0a0       ?size@?$vector@V?$basic_string@DU?$char_traits@D@std@@V?$allocator@D@2@@std@@V?$allocator@V?$basic_string@DU?$char_traits@D@std@@V?$allocator@D@2@@std@@@2@@std@@QBEIXZ 004cd0a0 f i jsoncpp:json_value.obj
 0001:000cc0e0       ?_Destroy@?$vector@V?$basic_string@DU?$char_traits@D@std@@V?$allocator@D@2@@std@@V?$allocator@V?$basic_string@DU?$char_traits@D@std@@V?$allocator@D@2@@std@@@2@@std@@IAEXPAV?$basic_string@DU?$char_traits@D@std@@V?$allocator@D@2@@2@0@Z 004cd0e0 f i jsoncpp:json_value.obj
 0001:000cc1c0       ?_Ucopy@?$vector@V?$basic_string@DU?$char_traits@D@std@@V?$allocator@D@2@@std@@V?$allocator@V?$basic_string@DU?$char_traits@D@std@@V?$allocator@D@2@@std@@@2@@std@@IAEPAV?$basic_string@DU?$char_traits@D@std@@V?$allocator@D@2@@2@PBV32@0PAV32@@Z 004cd1c0 f i jsoncpp:json_value.obj
 0001:000cc200       ?deallocate@?$allocator@D@std@@QAEXPAXI@Z 004cd200 f i jsoncpp:json_value.obj
 0001:000cc220       ?insert@?$vector@PBVPathArgument@Json@@V?$allocator@PBVPathArgument@Json@@@std@@@std@@QAEXPAPBVPathArgument@Json@@IABQBV34@@Z 004cd220 f i jsoncpp:json_value.obj
 0001:000cc780       ?insert@?$vector@VPathArgument@Json@@V?$allocator@VPathArgument@Json@@@std@@@std@@QAEXPAVPathArgument@Json@@IABV34@@Z 004cd780 f i jsoncpp:json_value.obj
 0001:000ccc90       ?insert@?$_Tree@VCZString@Value@Json@@U?$pair@$$CBVCZString@Value@Json@@V23@@std@@U_Kfn@?$map@VCZString@Value@Json@@V23@U?$less@VCZString@Value@Json@@@std@@V?$allocator@VValue@Json@@@5@@5@U?$less@VCZString@Value@Json@@@5@V?$allocator@VValue@Json@@@5@@std@@QAE?AU?$pair@Viterator@?$_Tree@VCZString@Value@Json@@U?$pair@$$CBVCZString@Value@Json@@V23@@std@@U_Kfn@?$map@VCZString@Value@Json@@V23@U?$less@VCZString@Value@Json@@@std@@V?$allocator@VValue@Json@@@5@@5@U?$less@VCZString@Value@Json@@@5@V?$allocator@VValue@Json@@@5@@std@@_N@2@ABU?$pair@$$CBVCZString@Value@Json@@V23@@2@@Z 004cdc90 f i jsoncpp:json_value.obj
 0001:000cd0d0       ?_Copy@?$_Tree@VCZString@Value@Json@@U?$pair@$$CBVCZString@Value@Json@@V23@@std@@U_Kfn@?$map@VCZString@Value@Json@@V23@U?$less@VCZString@Value@Json@@@std@@V?$allocator@VValue@Json@@@5@@5@U?$less@VCZString@Value@Json@@@5@V?$allocator@VValue@Json@@@5@@std@@IAEPAU_Node@12@PAU312@0@Z 004ce0d0 f i jsoncpp:json_value.obj
 0001:000cd1b0       ?_Erase@?$_Tree@VCZString@Value@Json@@U?$pair@$$CBVCZString@Value@Json@@V23@@std@@U_Kfn@?$map@VCZString@Value@Json@@V23@U?$less@VCZString@Value@Json@@@std@@V?$allocator@VValue@Json@@@5@@5@U?$less@VCZString@Value@Json@@@5@V?$allocator@VValue@Json@@@5@@std@@IAEXPAU_Node@12@@Z 004ce1b0 f i jsoncpp:json_value.obj
 0001:000cd230       ?_Insert@?$_Tree@VCZString@Value@Json@@U?$pair@$$CBVCZString@Value@Json@@V23@@std@@U_Kfn@?$map@VCZString@Value@Json@@V23@U?$less@VCZString@Value@Json@@@std@@V?$allocator@VValue@Json@@@5@@5@U?$less@VCZString@Value@Json@@@5@V?$allocator@VValue@Json@@@5@@std@@IAE?AViterator@12@PAU_Node@12@0ABU?$pair@$$CBVCZString@Value@Json@@V23@@2@@Z 004ce230 f i jsoncpp:json_value.obj
 0001:000cd750       ?_Lbound@?$_Tree@VCZString@Value@Json@@U?$pair@$$CBVCZString@Value@Json@@V23@@std@@U_Kfn@?$map@VCZString@Value@Json@@V23@U?$less@VCZString@Value@Json@@@std@@V?$allocator@VValue@Json@@@5@@5@U?$less@VCZString@Value@Json@@@5@V?$allocator@VValue@Json@@@5@@std@@IBEPAU_Node@12@ABVCZString@Value@Json@@@Z 004ce750 f i jsoncpp:json_value.obj
 0001:000cd7c0       ?_Lrotate@?$_Tree@VCZString@Value@Json@@U?$pair@$$CBVCZString@Value@Json@@V23@@std@@U_Kfn@?$map@VCZString@Value@Json@@V23@U?$less@VCZString@Value@Json@@@std@@V?$allocator@VValue@Json@@@5@@5@U?$less@VCZString@Value@Json@@@5@V?$allocator@VValue@Json@@@5@@std@@IAEXPAU_Node@12@@Z 004ce7c0 f i jsoncpp:json_value.obj
 0001:000cd870       ?_Min@?$_Tree@VCZString@Value@Json@@U?$pair@$$CBVCZString@Value@Json@@V23@@std@@U_Kfn@?$map@VCZString@Value@Json@@V23@U?$less@VCZString@Value@Json@@@std@@V?$allocator@VValue@Json@@@5@@5@U?$less@VCZString@Value@Json@@@5@V?$allocator@VValue@Json@@@5@@std@@KAPAU_Node@12@PAU312@@Z 004ce870 f i jsoncpp:json_value.obj
 0001:000cd890       ?_Rrotate@?$_Tree@VCZString@Value@Json@@U?$pair@$$CBVCZString@Value@Json@@V23@@std@@U_Kfn@?$map@VCZString@Value@Json@@V23@U?$less@VCZString@Value@Json@@@std@@V?$allocator@VValue@Json@@@5@@5@U?$less@VCZString@Value@Json@@@5@V?$allocator@VValue@Json@@@5@@std@@IAEXPAU_Node@12@@Z 004ce890 f i jsoncpp:json_value.obj
 0001:000cd940       ?_Buynode@?$_Tree@VCZString@Value@Json@@U?$pair@$$CBVCZString@Value@Json@@V23@@std@@U_Kfn@?$map@VCZString@Value@Json@@V23@U?$less@VCZString@Value@Json@@@std@@V?$allocator@VValue@Json@@@5@@5@U?$less@VCZString@Value@Json@@@5@V?$allocator@VValue@Json@@@5@@std@@IAEPAU_Node@12@PAU312@W4_Redbl@12@@Z 004ce940 f i jsoncpp:json_value.obj
 0001:000cd990       ?insert@?$vector@V?$basic_string@DU?$char_traits@D@std@@V?$allocator@D@2@@std@@V?$allocator@V?$basic_string@DU?$char_traits@D@std@@V?$allocator@D@2@@std@@@2@@std@@QAEXPAV?$basic_string@DU?$char_traits@D@std@@V?$allocator@D@2@@2@IABV32@@Z 004ce990 f i jsoncpp:json_value.obj
 0001:000cde30       ?_Ucopy@?$vector@VPathArgument@Json@@V?$allocator@VPathArgument@Json@@@std@@@std@@IAEPAVPathArgument@Json@@PBV34@0PAV34@@Z 004cee30 f i jsoncpp:json_value.obj
 0001:000cde70       ?_Ufill@?$vector@VPathArgument@Json@@V?$allocator@VPathArgument@Json@@@std@@@std@@IAEXPAVPathArgument@Json@@IABV34@@Z 004cee70 f i jsoncpp:json_value.obj
 0001:000cdeb0       ?_Ubound@?$_Tree@VCZString@Value@Json@@U?$pair@$$CBVCZString@Value@Json@@V23@@std@@U_Kfn@?$map@VCZString@Value@Json@@V23@U?$less@VCZString@Value@Json@@@std@@V?$allocator@VValue@Json@@@5@@5@U?$less@VCZString@Value@Json@@@5@V?$allocator@VValue@Json@@@5@@std@@IBEPAU_Node@12@ABVCZString@Value@Json@@@Z 004ceeb0 f i jsoncpp:json_value.obj
 0001:000cdf20       ?fill@std@@YAXPAVPathArgument@Json@@0ABV23@@Z 004cef20 f i jsoncpp:json_value.obj
 0001:000ce300       ?copy_backward@std@@YAPAVPathArgument@Json@@PAV23@00@Z 004cf300 f i jsoncpp:json_value.obj
 0001:000ce6f0       ?_Construct@std@@YAXPAV?$basic_string@DU?$char_traits@D@std@@V?$allocator@D@2@@1@ABV21@@Z 004cf6f0 f i jsoncpp:json_value.obj
 0001:000ceb30       ?_Construct@std@@YAXPAU?$pair@$$CBVCZString@Value@Json@@V23@@1@ABU21@@Z 004cfb30 f i jsoncpp:json_value.obj
 0001:000cebb0       ?_Construct@std@@YAXPAVPathArgument@Json@@ABV23@@Z 004cfbb0 f i jsoncpp:json_value.obj
 0001:000cf000       ??_G?$pair@$$CBVCZString@Value@Json@@V23@@std@@QAEPAXI@Z 004d0000 f i jsoncpp:json_value.obj
 0001:000cf030       ??_G?$basic_string@DU?$char_traits@D@std@@V?$allocator@D@2@@std@@QAEPAXI@Z 004d0030 f i jsoncpp:json_value.obj
 0001:000cf0f0       ??0Features@Json@@QAE@XZ   004d00f0 f   jsoncpp:json_reader.obj
 0001:000cf110       ?all@Features@Json@@SA?AV12@XZ 004d0110 f   jsoncpp:json_reader.obj
 0001:000cf120       ?strictMode@Features@Json@@SA?AV12@XZ 004d0120 f   jsoncpp:json_reader.obj
 0001:000cf150       ??0Reader@Json@@QAE@XZ     004d0150 f   jsoncpp:json_reader.obj
 0001:000cf410       ??0Reader@Json@@QAE@ABVFeatures@1@@Z 004d0410 f   jsoncpp:json_reader.obj
 0001:000cf690       ?parse@Reader@Json@@QAE_NABV?$basic_string@DU?$char_traits@D@std@@V?$allocator@D@2@@std@@AAVValue@2@_N@Z 004d0690 f   jsoncpp:json_reader.obj
 0001:000cf8b0       ?parse@Reader@Json@@QAE_NAAV?$basic_istream@DU?$char_traits@D@std@@@std@@AAVValue@2@_N@Z 004d08b0 f   jsoncpp:json_reader.obj
 0001:000cfa10       ?parse@Reader@Json@@QAE_NPBD0AAVValue@2@_N@Z 004d0a10 f   jsoncpp:json_reader.obj
 0001:000d0010       ?readValue@Reader@Json@@AAE_NXZ 004d1010 f   jsoncpp:json_reader.obj
 0001:000d04b0       ?skipCommentTokens@Reader@Json@@AAEXAAVToken@12@@Z 004d14b0 f   jsoncpp:json_reader.obj
 0001:000d04f0       ?expectToken@Reader@Json@@AAE_NW4TokenType@12@AAVToken@12@PBD@Z 004d14f0 f   jsoncpp:json_reader.obj
 0001:000d06c0       ?readToken@Reader@Json@@AAE_NAAVToken@12@@Z 004d16c0 f   jsoncpp:json_reader.obj
 0001:000d08f0       ?skipSpaces@Reader@Json@@AAEXXZ 004d18f0 f   jsoncpp:json_reader.obj
 0001:000d0950       ?match@Reader@Json@@AAE_NPBDH@Z 004d1950 f   jsoncpp:json_reader.obj
 0001:000d09c0       ?readComment@Reader@Json@@AAE_NXZ 004d19c0 f   jsoncpp:json_reader.obj
 0001:000d0af0       ?addComment@Reader@Json@@AAEXPBD0W4CommentPlacement@2@@Z 004d1af0 f   jsoncpp:json_reader.obj
 0001:000d0f00       ?readCStyleComment@Reader@Json@@AAE_NXZ 004d1f00 f   jsoncpp:json_reader.obj
 0001:000d0f60       ?readCppStyleComment@Reader@Json@@AAE_NXZ 004d1f60 f   jsoncpp:json_reader.obj
 0001:000d0fa0       ?readNumber@Reader@Json@@AAEXXZ 004d1fa0 f   jsoncpp:json_reader.obj
 0001:000d1050       ?readString@Reader@Json@@AAE_NXZ 004d2050 f   jsoncpp:json_reader.obj
 0001:000d10b0       ?readObject@Reader@Json@@AAE_NAAVToken@12@@Z 004d20b0 f   jsoncpp:json_reader.obj
 0001:000d1810       ?readArray@Reader@Json@@AAE_NAAVToken@12@@Z 004d2810 f   jsoncpp:json_reader.obj
 0001:000d1ed0       ?decodeNumber@Reader@Json@@AAE_NAAVToken@12@@Z 004d2ed0 f   jsoncpp:json_reader.obj
 0001:000d24c0       ?decodeDouble@Reader@Json@@AAE_NAAVToken@12@@Z 004d34c0 f   jsoncpp:json_reader.obj
 0001:000d2a20       ?decodeString@Reader@Json@@AAE_NAAVToken@12@@Z 004d3a20 f   jsoncpp:json_reader.obj
 0001:000d2c30       ?decodeString@Reader@Json@@AAE_NAAVToken@12@AAV?$basic_string@DU?$char_traits@D@std@@V?$allocator@D@2@@std@@@Z 004d3c30 f   jsoncpp:json_reader.obj
 0001:000d3760       ?decodeUnicodeCodePoint@Reader@Json@@AAE_NAAVToken@12@AAPBDPBDAAI@Z 004d4760 f   jsoncpp:json_reader.obj
 0001:000d3b70       ?decodeUnicodeEscapeSequence@Reader@Json@@AAE_NAAVToken@12@AAPBDPBDAAI@Z 004d4b70 f   jsoncpp:json_reader.obj
 0001:000d3f80       ?addError@Reader@Json@@AAE_NABV?$basic_string@DU?$char_traits@D@std@@V?$allocator@D@2@@std@@AAVToken@12@PBD@Z 004d4f80 f   jsoncpp:json_reader.obj
 0001:000d42d0       ?recoverFromError@Reader@Json@@AAE_NW4TokenType@12@@Z 004d52d0 f   jsoncpp:json_reader.obj
 0001:000d44b0       ?addErrorAndRecover@Reader@Json@@AAE_NABV?$basic_string@DU?$char_traits@D@std@@V?$allocator@D@2@@std@@AAVToken@12@W4TokenType@12@@Z 004d54b0 f   jsoncpp:json_reader.obj
 0001:000d44e0       ?currentValue@Reader@Json@@AAEAAVValue@2@XZ 004d54e0 f   jsoncpp:json_reader.obj
 0001:000d45d0       ?getNextChar@Reader@Json@@AAEDXZ 004d55d0 f   jsoncpp:json_reader.obj
 0001:000d4610       ?getLocationLineAndColumn@Reader@Json@@ABEXPBDAAH1@Z 004d5610 f   jsoncpp:json_reader.obj
 0001:000d46d0       ?getLocationLineAndColumn@Reader@Json@@ABE?AV?$basic_string@DU?$char_traits@D@std@@V?$allocator@D@2@@std@@PBD@Z 004d56d0 f   jsoncpp:json_reader.obj
 0001:000d49a0       ?getFormatedErrorMessages@Reader@Json@@QBE?AV?$basic_string@DU?$char_traits@D@std@@V?$allocator@D@2@@std@@XZ 004d59a0 f   jsoncpp:json_reader.obj
 0001:000d5020       ??5Json@@YAAAV?$basic_istream@DU?$char_traits@D@std@@@std@@AAV12@AAVValue@0@@Z 004d6020 f   jsoncpp:json_reader.obj
 0001:000d5560       ?resize@?$deque@VErrorInfo@Reader@Json@@V?$allocator@VErrorInfo@Reader@Json@@@std@@@std@@QAEXIVErrorInfo@Reader@Json@@@Z 004d6560 f i jsoncpp:json_reader.obj
 0001:000d5f00       ?push_back@?$deque@VErrorInfo@Reader@Json@@V?$allocator@VErrorInfo@Reader@Json@@@std@@@std@@QAEXABVErrorInfo@Reader@Json@@@Z 004d6f00 f i jsoncpp:json_reader.obj
 0001:000d6600       ?push_back@?$deque@PAVValue@Json@@V?$allocator@PAVValue@Json@@@std@@@std@@QAEXABQAVValue@Json@@@Z 004d7600 f i jsoncpp:json_reader.obj
 0001:000d6d50       ?pop_back@?$deque@PAVValue@Json@@V?$allocator@PAVValue@Json@@@std@@@std@@QAEXXZ 004d7d50 f i jsoncpp:json_reader.obj
 0001:000d70f0       ?erase@?$deque@VErrorInfo@Reader@Json@@V?$allocator@VErrorInfo@Reader@Json@@@std@@@std@@QAE?AViterator@12@V312@0@Z 004d80f0 f i jsoncpp:json_reader.obj
 0001:000d7840       ?_Buyback@?$deque@VErrorInfo@Reader@Json@@V?$allocator@VErrorInfo@Reader@Json@@@std@@@std@@IAEXXZ 004d8840 f i jsoncpp:json_reader.obj
 0001:000d7c00       ??0const_iterator@?$deque@VErrorInfo@Reader@Json@@V?$allocator@VErrorInfo@Reader@Json@@@std@@@std@@QAE@ABViterator@12@@Z 004d8c00 f i jsoncpp:json_reader.obj
 0001:000d7c40       ??Hiterator@?$deque@VErrorInfo@Reader@Json@@V?$allocator@VErrorInfo@Reader@Json@@@std@@@std@@QBE?AV012@H@Z 004d8c40 f i jsoncpp:json_reader.obj
 0001:000d7d10       ?_Buyback@?$deque@PAVValue@Json@@V?$allocator@PAVValue@Json@@@std@@@std@@IAEXXZ 004d8d10 f i jsoncpp:json_reader.obj
 0001:000d80d0       ?_Freeback@?$deque@PAVValue@Json@@V?$allocator@PAVValue@Json@@@std@@@std@@IAEXXZ 004d90d0 f i jsoncpp:json_reader.obj
 0001:000d8230       ?push_front@?$deque@VErrorInfo@Reader@Json@@V?$allocator@VErrorInfo@Reader@Json@@@std@@@std@@QAEXABVErrorInfo@Reader@Json@@@Z 004d9230 f i jsoncpp:json_reader.obj
 0001:000d8730       ?_Growmap@?$deque@VErrorInfo@Reader@Json@@V?$allocator@VErrorInfo@Reader@Json@@@std@@@std@@IAEPAPAVErrorInfo@Reader@Json@@I@Z 004d9730 f i jsoncpp:json_reader.obj
 0001:000d87f0       ??Giterator@?$deque@VErrorInfo@Reader@Json@@V?$allocator@VErrorInfo@Reader@Json@@@std@@@std@@QBE?AV012@H@Z 004d97f0 f i jsoncpp:json_reader.obj
 0001:000d88d0       ??Giterator@?$deque@VErrorInfo@Reader@Json@@V?$allocator@VErrorInfo@Reader@Json@@@std@@@std@@QBEHABV012@@Z 004d98d0 f i jsoncpp:json_reader.obj
 0001:000d8940       ?_Growmap@?$deque@PAVValue@Json@@V?$allocator@PAVValue@Json@@@std@@@std@@IAEPAPAPAVValue@Json@@I@Z 004d9940 f i jsoncpp:json_reader.obj
 0001:000d8a00       ?_Freeback@?$deque@VErrorInfo@Reader@Json@@V?$allocator@VErrorInfo@Reader@Json@@@std@@@std@@IAEXXZ 004d9a00 f i jsoncpp:json_reader.obj
 0001:000d8b60       ?_Add@const_iterator@?$deque@VErrorInfo@Reader@Json@@V?$allocator@VErrorInfo@Reader@Json@@@std@@@std@@IAEXH@Z 004d9b60 f i jsoncpp:json_reader.obj
 0001:000d8c20       ??0const_iterator@?$deque@PAVValue@Json@@V?$allocator@PAVValue@Json@@@std@@@std@@QAE@PAPAVValue@Json@@PAPAPAV34@@Z 004d9c20 f i jsoncpp:json_reader.obj
 0001:000d8c60       ?fill@std@@YAXViterator@?$deque@VErrorInfo@Reader@Json@@V?$allocator@VErrorInfo@Reader@Json@@@std@@@1@0ABVErrorInfo@Reader@Json@@@Z 004d9c60 f i jsoncpp:json_reader.obj
 0001:000d90c0       ?copy@std@@YA?AViterator@?$deque@VErrorInfo@Reader@Json@@V?$allocator@VErrorInfo@Reader@Json@@@std@@@1@V231@00@Z 004da0c0 f i jsoncpp:json_reader.obj
 0001:000d94d0       ?copy_backward@std@@YA?AViterator@?$deque@VErrorInfo@Reader@Json@@V?$allocator@VErrorInfo@Reader@Json@@@std@@@1@V231@00@Z 004da4d0 f i jsoncpp:json_reader.obj
 0001:000d98e0       ?_Construct@std@@YAXPAVErrorInfo@Reader@Json@@ABV234@@Z 004da8e0 f i jsoncpp:json_reader.obj
 0001:000d9d80       ?_Construct@std@@YAXPAPAVValue@Json@@ABQAV23@@Z 004dad80 f i jsoncpp:json_reader.obj
 0001:000d9db0       ?copy@std@@YAPAPAVErrorInfo@Reader@Json@@PAPAV234@00@Z 004dadb0 f i jsoncpp:json_reader.obj
 0001:000d9de0       ??4ErrorInfo@Reader@Json@@QAEAAV012@ABV012@@Z 004dade0 f i jsoncpp:json_reader.obj
 0001:000da1e0       ??0ErrorInfo@Reader@Json@@QAE@ABV012@@Z 004db1e0 f i jsoncpp:json_reader.obj
 0001:000da5e0       ??Eiterator@?$deque@VErrorInfo@Reader@Json@@V?$allocator@VErrorInfo@Reader@Json@@@std@@@std@@QAEAAV012@XZ 004db5e0 f i jsoncpp:json_reader.obj
 0001:000da650       ??Fiterator@?$deque@VErrorInfo@Reader@Json@@V?$allocator@VErrorInfo@Reader@Json@@@std@@@std@@QAEAAV012@XZ 004db650 f i jsoncpp:json_reader.obj
 0001:000da6c0       ?valueToString@Json@@YA?AV?$basic_string@DU?$char_traits@D@std@@V?$allocator@D@2@@std@@H@Z 004db6c0 f   jsoncpp:json_writer.obj
 0001:000daa00       ?valueToString@Json@@YA?AV?$basic_string@DU?$char_traits@D@std@@V?$allocator@D@2@@std@@I@Z 004dba00 f   jsoncpp:json_writer.obj
 0001:000daca0       ?valueToString@Json@@YA?AV?$basic_string@DU?$char_traits@D@std@@V?$allocator@D@2@@std@@N@Z 004dbca0 f   jsoncpp:json_writer.obj
 0001:000db0f0       ?valueToString@Json@@YA?AV?$basic_string@DU?$char_traits@D@std@@V?$allocator@D@2@@std@@_N@Z 004dc0f0 f   jsoncpp:json_writer.obj
 0001:000db390       ?valueToQuotedString@Json@@YA?AV?$basic_string@DU?$char_traits@D@std@@V?$allocator@D@2@@std@@PBD@Z 004dc390 f   jsoncpp:json_writer.obj
 0001:000dbbf0       ??1Writer@Json@@UAE@XZ     004dcbf0 f   jsoncpp:json_writer.obj
 0001:000dbc10       ??_GWriter@Json@@UAEPAXI@Z 004dcc10 f i jsoncpp:json_writer.obj
 0001:000dbc10       ??_EWriter@Json@@UAEPAXI@Z 004dcc10 f i jsoncpp:json_writer.obj
 0001:000dbc40       ??0FastWriter@Json@@QAE@XZ 004dcc40 f   jsoncpp:json_writer.obj
 0001:000dbd10       ?enableYAMLCompatibility@FastWriter@Json@@QAEXXZ 004dcd10 f   jsoncpp:json_writer.obj
 0001:000dbd30       ?write@FastWriter@Json@@UAE?AV?$basic_string@DU?$char_traits@D@std@@V?$allocator@D@2@@std@@ABVValue@2@@Z 004dcd30 f   jsoncpp:json_writer.obj
 0001:000dc040       ?writeValue@FastWriter@Json@@AAEXABVValue@2@@Z 004dd040 f   jsoncpp:json_writer.obj
 0001:000dcb10       ??0StyledWriter@Json@@QAE@XZ 004ddb10 f   jsoncpp:json_writer.obj
 0001:000dccc0       ?write@StyledWriter@Json@@UAE?AV?$basic_string@DU?$char_traits@D@std@@V?$allocator@D@2@@std@@ABVValue@2@@Z 004ddcc0 f   jsoncpp:json_writer.obj
 0001:000dd160       ?writeValue@StyledWriter@Json@@AAEXABVValue@2@@Z 004de160 f   jsoncpp:json_writer.obj
 0001:000ddb00       ?writeArrayValue@StyledWriter@Json@@AAEXABVValue@2@@Z 004deb00 f   jsoncpp:json_writer.obj
 0001:000de270       ?isMultineArray@StyledWriter@Json@@AAE_NABVValue@2@@Z 004df270 f   jsoncpp:json_writer.obj
 0001:000de620       ?pushValue@StyledWriter@Json@@AAEXABV?$basic_string@DU?$char_traits@D@std@@V?$allocator@D@2@@std@@@Z 004df620 f   jsoncpp:json_writer.obj
 0001:000de8e0       ?writeIndent@StyledWriter@Json@@AAEXXZ 004df8e0 f   jsoncpp:json_writer.obj
 0001:000decb0       ?writeWithIndent@StyledWriter@Json@@AAEXABV?$basic_string@DU?$char_traits@D@std@@V?$allocator@D@2@@std@@@Z 004dfcb0 f   jsoncpp:json_writer.obj
 0001:000def30       ?indent@StyledWriter@Json@@AAEXXZ 004dff30 f   jsoncpp:json_writer.obj
 0001:000df1f0       ?unindent@StyledWriter@Json@@AAEXXZ 004e01f0 f   jsoncpp:json_writer.obj
 0001:000df590       ?writeCommentBeforeValue@StyledWriter@Json@@AAEXABVValue@2@@Z 004e0590 f   jsoncpp:json_writer.obj
 0001:000dfa10       ?writeCommentAfterValueOnSameLine@StyledWriter@Json@@AAEXABVValue@2@@Z 004e0a10 f   jsoncpp:json_writer.obj
 0001:000e0040       ?hasCommentForValue@StyledWriter@Json@@AAE_NABVValue@2@@Z 004e1040 f   jsoncpp:json_writer.obj
 0001:000e00a0       ?normalizeEOL@StyledWriter@Json@@CA?AV?$basic_string@DU?$char_traits@D@std@@V?$allocator@D@2@@std@@ABV34@@Z 004e10a0 f   jsoncpp:json_writer.obj
 0001:000e0400       ??0StyledStreamWriter@Json@@QAE@V?$basic_string@DU?$char_traits@D@std@@V?$allocator@D@2@@std@@@Z 004e1400 f   jsoncpp:json_writer.obj
 0001:000e0660       ?write@StyledStreamWriter@Json@@QAEXAAV?$basic_ostream@DU?$char_traits@D@std@@@std@@ABVValue@2@@Z 004e1660 f   jsoncpp:json_writer.obj
 0001:000e0920       ?writeValue@StyledStreamWriter@Json@@AAEXABVValue@2@@Z 004e1920 f   jsoncpp:json_writer.obj
 0001:000e1200       ?writeArrayValue@StyledStreamWriter@Json@@AAEXABVValue@2@@Z 004e2200 f   jsoncpp:json_writer.obj
 0001:000e16c0       ?isMultineArray@StyledStreamWriter@Json@@AAE_NABVValue@2@@Z 004e26c0 f   jsoncpp:json_writer.obj
 0001:000e1a50       ?pushValue@StyledStreamWriter@Json@@AAEXABV?$basic_string@DU?$char_traits@D@std@@V?$allocator@D@2@@std@@@Z 004e2a50 f   jsoncpp:json_writer.obj
 0001:000e1da0       ?writeIndent@StyledStreamWriter@Json@@AAEXXZ 004e2da0 f   jsoncpp:json_writer.obj
 0001:000e1dd0       ?writeWithIndent@StyledStreamWriter@Json@@AAEXABV?$basic_string@DU?$char_traits@D@std@@V?$allocator@D@2@@std@@@Z 004e2dd0 f   jsoncpp:json_writer.obj
 0001:000e1e00       ?indent@StyledStreamWriter@Json@@AAEXXZ 004e2e00 f   jsoncpp:json_writer.obj
 0001:000e2070       ?unindent@StyledStreamWriter@Json@@AAEXXZ 004e3070 f   jsoncpp:json_writer.obj
 0001:000e2410       ?writeCommentBeforeValue@StyledStreamWriter@Json@@AAEXABVValue@2@@Z 004e3410 f   jsoncpp:json_writer.obj
 0001:000e25b0       ?writeCommentAfterValueOnSameLine@StyledStreamWriter@Json@@AAEXABVValue@2@@Z 004e35b0 f   jsoncpp:json_writer.obj
 0001:000e29e0       ?hasCommentForValue@StyledStreamWriter@Json@@AAE_NABVValue@2@@Z 004e39e0 f   jsoncpp:json_writer.obj
 0001:000e2a40       ?normalizeEOL@StyledStreamWriter@Json@@CA?AV?$basic_string@DU?$char_traits@D@std@@V?$allocator@D@2@@std@@ABV34@@Z 004e3a40 f   jsoncpp:json_writer.obj
 0001:000e2da0       ??6Json@@YAAAV?$basic_ostream@DU?$char_traits@D@std@@@std@@AAV12@ABVValue@0@@Z 004e3da0 f   jsoncpp:json_writer.obj
 0001:000e31d0       ??_GFastWriter@Json@@UAEPAXI@Z 004e41d0 f i jsoncpp:json_writer.obj
 0001:000e31d0       ??_EFastWriter@Json@@UAEPAXI@Z 004e41d0 f i jsoncpp:json_writer.obj
 0001:000e3200       ??1FastWriter@Json@@UAE@XZ 004e4200 f i jsoncpp:json_writer.obj
 0001:000e32c0       ??1StyledStreamWriter@Json@@QAE@XZ 004e42c0 f i jsoncpp:json_writer.obj
 0001:000e3520       ?_Ufill@?$vector@V?$basic_string@DU?$char_traits@D@std@@V?$allocator@D@2@@std@@V?$allocator@V?$basic_string@DU?$char_traits@D@std@@V?$allocator@D@2@@std@@@2@@std@@IAEXPAV?$basic_string@DU?$char_traits@D@std@@V?$allocator@D@2@@2@IABV32@@Z 004e4520 f i jsoncpp:json_writer.obj
 0001:000e3560       ?fill@std@@YAXPAV?$basic_string@DU?$char_traits@D@std@@V?$allocator@D@2@@1@0ABV21@@Z 004e4560 f i jsoncpp:json_writer.obj
 0001:000e3930       ?copy_backward@std@@YAPAV?$basic_string@DU?$char_traits@D@std@@V?$allocator@D@2@@1@PAV21@00@Z 004e4930 f i jsoncpp:json_writer.obj
 0001:000e3d00       ?GetUWLSeedLicense@@YAPAKXZ 004e4d00 f   TcyCommon:CommonData.obj
 0001:000e3d10       ?GetHelloData@@YAPAXXZ     004e4d10 f   TcyCommon:CommonData.obj
 0001:000e3d20       ?GetHelloLength@@YAHXZ     004e4d20 f   TcyCommon:CommonData.obj
 0001:000e3d30       ?TcyEncryptData@@YAXHPAE0@Z 004e4d30 f   TcyCommon:CommonData.obj
 0001:000e3db0       ?TcyDecryptData@@YAXHPAE0@Z 004e4db0 f   TcyCommon:CommonData.obj
 0001:000e3eb0       ??0CDefIocpClient@@QAE@QBEKKKHH@Z 004e4eb0 f   TcyCommon:DefIocpClient.obj
 0001:000e3ef0       ??_GCDefIocpClient@@UAEPAXI@Z 004e4ef0 f i TcyCommon:DefIocpClient.obj
 0001:000e3ef0       ??_ECDefIocpClient@@UAEPAXI@Z 004e4ef0 f i TcyCommon:DefIocpClient.obj
 0001:000e3f10       ??0CDefIocpClient@@QAE@HKKHH@Z 004e4f10 f   TcyCommon:DefIocpClient.obj
 0001:000e3f50       ??1CDefIocpClient@@UAE@XZ  004e4f50 f   TcyCommon:DefIocpClient.obj
 0001:000e3fe0       ??0CDefIocpServer@@QAE@QBEKKK@Z 004e4fe0 f   TcyCommon:DefIocpServer.obj
 0001:000e4020       ??_GCDefIocpServer@@UAEPAXI@Z 004e5020 f i TcyCommon:DefIocpServer.obj
 0001:000e4020       ??_ECDefIocpServer@@UAEPAXI@Z 004e5020 f i TcyCommon:DefIocpServer.obj
 0001:000e4040       ??0CDefIocpServer@@QAE@HKK@Z 004e5040 f   TcyCommon:DefIocpServer.obj
 0001:000e4080       ??1CDefIocpServer@@UAE@XZ  004e5080 f   TcyCommon:DefIocpServer.obj
 0001:000e4110       ??0CString@@QAE@PBD@Z      004e5110 f   mfc42:MFC42.DLL
 0001:000e4116       ??1CString@@QAE@XZ         004e5116 f   mfc42:MFC42.DLL
 0001:000e411c       ??3@YAXPAX@Z               004e511c f   mfc42:MFC42.DLL
 0001:000e4122       ??2@YAPAXI@Z               004e5122 f   mfc42:MFC42.DLL
 0001:000e4128       ??0CString@@QAE@XZ         004e5128 f   mfc42:MFC42.DLL
 0001:000e412e       ??4CString@@QAEABV0@PBD@Z  004e512e f   mfc42:MFC42.DLL
 0001:000e4134       ??4CString@@QAEABV0@ABV0@@Z 004e5134 f   mfc42:MFC42.DLL
 0001:000e413a       ?Delete@CException@@QAEXXZ 004e513a f   mfc42:MFC42.DLL
 0001:000e4140       ??1CStdioFile@@UAE@XZ      004e5140 f   mfc42:MFC42.DLL
 0001:000e4146       ?Close@CStdioFile@@UAEXXZ  004e5146 f   mfc42:MFC42.DLL
 0001:000e414c       ?Format@CString@@QAAXPBDZZ 004e514c f   mfc42:MFC42.DLL
 0001:000e4152       ?WriteString@CStdioFile@@UAEXPBD@Z 004e5152 f   mfc42:MFC42.DLL
 0001:000e4158       ?Open@CStdioFile@@UAEHPBDIPAVCFileException@@@Z 004e5158 f   mfc42:MFC42.DLL
 0001:000e415e       ??0CStdioFile@@QAE@XZ      004e515e f   mfc42:MFC42.DLL
 0001:000e4164       ?ReadString@CStdioFile@@UAEHAAVCString@@@Z 004e5164 f   mfc42:MFC42.DLL
 0001:000e416a       ??1CFileFind@@UAE@XZ       004e516a f   mfc42:MFC42.DLL
 0001:000e4170       ?FindFile@CFileFind@@UAEHPBDK@Z 004e5170 f   mfc42:MFC42.DLL
 0001:000e4176       ??0CFileFind@@QAE@XZ       004e5176 f   mfc42:MFC42.DLL
 0001:000e417c       ??0CString@@QAE@ABV0@@Z    004e517c f   mfc42:MFC42.DLL
 0001:000e4182       ?GetTickCount@CTime@@SG?AV1@XZ 004e5182 f   mfc42:MFC42.DLL
 0001:000e4188       ??YCString@@QAEABV0@PBD@Z  004e5188 f   mfc42:MFC42.DLL
 0001:000e418e       ??YCString@@QAEABV0@ABV0@@Z 004e518e f   mfc42:MFC42.DLL
 0001:000e4194       ?TrimRight@CString@@QAEXXZ 004e5194 f   mfc42:MFC42.DLL
 0001:000e419a       ?TrimLeft@CString@@QAEXXZ  004e519a f   mfc42:MFC42.DLL
 0001:000e41a0       ?Remove@CString@@QAEHD@Z   004e51a0 f   mfc42:MFC42.DLL
 0001:000e41a6       ??YCString@@QAEABV0@D@Z    004e51a6 f   mfc42:MFC42.DLL
 0001:000e41ac       ?GetLocalTm@CTime@@QBEPAUtm@@PAU2@@Z 004e51ac f   mfc42:MFC42.DLL
 0001:000e41b2       ?ReleaseBuffer@CString@@QAEXH@Z 004e51b2 f   mfc42:MFC42.DLL
 0001:000e41b8       ?GetBuffer@CString@@QAEPADH@Z 004e51b8 f   mfc42:MFC42.DLL
 0001:000e41be       ??0CString@@QAE@PBDH@Z     004e51be f   mfc42:MFC42.DLL
 0001:000e41c4       ?Mid@CString@@QBE?AV1@HH@Z 004e51c4 f   mfc42:MFC42.DLL
 0001:000e41ca       ?Empty@CString@@QAEXXZ     004e51ca f   mfc42:MFC42.DLL
 0001:000e41d0       ??H@YG?AVCString@@ABV0@0@Z 004e51d0 f   mfc42:MFC42.DLL
 0001:000e41d6       ??H@YG?AVCString@@ABV0@PBD@Z 004e51d6 f   mfc42:MFC42.DLL
 0001:000e41dc       ??H@YG?AVCString@@PBDABV0@@Z 004e51dc f   mfc42:MFC42.DLL
 0001:000e41e2       ?Left@CString@@QBE?AV1@H@Z 004e51e2 f   mfc42:MFC42.DLL
 0001:000e41e8       ?ReverseFind@CString@@QBEHD@Z 004e51e8 f   mfc42:MFC42.DLL
 0001:000e41ee       ?GetRuntimeClass@CObject@@UBEPAUCRuntimeClass@@XZ 004e51ee f   mfc42:MFC42.DLL
 0001:000e41f4       ?ReadCount@CArchive@@QAEKXZ 004e51f4 f   mfc42:MFC42.DLL
 0001:000e41fa       ?WriteCount@CArchive@@QAEXK@Z 004e51fa f   mfc42:MFC42.DLL
 0001:000e4200       ?Read@CArchive@@QAEIPAXI@Z 004e5200 f   mfc42:MFC42.DLL
 0001:000e4206       ?Write@CArchive@@QAEXPBXI@Z 004e5206 f   mfc42:MFC42.DLL
 0001:000e420c       ?FreeDataChain@CPlex@@QAEXXZ 004e520c f   mfc42:MFC42.DLL
 0001:000e4212       ?Create@CPlex@@SGPAU1@AAPAU1@II@Z 004e5212 f   mfc42:MFC42.DLL
 0001:000e4218       ??0CWinApp@@QAE@PBD@Z      004e5218 f   mfc42:MFC42.DLL
 0001:000e421e       ??1CWinApp@@UAE@XZ         004e521e f   mfc42:MFC42.DLL
 0001:000e4224       ?AfxLoadLibrary@@YGPAUHINSTANCE__@@PBD@Z 004e5224 f   mfc42:MFC42.DLL
 0001:000e422a       ?AfxSocketInit@@YGHPAUWSAData@@@Z 004e522a f   mfc42:MFC42.DLL
 0001:000e4230       ?AfxGetModuleState@@YGPAVAFX_MODULE_STATE@@XZ 004e5230 f   mfc42:MFC42.DLL
 0001:000e4236       ?AfxWinInit@@YGHPAUHINSTANCE__@@0PADH@Z 004e5236 f   mfc42:MFC42.DLL
 0001:000e423c       ?AfxFreeLibrary@@YGHPAUHINSTANCE__@@@Z 004e523c f   mfc42:MFC42.DLL
 0001:000e4242       ?DestructElements@@YGXPAVCString@@H@Z 004e5242 f   mfc42:MFC42.DLL
 0001:000e4248       ?HashKey@@YGIPBD@Z         004e5248 f   mfc42:MFC42.DLL
 0001:000e424e       ??1CDWordArray@@UAE@XZ     004e524e f   mfc42:MFC42.DLL
 0001:000e4254       ??0CDWordArray@@QAE@XZ     004e5254 f   mfc42:MFC42.DLL
 0001:000e425a       ?SetAtGrow@CDWordArray@@QAEXHK@Z 004e525a f   mfc42:MFC42.DLL
 0001:000e4260       ?Find@CString@@QBEHPBDH@Z  004e5260 f   mfc42:MFC42.DLL
 0001:000e4266       ?AfxIsValidString@@YGHPBDH@Z 004e5266 f   mfc42:MFC42.DLL
 0001:000e426c       ?Right@CString@@QBE?AV1@H@Z 004e526c f   mfc42:MFC42.DLL
 0001:000e4272       ?ConstructElements@@YGXPAVCString@@H@Z 004e5272 f   mfc42:MFC42.DLL
 0001:000e4278       ?SerializeElements@@YGXAAVCArchive@@PAVCString@@H@Z 004e5278 f   mfc42:MFC42.DLL
 0001:000e427e       ?SetAtGrow@CStringArray@@QAEXHPBD@Z 004e527e f   mfc42:MFC42.DLL
 0001:000e4284       ??1CPtrList@@UAE@XZ        004e5284 f   mfc42:MFC42.DLL
 0001:000e428a       ??0CPtrList@@QAE@H@Z       004e528a f   mfc42:MFC42.DLL
 0001:000e4290       ?RemoveTail@CPtrList@@QAEPAXXZ 004e5290 f   mfc42:MFC42.DLL
 0001:000e4296       ?AddTail@CPtrList@@QAEPAU__POSITION@@PAX@Z 004e5296 f   mfc42:MFC42.DLL
 0001:000e429c       ?RemoveHead@CPtrList@@QAEPAXXZ 004e529c f   mfc42:MFC42.DLL
 0001:000e42a2       ?RemoveAt@CPtrList@@QAEXPAU__POSITION@@@Z 004e52a2 f   mfc42:MFC42.DLL
 0001:000e42a8       ?Find@CPtrList@@QBEPAU__POSITION@@PAXPAU2@@Z 004e52a8 f   mfc42:MFC42.DLL
 0001:000e42ae       ??0CTime@@QAE@HHHHHHH@Z    004e52ae f   mfc42:MFC42.DLL
 0001:000e42b4       ??0CString@@QAE@DH@Z       004e52b4 f   mfc42:MFC42.DLL
 0001:000e42ba       ?Replace@CString@@QAEHPBD0@Z 004e52ba f   mfc42:MFC42.DLL
 0001:000e42c0       ?TrimRight@CString@@QAEXPBD@Z 004e52c0 f   mfc42:MFC42.DLL
 0001:000e42c6       ?TrimLeft@CString@@QAEXPBD@Z 004e52c6 f   mfc42:MFC42.DLL
 0001:000e42cc       ??H@YG?AVCString@@ABV0@D@Z 004e52cc f   mfc42:MFC42.DLL
 0001:000e42d2       ?MakeLower@CString@@QAEXXZ 004e52d2 f   mfc42:MFC42.DLL
 0001:000e42d8       ?MakeUpper@CString@@QAEXXZ 004e52d8 f   mfc42:MFC42.DLL
 0001:000e42de       ??1CStringArray@@UAE@XZ    004e52de f   mfc42:MFC42.DLL
 0001:000e42e4       ??0CStringArray@@QAE@XZ    004e52e4 f   mfc42:MFC42.DLL
 0001:000e42ea       ?Close@CFile@@UAEXXZ       004e52ea f   mfc42:MFC42.DLL
 0001:000e42f0       ?Write@CFile@@UAEXPBXI@Z   004e52f0 f   mfc42:MFC42.DLL
 0001:000e42f6       ?Read@CFile@@UAEIPAXI@Z    004e52f6 f   mfc42:MFC42.DLL
 0001:000e42fc       ??1CFile@@UAE@XZ           004e52fc f   mfc42:MFC42.DLL
 0001:000e4302       ?Open@CFile@@UAEHPBDIPAVCFileException@@@Z 004e5302 f   mfc42:MFC42.DLL
 0001:000e4308       ??0CFile@@QAE@XZ           004e5308 f   mfc42:MFC42.DLL
 0001:000e430e       ??1CByteArray@@UAE@XZ      004e530e f   mfc42:MFC42.DLL
 0001:000e4314       ??0CByteArray@@QAE@XZ      004e5314 f   mfc42:MFC42.DLL
 0001:000e431a       ?SetSize@CByteArray@@QAEXHH@Z 004e531a f   mfc42:MFC42.DLL
 0001:000e4320       ??1CStringList@@UAE@XZ     004e5320 f   mfc42:MFC42.DLL
 0001:000e4326       ??0CStringList@@QAE@H@Z    004e5326 f   mfc42:MFC42.DLL
 0001:000e432c       ?RemoveAll@CStringList@@QAEXXZ 004e532c f   mfc42:MFC42.DLL
 0001:000e4332       ?AddTail@CStringList@@QAEPAU__POSITION@@ABVCString@@@Z 004e5332 f   mfc42:MFC42.DLL
 0001:000e4338       ?AddHead@CPtrList@@QAEPAU__POSITION@@PAX@Z 004e5338 f   mfc42:MFC42.DLL
 0001:000e433e       __onexit                   004e533e f   msvcrt:atonexit.obj
 0001:000e436a       _atexit                    004e536a f   msvcrt:atonexit.obj
 0001:000e437c       ??_M@YGXPAXIHP6EX0@Z@Z     004e537c f   msvcrt:ehvecdtr.obj
 0001:000e43fc       ?__ArrayUnwind@@YGXPAXIHP6EX0@Z@Z 004e53fc f   msvcrt:ehvecdtr.obj
 0001:000e4470       ___CxxFrameHandler         004e5470 f   msvcrt:MSVCRT.dll
 0001:000e4480       ??0type_info@@AAE@ABV0@@Z  004e5480 f   msvcrt:ti_inst.obj
 0001:000e448b       ??_Gtype_info@@UAEPAXI@Z   004e548b f i msvcrt:ti_inst.obj
 0001:000e448b       ??_Etype_info@@UAEPAXI@Z   004e548b f i msvcrt:ti_inst.obj
 0001:000e44a7       ??4type_info@@AAEAAV0@ABV0@@Z 004e54a7 f   msvcrt:ti_inst.obj
 0001:000e44ac       ??_L@YGXPAXIHP6EX0@Z1@Z    004e54ac f   msvcrt:ehvecctr.obj
 0001:000e4530       __allmul                   004e5530 f   msvcrt:llmul.obj
 0001:000e4564       __atoi64                   004e5564 f   msvcrt:MSVCRT.dll
 0001:000e456a       _atoi                      004e556a f   msvcrt:MSVCRT.dll
 0001:000e4570       _strrchr                   004e5570 f   msvcrt:MSVCRT.dll
 0001:000e4576       _sprintf                   004e5576 f   msvcrt:MSVCRT.dll
 0001:000e457c       _memset                    004e557c f   msvcrt:MSVCRT.dll
 0001:000e4582       __mbscmp                   004e5582 f   msvcrt:MSVCRT.dll
 0001:000e4588       _memcpy                    004e5588 f   msvcrt:MSVCRT.dll
 0001:000e458e       _memmove                   004e558e f   msvcrt:MSVCRT.dll
 0001:000e4594       _strtol                    004e5594 f   msvcrt:MSVCRT.dll
 0001:000e459a       _strlen                    004e559a f   msvcrt:MSVCRT.dll
 0001:000e45a0       _memcmp                    004e55a0 f   msvcrt:MSVCRT.dll
 0001:000e45a6       __mbclen                   004e55a6 f   msvcrt:MSVCRT.dll
 0001:000e45ac       _fwrite                    004e55ac f   msvcrt:MSVCRT.dll
 0001:000e45b2       _fread                     004e55b2 f   msvcrt:MSVCRT.dll
 0001:000e45b8       _ftell                     004e55b8 f   msvcrt:MSVCRT.dll
 0001:000e45be       _fseek                     004e55be f   msvcrt:MSVCRT.dll
 0001:000e45c4       _fopen                     004e55c4 f   msvcrt:MSVCRT.dll
 0001:000e45ca       _fclose                    004e55ca f   msvcrt:MSVCRT.dll
 0001:000e45d0       _fflush                    004e55d0 f   msvcrt:MSVCRT.dll
 0001:000e45d6       _strcpy                    004e55d6 f   msvcrt:MSVCRT.dll
 0001:000e45dc       _strncpy                   004e55dc f   msvcrt:MSVCRT.dll
 0001:000e45e2       _strstr                    004e55e2 f   msvcrt:MSVCRT.dll
 0001:000e45e8       _strchr                    004e55e8 f   msvcrt:MSVCRT.dll
 0001:000e45ee       __beginthreadex            004e55ee f   msvcrt:MSVCRT.dll
 0001:000e45f4       _rand                      004e55f4 f   msvcrt:MSVCRT.dll
 0001:000e45fa       _srand                     004e55fa f   msvcrt:MSVCRT.dll
 0001:000e4600       _time                      004e5600 f   msvcrt:MSVCRT.dll
 0001:000e4606       _strcat                    004e5606 f   msvcrt:MSVCRT.dll
 0001:000e460c       __ftol                     004e560c f   msvcrt:MSVCRT.dll
 0001:000e4612       _ceil                      004e5612 f   msvcrt:MSVCRT.dll
 0001:000e4618       _strtoul                   004e5618 f   msvcrt:MSVCRT.dll
 0001:000e461e       _strcmp                    004e561e f   msvcrt:MSVCRT.dll
 0001:000e4624       _strncmp                   004e5624 f   msvcrt:MSVCRT.dll
 0001:000e462a       _malloc                    004e562a f   msvcrt:MSVCRT.dll
 0001:000e4630       _free                      004e5630 f   msvcrt:MSVCRT.dll
 0001:000e4636       __write                    004e5636 f   msvcrt:MSVCRT.dll
 0001:000e463c       __read                     004e563c f   msvcrt:MSVCRT.dll
 0001:000e4650       __alloca_probe             004e5650 f   msvcrt:chkstk.obj
 0001:000e4650       __chkstk                   004e5650 f   msvcrt:chkstk.obj
 0001:000e4680       _strncat                   004e5680 f   msvcrt:MSVCRT.dll
 0001:000e4686       __setmode                  004e5686 f   msvcrt:MSVCRT.dll
 0001:000e468c       _mbtowc                    004e568c f   msvcrt:MSVCRT.dll
 0001:000e4692       _wctomb                    004e5692 f   msvcrt:MSVCRT.dll
 0001:000e4698       _sscanf                    004e5698 f   msvcrt:MSVCRT.dll
 0001:000e469e       __finite                   004e569e f   msvcrt:MSVCRT.dll
 0001:000e46a4       __isnan                    004e56a4 f   msvcrt:MSVCRT.dll
 0001:000e46aa       _strtod                    004e56aa f   msvcrt:MSVCRT.dll
 0001:000e46b0       _gmtime                    004e56b0 f   msvcrt:MSVCRT.dll
 0001:000e46b6       _mktime                    004e56b6 f   msvcrt:MSVCRT.dll
 0001:000e46bc       _strftime                  004e56bc f   msvcrt:MSVCRT.dll
 0001:000e46c2       _fprintf                   004e56c2 f   msvcrt:MSVCRT.dll
 0001:000e46c8       _mainCRTStartup            004e56c8 f   msvcrt:crtexe.obj
 0001:000e47d8       __CxxThrowException@8      004e57d8 f   msvcrt:MSVCRT.dll
 0001:000e47de       _vsprintf                  004e57de f   msvcrt:MSVCRT.dll
 0001:000e47e4       __strlwr                   004e57e4 f   msvcrt:MSVCRT.dll
 0001:000e47ea       __splitpath                004e57ea f   msvcrt:MSVCRT.dll
 0001:000e47f0       __aulldiv                  004e57f0 f   msvcrt:ulldiv.obj
 0001:000e4858       _localtime                 004e5858 f   msvcrt:MSVCRT.dll
 0001:000e485e       __mbsrchr                  004e585e f   msvcrt:MSVCRT.dll
 0001:000e4864       __vsnprintf                004e5864 f   msvcrt:MSVCRT.dll
 0001:000e486a       _wcslen                    004e586a f   msvcrt:MSVCRT.dll
 0001:000e4870       __mbstok                   004e5870 f   msvcrt:MSVCRT.dll
 0001:000e4876       __purecall                 004e5876 f   msvcrt:MSVCRT.dll
 0001:000e487c       __itoa                     004e587c f   msvcrt:MSVCRT.dll
 0001:000e4882       __mbsicmp                  004e5882 f   msvcrt:MSVCRT.dll
 0001:000e4888       _calloc                    004e5888 f   msvcrt:MSVCRT.dll
 0001:000e488e       __mbslen                   004e588e f   msvcrt:MSVCRT.dll
 0001:000e4894       ??0exception@@QAE@ABV0@@Z  004e5894 f   msvcrt:MSVCRT.dll
 0001:000e489a       ??1exception@@UAE@XZ       004e589a f   msvcrt:MSVCRT.dll
 0001:000e48a0       ??0exception@@QAE@ABQBD@Z  004e58a0 f   msvcrt:MSVCRT.dll
 0001:000e48a6       _strpbrk                   004e58a6 f   msvcrt:MSVCRT.dll
 0001:000e48ac       ___dllonexit               004e58ac f   msvcrt:MSVCRT.dll
 0001:000e48b2       __except_handler3          004e58b2 f   msvcrt:MSVCRT.dll
 0001:000e48b8       ?terminate@@YAXXZ          004e58b8 f   msvcrt:MSVCRT.dll
 0001:000e48be       ??1type_info@@UAE@XZ       004e58be f   msvcrt:MSVCRT.dll
 0001:000e48c4       __exit                     004e58c4 f   msvcrt:MSVCRT.dll
 0001:000e48ca       __XcptFilter               004e58ca f   msvcrt:MSVCRT.dll
 0001:000e48d0       _exit                      004e58d0 f   msvcrt:MSVCRT.dll
 0001:000e48d6       ___p___initenv             004e58d6 f   msvcrt:MSVCRT.dll
 0001:000e48dc       ___getmainargs             004e58dc f   msvcrt:MSVCRT.dll
 0001:000e48e2       __initterm                 004e58e2 f   msvcrt:MSVCRT.dll
 0001:000e48e8       __setdefaultprecision      004e58e8 f   msvcrt:fp8.obj
 0001:000e48fa       ___setusermatherr          004e58fa f   msvcrt:MSVCRT.dll
 0001:000e4900       __matherr                  004e5900 f   msvcrt:merr.obj
 0001:000e4903       __setargv                  004e5903 f   msvcrt:dllargv.obj
 0001:000e4904       ___p__commode              004e5904 f   msvcrt:MSVCRT.dll
 0001:000e490a       ___p__fmode                004e590a f   msvcrt:MSVCRT.dll
 0001:000e4910       ___set_app_type            004e5910 f   msvcrt:MSVCRT.dll
 0001:000e4916       __controlfp                004e5916 f   msvcrt:MSVCRT.dll
 0001:000e491c       _GetTickCount@0            004e591c f   kernel32:KERNEL32.dll
 0001:000e4922       _GetPrivateProfileIntA@16  004e5922 f   kernel32:KERNEL32.dll
 0001:000e4928       _GetModuleFileNameA@12     004e5928 f   kernel32:KERNEL32.dll
 0001:000e492e       _GetPrivateProfileStringA@24 004e592e f   kernel32:KERNEL32.dll
 0001:000e4934       _InitializeCriticalSection@4 004e5934 f   kernel32:KERNEL32.dll
 0001:000e493a       _DeleteCriticalSection@4   004e593a f   kernel32:KERNEL32.dll
 0001:000e4940       _EnterCriticalSection@4    004e5940 f   kernel32:KERNEL32.dll
 0001:000e4946       _LeaveCriticalSection@4    004e5946 f   kernel32:KERNEL32.dll
 0001:000e494c       _GetACP@0                  004e594c f   kernel32:KERNEL32.dll
 0001:000e4952       _MultiByteToWideChar@24    004e5952 f   kernel32:KERNEL32.dll
 0001:000e4958       _WideCharToMultiByte@32    004e5958 f   kernel32:KERNEL32.dll
 0001:000e495e       _FormatMessageA@28         004e595e f   kernel32:KERNEL32.dll
 0001:000e4964       _GetLastError@0            004e5964 f   kernel32:KERNEL32.dll
 0001:000e496a       _lstrcpyA@8                004e596a f   kernel32:KERNEL32.dll
 0001:000e4970       _lstrcmpiA@8               004e5970 f   kernel32:KERNEL32.dll
 0001:000e4976       _CloseHandle@4             004e5976 f   kernel32:KERNEL32.dll
 0001:000e497c       _WaitForSingleObject@8     004e597c f   kernel32:KERNEL32.dll
 0001:000e4982       _SetEvent@4                004e5982 f   kernel32:KERNEL32.dll
 0001:000e4988       _GetModuleHandleA@4        004e5988 f   kernel32:KERNEL32.dll
 0001:000e498e       _lstrlenA@4                004e598e f   kernel32:KERNEL32.dll
 0001:000e4994       _GetCurrentThreadId@0      004e5994 f   kernel32:KERNEL32.dll
 0001:000e499a       _lstrcatA@8                004e599a f   kernel32:KERNEL32.dll
 0001:000e49a0       _GetSystemDirectoryA@8     004e59a0 f   kernel32:KERNEL32.dll
 0001:000e49a6       _GetLocalTime@4            004e59a6 f   kernel32:KERNEL32.dll
 0001:000e49ac       _GetCurrentProcess@0       004e59ac f   kernel32:KERNEL32.dll
 0001:000e49b2       _GetCurrentProcessId@0     004e59b2 f   kernel32:KERNEL32.dll
 0001:000e49b8       _CreateFileA@28            004e59b8 f   kernel32:KERNEL32.dll
 0001:000e49be       _GetUserDefaultLangID@0    004e59be f   kernel32:KERNEL32.dll
 0001:000e49c4       _SetUnhandledExceptionFilter@4 004e59c4 f   kernel32:KERNEL32.dll
 0001:000e49ca       _SetLastError@4            004e59ca f   kernel32:KERNEL32.dll
 0001:000e49d0       _InterlockedDecrement@4    004e59d0 f   kernel32:KERNEL32.dll
 0001:000e49d6       _InterlockedIncrement@4    004e59d6 f   kernel32:KERNEL32.dll
 0001:000e49dc       _lstrcpynA@12              004e59dc f   kernel32:KERNEL32.dll
 0001:000e49e2       _WritePrivateProfileStringA@16 004e59e2 f   kernel32:KERNEL32.dll
 0001:000e49e8       _GetExitCodeThread@8       004e59e8 f   kernel32:KERNEL32.dll
 0001:000e49ee       _GetCommandLineA@0         004e59ee f   kernel32:KERNEL32.dll
 0001:000e49f4       _CreateEventA@16           004e59f4 f   kernel32:KERNEL32.dll
 0001:000e49fa       _GlobalMemoryStatus@4      004e59fa f   kernel32:KERNEL32.dll
 0001:000e4a00       _OpenProcess@12            004e5a00 f   kernel32:KERNEL32.dll
 0001:000e4a06       _Sleep@4                   004e5a06 f   kernel32:KERNEL32.dll
 0001:000e4a0c       _GetProcessTimes@20        004e5a0c f   kernel32:KERNEL32.dll
 0001:000e4a12       _GetSystemTimeAsFileTime@4 004e5a12 f   kernel32:KERNEL32.dll
 0001:000e4a18       _GetSystemInfo@4           004e5a18 f   kernel32:KERNEL32.dll
 0001:000e4a1e       _Process32Next@8           004e5a1e f   kernel32:KERNEL32.dll
 0001:000e4a24       _Process32First@8          004e5a24 f   kernel32:KERNEL32.dll
 0001:000e4a2a       _CreateToolhelp32Snapshot@8 004e5a2a f   kernel32:KERNEL32.dll
 0001:000e4a30       _FindClose@4               004e5a30 f   kernel32:KERNEL32.dll
 0001:000e4a36       _FindFirstFileA@8          004e5a36 f   kernel32:KERNEL32.dll
 0001:000e4a3c       _CreateDirectoryA@8        004e5a3c f   kernel32:KERNEL32.dll
 0001:000e4a42       _LocalFree@4               004e5a42 f   kernel32:KERNEL32.dll
 0001:000e4a48       _GetVolumeInformationA@32  004e5a48 f   kernel32:KERNEL32.dll
 0001:000e4a4e       _GetDriveTypeA@4           004e5a4e f   kernel32:KERNEL32.dll
 0001:000e4a54       _GetLogicalDriveStringsA@8 004e5a54 f   kernel32:KERNEL32.dll
 0001:000e4a5a       _FreeLibrary@4             004e5a5a f   kernel32:KERNEL32.dll
 0001:000e4a60       _GetProcAddress@8          004e5a60 f   kernel32:KERNEL32.dll
 0001:000e4a66       _LoadLibraryA@4            004e5a66 f   kernel32:KERNEL32.dll
 0001:000e4a6c       _GetVersionExA@4           004e5a6c f   kernel32:KERNEL32.dll
 0001:000e4a72       _CreateSemaphoreA@16       004e5a72 f   kernel32:KERNEL32.dll
 0001:000e4a78       _ReleaseSemaphore@12       004e5a78 f   kernel32:KERNEL32.dll
 0001:000e4a7e       _InterlockedExchange@8     004e5a7e f   kernel32:KERNEL32.dll
 0001:000e4a84       _GetPrivateProfileSectionA@16 004e5a84 f   kernel32:KERNEL32.dll
 0001:000e4a8a       _DeviceIoControl@32        004e5a8a f   kernel32:KERNEL32.dll
 0001:000e4a90       _CreateIoCompletionPort@16 004e5a90 f   kernel32:KERNEL32.dll
 0001:000e4a96       _PostQueuedCompletionStatus@16 004e5a96 f   kernel32:KERNEL32.dll
 0001:000e4a9c       _GetQueuedCompletionStatus@20 004e5a9c f   kernel32:KERNEL32.dll
 0001:000e4aa2       _ResetEvent@4              004e5aa2 f   kernel32:KERNEL32.dll
 0001:000e4aa8       _lstrcmpA@8                004e5aa8 f   kernel32:KERNEL32.dll
 0001:000e4aae       _InterlockedExchangeAdd@8  004e5aae f   kernel32:KERNEL32.dll
 0001:000e4ab4       _WaitForMultipleObjects@16 004e5ab4 f   kernel32:KERNEL32.dll
 0001:000e4aba       _PostThreadMessageA@16     004e5aba f   user32:USER32.dll
 0001:000e4ac0       _PostMessageA@16           004e5ac0 f   user32:USER32.dll
 0001:000e4ac6       _IsWindow@4                004e5ac6 f   user32:USER32.dll
 0001:000e4acc       _DispatchMessageA@4        004e5acc f   user32:USER32.dll
 0001:000e4ad2       _GetMessageA@16            004e5ad2 f   user32:USER32.dll
 0001:000e4ad8       _RegisterClassA@4          004e5ad8 f   user32:USER32.dll
 0001:000e4ade       _LoadCursorA@8             004e5ade f   user32:USER32.dll
 0001:000e4ae4       _UnregisterClassA@8        004e5ae4 f   user32:USER32.dll
 0001:000e4aea       _CreateWindowExA@48        004e5aea f   user32:USER32.dll
 0001:000e4af0       _MessageBoxA@16            004e5af0 f   user32:USER32.dll
 0001:000e4af6       _DestroyWindow@4           004e5af6 f   user32:USER32.dll
 0001:000e4afc       _DefWindowProcA@16         004e5afc f   user32:USER32.dll
 0001:000e4b02       _PostQuitMessage@4         004e5b02 f   user32:USER32.dll
 0001:000e4b08       _GetSystemMetrics@4        004e5b08 f   user32:USER32.dll
 0001:000e4b0e       _LoadStringA@16            004e5b0e f   user32:USER32.dll
 0001:000e4b14       _CloseDesktop@4            004e5b14 f   user32:USER32.dll
 0001:000e4b1a       _CloseWindowStation@4      004e5b1a f   user32:USER32.dll
 0001:000e4b20       _SetThreadDesktop@4        004e5b20 f   user32:USER32.dll
 0001:000e4b26       _OpenDesktopA@16           004e5b26 f   user32:USER32.dll
 0001:000e4b2c       _SetProcessWindowStation@4 004e5b2c f   user32:USER32.dll
 0001:000e4b32       _OpenWindowStationA@12     004e5b32 f   user32:USER32.dll
 0001:000e4b38       _GetThreadDesktop@4        004e5b38 f   user32:USER32.dll
 0001:000e4b3e       _GetProcessWindowStation@0 004e5b3e f   user32:USER32.dll
 0001:000e4b44       _CharNextA@4               004e5b44 f   user32:USER32.dll
 0001:000e4b4a       _AdjustTokenPrivileges@24  004e5b4a f   advapi32:ADVAPI32.dll
 0001:000e4b50       _LookupPrivilegeValueA@12  004e5b50 f   advapi32:ADVAPI32.dll
 0001:000e4b56       _OpenProcessToken@12       004e5b56 f   advapi32:ADVAPI32.dll
 0001:000e4b5c       _RegCloseKey@4             004e5b5c f   advapi32:ADVAPI32.dll
 0001:000e4b62       _RegQueryValueExA@24       004e5b62 f   advapi32:ADVAPI32.dll
 0001:000e4b68       _RegOpenKeyExA@20          004e5b68 f   advapi32:ADVAPI32.dll
 0001:000e4b6e       _RegSetValueExA@24         004e5b6e f   advapi32:ADVAPI32.dll
 0001:000e4b74       _RegCreateKeyExA@36        004e5b74 f   advapi32:ADVAPI32.dll
 0001:000e4b7a       _DeregisterEventSource@4   004e5b7a f   advapi32:ADVAPI32.dll
 0001:000e4b80       _CloseServiceHandle@4      004e5b80 f   advapi32:ADVAPI32.dll
 0001:000e4b86       _OpenServiceA@12           004e5b86 f   advapi32:ADVAPI32.dll
 0001:000e4b8c       _OpenSCManagerA@12         004e5b8c f   advapi32:ADVAPI32.dll
 0001:000e4b92       _RegCreateKeyA@12          004e5b92 f   advapi32:ADVAPI32.dll
 0001:000e4b98       _CreateServiceA@52         004e5b98 f   advapi32:ADVAPI32.dll
 0001:000e4b9e       _DeleteService@4           004e5b9e f   advapi32:ADVAPI32.dll
 0001:000e4ba4       _QueryServiceStatus@8      004e5ba4 f   advapi32:ADVAPI32.dll
 0001:000e4baa       _ControlService@12         004e5baa f   advapi32:ADVAPI32.dll
 0001:000e4bb0       _ReportEventA@36           004e5bb0 f   advapi32:ADVAPI32.dll
 0001:000e4bb6       _RegisterEventSourceA@8    004e5bb6 f   advapi32:ADVAPI32.dll
 0001:000e4bbc       _StartServiceCtrlDispatcherA@4 004e5bbc f   advapi32:ADVAPI32.dll
 0001:000e4bc2       _RegisterServiceCtrlHandlerA@8 004e5bc2 f   advapi32:ADVAPI32.dll
 0001:000e4bc8       _SetServiceStatus@8        004e5bc8 f   advapi32:ADVAPI32.dll
 0001:000e4bce       _CoUninitialize@0          004e5bce f   ole32:ole32.dll
 0001:000e4bd4       _OleRun@4                  004e5bd4 f   ole32:ole32.dll
 0001:000e4bda       _CoCreateInstance@20       004e5bda f   ole32:ole32.dll
 0001:000e4be0       _CoInitialize@4            004e5be0 f   ole32:ole32.dll
 0001:000e4be6       _VariantClear@4            004e5be6 f   oleaut32:OLEAUT32.dll
 0001:000e4bec       _VariantCopy@8             004e5bec f   oleaut32:OLEAUT32.dll
 0001:000e4bf2       _SysAllocStringByteLen@8   004e5bf2 f   oleaut32:OLEAUT32.dll
 0001:000e4bf8       _SysStringByteLen@4        004e5bf8 f   oleaut32:OLEAUT32.dll
 0001:000e4bfe       _VariantChangeType@16      004e5bfe f   oleaut32:OLEAUT32.dll
 0001:000e4c04       _VariantInit@4             004e5c04 f   oleaut32:OLEAUT32.dll
 0001:000e4c0a       _SysFreeString@4           004e5c0a f   oleaut32:OLEAUT32.dll
 0001:000e4c10       _SysAllocString@4          004e5c10 f   oleaut32:OLEAUT32.dll
 0001:000e4c16       ??1_Lockit@std@@QAE@XZ     004e5c16 f   msvcprt:MSVCP60.dll
 0001:000e4c1c       ??0_Lockit@std@@QAE@XZ     004e5c1c f   msvcprt:MSVCP60.dll
 0001:000e4c22       ??0Init@ios_base@std@@QAE@XZ 004e5c22 f   msvcprt:MSVCP60.dll
 0001:000e4c28       ??1Init@ios_base@std@@QAE@XZ 004e5c28 f   msvcprt:MSVCP60.dll
 0001:000e4c2e       ??0_Winit@std@@QAE@XZ      004e5c2e f   msvcprt:MSVCP60.dll
 0001:000e4c34       ??1_Winit@std@@QAE@XZ      004e5c34 f   msvcprt:MSVCP60.dll
 0001:000e4c3a       ??2@YAPAXIABUnothrow_t@std@@@Z 004e5c3a f   msvcprt:newop2_s.obj
 0001:000e4c5e       ?good@ios_base@std@@QBE_NXZ 004e5c5e f   msvcprt:MSVCP60.dll
 0001:000e4c64       ?write@?$basic_ostream@DU?$char_traits@D@std@@@std@@QAEAAV12@PBDH@Z 004e5c64 f   msvcprt:MSVCP60.dll
 0001:000e4c6a       ?gcount@?$basic_istream@DU?$char_traits@D@std@@@std@@QBEHXZ 004e5c6a f   msvcprt:MSVCP60.dll
 0001:000e4c70       ?read@?$basic_istream@DU?$char_traits@D@std@@@std@@QAEAAV12@PADH@Z 004e5c70 f   msvcprt:MSVCP60.dll
 0001:000e4c76       ??6?$basic_ostream@DU?$char_traits@D@std@@@std@@QAEAAV01@P6AAAV01@AAV01@@Z@Z 004e5c76 f   msvcprt:MSVCP60.dll
 0001:000e4c7c       ??6?$basic_ostream@DU?$char_traits@D@std@@@std@@QAEAAV01@H@Z 004e5c7c f   msvcprt:MSVCP60.dll
 0001:000e4c82       ?endl@std@@YAAAV?$basic_ostream@DU?$char_traits@D@std@@@1@AAV21@@Z 004e5c82 f   msvcprt:MSVCP60.dll
 0001:000e4c88       ??6std@@YAAAV?$basic_ostream@DU?$char_traits@D@std@@@0@AAV10@PBD@Z 004e5c88 f   msvcprt:MSVCP60.dll
 0001:000e4c8e       ??1?$basic_string@DU?$char_traits@D@std@@V?$allocator@D@2@@std@@QAE@XZ 004e5c8e f   msvcprt:MSVCP60.dll
 0001:000e4c94       ?_Tidy@?$basic_string@DU?$char_traits@D@std@@V?$allocator@D@2@@std@@AAEX_N@Z 004e5c94 f   msvcprt:MSVCP60.dll
 0001:000e4c9a       ?assign@?$basic_string@DU?$char_traits@D@std@@V?$allocator@D@2@@std@@QAEAAV12@PBDI@Z 004e5c9a f   msvcprt:MSVCP60.dll
 0001:000e4ca0       ?_Grow@?$basic_string@DU?$char_traits@D@std@@V?$allocator@D@2@@std@@AAE_NI_N@Z 004e5ca0 f   msvcprt:MSVCP60.dll
 0001:000e4ca6       ??0runtime_error@std@@QAE@ABV01@@Z 004e5ca6 f   msvcprt:MSVCP60.dll
 0001:000e4cac       ??1runtime_error@std@@UAE@XZ 004e5cac f   msvcprt:MSVCP60.dll
 0001:000e4cb2       ?assign@?$basic_string@DU?$char_traits@D@std@@V?$allocator@D@2@@std@@QAEAAV12@ABV12@II@Z 004e5cb2 f   msvcprt:MSVCP60.dll
 0001:000e4cb8       ?_Eos@?$basic_string@DU?$char_traits@D@std@@V?$allocator@D@2@@std@@AAEXI@Z 004e5cb8 f   msvcprt:MSVCP60.dll
 0001:000e4cbe       ?_Copy@?$basic_string@DU?$char_traits@D@std@@V?$allocator@D@2@@std@@AAEXI@Z 004e5cbe f   msvcprt:MSVCP60.dll
 0001:000e4cc4       ?_Xlen@std@@YAXXZ          004e5cc4 f   msvcprt:MSVCP60.dll
 0001:000e4cca       ?max_size@?$basic_string@DU?$char_traits@D@std@@V?$allocator@D@2@@std@@QBEIXZ 004e5cca f   msvcprt:MSVCP60.dll
 0001:000e4cd0       ?_Refcnt@?$basic_string@DU?$char_traits@D@std@@V?$allocator@D@2@@std@@AAEAAEPBD@Z 004e5cd0 f   msvcprt:MSVCP60.dll
 0001:000e4cd6       ?assign@?$basic_string@DU?$char_traits@D@std@@V?$allocator@D@2@@std@@QAEAAV12@PBD0@Z 004e5cd6 f   msvcprt:MSVCP60.dll
 0001:000e4cdc       ?_Split@?$basic_string@DU?$char_traits@D@std@@V?$allocator@D@2@@std@@AAEXXZ 004e5cdc f   msvcprt:MSVCP60.dll
 0001:000e4ce2       ?_Xran@std@@YAXXZ          004e5ce2 f   msvcprt:MSVCP60.dll
 0001:000e4ce8       ?erase@?$basic_string@DU?$char_traits@D@std@@V?$allocator@D@2@@std@@QAEAAV12@II@Z 004e5ce8 f   msvcprt:MSVCP60.dll
 0001:000e4cee       ?getline@std@@YAAAV?$basic_istream@DU?$char_traits@D@std@@@1@AAV21@AAV?$basic_string@DU?$char_traits@D@std@@V?$allocator@D@2@@1@D@Z 004e5cee f   msvcprt:MSVCP60.dll
 0001:000e4cf4       ?end@?$basic_string@DU?$char_traits@D@std@@V?$allocator@D@2@@std@@QAEPADXZ 004e5cf4 f   msvcprt:MSVCP60.dll
 0001:000e4cfa       ?replace@?$basic_string@DU?$char_traits@D@std@@V?$allocator@D@2@@std@@QAEAAV12@PAD0PBD1@Z 004e5cfa f   msvcprt:MSVCP60.dll
 0001:000e4d00       ?_Freeze@?$basic_string@DU?$char_traits@D@std@@V?$allocator@D@2@@std@@AAEXXZ 004e5d00 f   msvcprt:MSVCP60.dll
 0001:000e4d06       ??Hstd@@YA?AV?$basic_string@DU?$char_traits@D@std@@V?$allocator@D@2@@0@ABV10@PBD@Z 004e5d06 f   msvcprt:MSVCP60.dll
 0001:000e4d0c       ??Hstd@@YA?AV?$basic_string@DU?$char_traits@D@std@@V?$allocator@D@2@@0@PBDABV10@@Z 004e5d0c f   msvcprt:MSVCP60.dll
 0001:000e4d12       ?append@?$basic_string@DU?$char_traits@D@std@@V?$allocator@D@2@@std@@QAEAAV12@ABV12@II@Z 004e5d12 f   msvcprt:MSVCP60.dll
 0001:000e4d18       ?append@?$basic_string@DU?$char_traits@D@std@@V?$allocator@D@2@@std@@QAEAAV12@ID@Z 004e5d18 f   msvcprt:MSVCP60.dll
 0001:000e4d1e       ??0?$basic_string@DU?$char_traits@D@std@@V?$allocator@D@2@@std@@QAE@ABV01@@Z 004e5d1e f   msvcprt:MSVCP60.dll
 0001:000e4d24       ??_D?$basic_ostringstream@DU?$char_traits@D@std@@V?$allocator@D@2@@std@@QAEXXZ 004e5d24 f   msvcprt:MSVCP60.dll
 0001:000e4d2a       ??1?$basic_ostream@DU?$char_traits@D@std@@@std@@UAE@XZ 004e5d2a f   msvcprt:MSVCP60.dll
 0001:000e4d30       ??1?$basic_ios@DU?$char_traits@D@std@@@std@@UAE@XZ 004e5d30 f   msvcprt:MSVCP60.dll
 0001:000e4d36       ??1?$basic_stringbuf@DU?$char_traits@D@std@@V?$allocator@D@2@@std@@UAE@XZ 004e5d36 f   msvcprt:MSVCP60.dll
 0001:000e4d3c       ?str@?$basic_ostringstream@DU?$char_traits@D@std@@V?$allocator@D@2@@std@@QBE?AV?$basic_string@DU?$char_traits@D@std@@V?$allocator@D@2@@2@XZ 004e5d3c f   msvcprt:MSVCP60.dll
 0001:000e4d42       ?setw@std@@YA?AU?$_Smanip@H@1@H@Z 004e5d42 f   msvcprt:MSVCP60.dll
 0001:000e4d48       ??0?$basic_stringbuf@DU?$char_traits@D@std@@V?$allocator@D@2@@std@@QAE@H@Z 004e5d48 f   msvcprt:MSVCP60.dll
 0001:000e4d4e       ??0?$basic_ostream@DU?$char_traits@D@std@@@std@@QAE@PAV?$basic_streambuf@DU?$char_traits@D@std@@@1@_N1@Z 004e5d4e f   msvcprt:MSVCP60.dll
 0001:000e4d54       ??0ios_base@std@@IAE@XZ    004e5d54 f   msvcprt:MSVCP60.dll
 0001:000e4d5a       ?append@?$basic_string@DU?$char_traits@D@std@@V?$allocator@D@2@@std@@QAEAAV12@PBDI@Z 004e5d5a f   msvcprt:MSVCP60.dll
 0001:000e4d60       ??6std@@YAAAV?$basic_ostream@DU?$char_traits@D@std@@@0@AAV10@ABV?$basic_string@DU?$char_traits@D@std@@V?$allocator@D@2@@0@@Z 004e5d60 f   msvcprt:MSVCP60.dll
 0001:000e4d66       ??6std@@YAAAV?$basic_ostream@DU?$char_traits@D@std@@@0@AAV10@D@Z 004e5d66 f   msvcprt:MSVCP60.dll
 0001:000e4d6c       _listen@8                  004e5d6c f   wsock32:WSOCK32.dll
 0001:000e4d72       _bind@12                   004e5d72 f   wsock32:WSOCK32.dll
 0001:000e4d78       _htons@4                   004e5d78 f   wsock32:WSOCK32.dll
 0001:000e4d7e       _htonl@4                   004e5d7e f   wsock32:WSOCK32.dll
 0001:000e4d84       _setsockopt@20             004e5d84 f   wsock32:WSOCK32.dll
 0001:000e4d8a       _WSAGetLastError@0         004e5d8a f   wsock32:WSOCK32.dll
 0001:000e4d90       _socket@12                 004e5d90 f   wsock32:WSOCK32.dll
 0001:000e4d96       _WSAStartup@8              004e5d96 f   wsock32:WSOCK32.dll
 0001:000e4d9c       _recv@16                   004e5d9c f   wsock32:WSOCK32.dll
 0001:000e4da2       ___WSAFDIsSet@8            004e5da2 f   wsock32:WSOCK32.dll
 0001:000e4da8       _select@20                 004e5da8 f   wsock32:WSOCK32.dll
 0001:000e4dae       _ntohs@4                   004e5dae f   wsock32:WSOCK32.dll
 0001:000e4db4       _ntohl@4                   004e5db4 f   wsock32:WSOCK32.dll
 0001:000e4dba       _ioctlsocket@12            004e5dba f   wsock32:WSOCK32.dll
 0001:000e4dc0       _closesocket@4             004e5dc0 f   wsock32:WSOCK32.dll
 0001:000e4dc6       _WSACleanup@0              004e5dc6 f   wsock32:WSOCK32.dll
 0001:000e4dcc       _send@16                   004e5dcc f   wsock32:WSOCK32.dll
 0001:000e4dd2       _sendto@24                 004e5dd2 f   wsock32:WSOCK32.dll
 0001:000e4dd8       _recvfrom@24               004e5dd8 f   wsock32:WSOCK32.dll
 0001:000e4dde       _gethostbyname@4           004e5dde f   wsock32:WSOCK32.dll
 0001:000e4de4       _inet_addr@4               004e5de4 f   wsock32:WSOCK32.dll
 0001:000e4dea       _getsockopt@20             004e5dea f   wsock32:WSOCK32.dll
 0001:000e4df0       _connect@12                004e5df0 f   wsock32:WSOCK32.dll
 0001:000e4df6       _accept@12                 004e5df6 f   wsock32:WSOCK32.dll
 0001:000e4dfc       _shutdown@8                004e5dfc f   wsock32:WSOCK32.dll
 0001:000e4e02       _WSASetLastError@4         004e5e02 f   wsock32:WSOCK32.dll
 0001:000e4e08       _inet_ntoa@4               004e5e08 f   wsock32:WSOCK32.dll
 0001:000e4e0e       _getpeername@12            004e5e0e f   wsock32:WSOCK32.dll
 0001:000e4e14       _getsockname@12            004e5e14 f   wsock32:WSOCK32.dll
 0001:000e4e1a       _getservbyname@8           004e5e1a f   wsock32:WSOCK32.dll
 0001:000e4e20       _gethostbyaddr@12          004e5e20 f   wsock32:WSOCK32.dll
 0001:000e4e26       _getservbyport@8           004e5e26 f   wsock32:WSOCK32.dll
 0001:000e4e2c       _WSAEventSelect@12         004e5e2c f   Ws2_32:WS2_32.dll
 0001:000e4e32       _WSAIoctl@36               004e5e32 f   Ws2_32:WS2_32.dll
 0001:000e4e38       _WSARecv@28                004e5e38 f   Ws2_32:WS2_32.dll
 0001:000e4e3e       _WSASend@28                004e5e3e f   Ws2_32:WS2_32.dll
 0001:000e4e44       _WSAEnumNetworkEvents@12   004e5e44 f   Ws2_32:WS2_32.dll
 0001:000e4e4a       _WSAWaitForMultipleEvents@20 004e5e4a f   Ws2_32:WS2_32.dll
 0001:000e4e50       _WSAGetOverlappedResult@20 004e5e50 f   Ws2_32:WS2_32.dll
 0001:000e4e56       _UuidCreate@4              004e5e56 f   Rpcrt4:RPCRT4.dll
 0001:000e4e5c       _GetAdaptersInfo@8         004e5e5c f   Iphlpapi:iphlpapi.dll
 0001:000e4ea0       ?ConvertStringToBSTR@_com_util@@YGPAGPBD@Z 004e5ea0 f   comsupp:comutil.obj
 0001:000e4f15       ?ConvertBSTRToString@_com_util@@YGPADPAG@Z 004e5f15 f   comsupp:comutil.obj
 0001:000e4f89       ??0_variant_t@@QAE@JG@Z    004e5f89 f i comsupp:comutil.obj
 0001:000e4fe5       ?_com_issue_error@@YGXJ@Z  004e5fe5 f   comsupp:comsupp.obj
 0001:000e4ff3       ?_com_issue_errorex@@YGXJPAUIUnknown@@ABU_GUID@@@Z 004e5ff3 f   comsupp:comsupp.obj
 0001:000e5054       ?_com_dispatch_raw_method@@YAJPAUIDispatch@@JGGPAXPBGZZ 004e6054 f   comsupp:comsupp.obj
 0001:000e5575       ?_com_dispatch_method@@YAJPAUIDispatch@@JGGPAXPBGZZ 004e6575 f   comsupp:comsupp.obj
 0001:000e55af       ?_com_dispatch_raw_propget@@YGJPAUIDispatch@@JGPAX@Z 004e65af f   comsupp:comsupp.obj
 0001:000e55ce       ?_com_dispatch_propget@@YGJPAUIDispatch@@JGPAX@Z 004e65ce f   comsupp:comsupp.obj
 0001:000e55ed       ?_com_dispatch_raw_propput@@YAJPAUIDispatch@@JGZZ 004e65ed f   comsupp:comsupp.obj
 0001:000e5646       ?_com_dispatch_propput@@YAJPAUIDispatch@@JGZZ 004e6646 f   comsupp:comsupp.obj
 0001:000e569d       ?_com_raise_error@@YGXJPAUIErrorInfo@@@Z 004e669d f   comsupp:comraise.obj
 0001:000e56c1       ??0_com_error@@QAE@JPAUIErrorInfo@@_N@Z 004e66c1 f i comsupp:comraise.obj
 0001:000e56f3       ??_G_com_error@@UAEPAXI@Z  004e66f3 f i comsupp:comraise.obj
 0001:000e56f3       ??_E_com_error@@UAEPAXI@Z  004e66f3 f i comsupp:comraise.obj
 0001:000e570f       ??0_com_error@@QAE@ABV0@@Z 004e670f f i comsupp:comraise.obj
 0001:000e573c       ??1_com_error@@UAE@XZ      004e673c f i comsupp:comraise.obj
 0001:000e5762       _deflateEnd                004e6762 f   zdll:zlib1.dll
 0001:000e5768       _deflate                   004e6768 f   zdll:zlib1.dll
 0001:000e576e       _deflateInit_              004e676e f   zdll:zlib1.dll
 0001:000e5774       _inflateEnd                004e6774 f   zdll:zlib1.dll
 0001:000e577a       _inflate                   004e677a f   zdll:zlib1.dll
 0001:000e5780       _inflateInit_              004e6780 f   zdll:zlib1.dll
 0001:000e5790       _MiniDumpWriteDump@28      004e6790 f   dbghelp:dbghelp.dll
 0001:000e5796       _GetProcessMemoryInfo@12   004e6796 f   psapi:PSAPI.DLL
 0001:000e579c       _GetModuleFileNameExA@16   004e679c f   psapi:PSAPI.DLL
 0001:000e57a2       _EnumProcessModules@16     004e67a2 f   psapi:PSAPI.DLL
 0001:000e57a8       _EnumProcesses@12          004e67a8 f   psapi:PSAPI.DLL
 0001:000e57b0       ?CRC32ThreadProc@CCRC_32@@CGKPAX@Z 004e67b0 f   uwl:uwlcrc32.obj
 0001:000e59f0       ??0CCRC_32@@QAE@XZ         004e69f0 f   uwl:uwlcrc32.obj
 0001:000e5a50       ?Reflect@CCRC_32@@AAEKKD@Z 004e6a50 f   uwl:uwlcrc32.obj
 0001:000e5a90       ?Calculate@CCRC_32@@AAEXQAEIAAK@Z 004e6a90 f   uwl:uwlcrc32.obj
 0001:000e5ae0       ?CalcCRC@CCRC_32@@QAEKPAXIPAUHWND__@@@Z 004e6ae0 f   uwl:uwlcrc32.obj
 0001:000e5bd0       ?CalcCRC@CCRC_32@@QAEKPBDPAUHWND__@@@Z 004e6bd0 f   uwl:uwlcrc32.obj
 0001:000e5d10       __callnewh                 004e6d10 f   msvcrt:MSVCRT.dll
 0001:000e5d16       __strcmpi                  004e6d16 f   msvcrt:MSVCRT.dll
 0001:000e5d1c       __close                    004e6d1c f   msvcrt:MSVCRT.dll
 0001:000e5d22       __lseeki64                 004e6d22 f   msvcrt:MSVCRT.dll
 0001:000e5d28       __sopen                    004e6d28 f   msvcrt:MSVCRT.dll
 0001:000e5d2e       __mbsnbcpy                 004e6d2e f   msvcrt:MSVCRT.dll
 0001:000e5d34       _lstrlenW@4                004e6d34 f   kernel32:KERNEL32.dll
 0001:000e5d3a       _ResumeThread@4            004e6d3a f   kernel32:KERNEL32.dll
 0001:000e5d40       _CreateThread@24           004e6d40 f   kernel32:KERNEL32.dll
 0001:000e5d46       _GetFileAttributesA@4      004e6d46 f   kernel32:KERNEL32.dll
 0001:000e5d4c       _GetParent@4               004e6d4c f   user32:USER32.dll
 0001:000e5d52       _GetErrorInfo@8            004e6d52 f   oleaut32:OLEAUT32.dll
 0001:000e5d58       _SetErrorInfo@8            004e6d58 f   oleaut32:OLEAUT32.dll
 0001:000e5d5e       _CreateErrorInfo@4         004e6d5e f   oleaut32:OLEAUT32.dll
 0001:000e5d70       ?data@CPlex@@QAEPAXXZ      004e6d70 f i Server.obj
 0002:00000000       __imp__RegisterServiceCtrlHandlerA@8 004ee000     advapi32:ADVAPI32.dll
 0002:00000004       __imp__StartServiceCtrlDispatcherA@4 004ee004     advapi32:ADVAPI32.dll
 0002:00000008       __imp__RegisterEventSourceA@8 004ee008     advapi32:ADVAPI32.dll
 0002:0000000c       __imp__ReportEventA@36     004ee00c     advapi32:ADVAPI32.dll
 0002:00000010       __imp__ControlService@12   004ee010     advapi32:ADVAPI32.dll
 0002:00000014       __imp__QueryServiceStatus@8 004ee014     advapi32:ADVAPI32.dll
 0002:00000018       __imp__DeleteService@4     004ee018     advapi32:ADVAPI32.dll
 0002:0000001c       __imp__CreateServiceA@52   004ee01c     advapi32:ADVAPI32.dll
 0002:00000020       __imp__RegCreateKeyA@12    004ee020     advapi32:ADVAPI32.dll
 0002:00000024       __imp__OpenSCManagerA@12   004ee024     advapi32:ADVAPI32.dll
 0002:00000028       __imp__OpenServiceA@12     004ee028     advapi32:ADVAPI32.dll
 0002:0000002c       __imp__CloseServiceHandle@4 004ee02c     advapi32:ADVAPI32.dll
 0002:00000030       __imp__DeregisterEventSource@4 004ee030     advapi32:ADVAPI32.dll
 0002:00000034       __imp__RegCreateKeyExA@36  004ee034     advapi32:ADVAPI32.dll
 0002:00000038       __imp__RegSetValueExA@24   004ee038     advapi32:ADVAPI32.dll
 0002:0000003c       __imp__RegOpenKeyExA@20    004ee03c     advapi32:ADVAPI32.dll
 0002:00000040       __imp__RegQueryValueExA@24 004ee040     advapi32:ADVAPI32.dll
 0002:00000044       __imp__RegCloseKey@4       004ee044     advapi32:ADVAPI32.dll
 0002:00000048       __imp__OpenProcessToken@12 004ee048     advapi32:ADVAPI32.dll
 0002:0000004c       __imp__LookupPrivilegeValueA@12 004ee04c     advapi32:ADVAPI32.dll
 0002:00000050       __imp__AdjustTokenPrivileges@24 004ee050     advapi32:ADVAPI32.dll
 0002:00000054       __imp__SetServiceStatus@8  004ee054     advapi32:ADVAPI32.dll
 0002:00000058       \177ADVAPI32_NULL_THUNK_DATA 004ee058     advapi32:ADVAPI32.dll
 0002:0000005c       __imp__GetLocalTime@4      004ee05c     kernel32:KERNEL32.dll
 0002:00000060       __imp__GetCurrentProcess@0 004ee060     kernel32:KERNEL32.dll
 0002:00000064       __imp__GetCurrentProcessId@0 004ee064     kernel32:KERNEL32.dll
 0002:00000068       __imp__CreateFileA@28      004ee068     kernel32:KERNEL32.dll
 0002:0000006c       __imp__GetUserDefaultLangID@0 004ee06c     kernel32:KERNEL32.dll
 0002:00000070       __imp__SetUnhandledExceptionFilter@4 004ee070     kernel32:KERNEL32.dll
 0002:00000074       __imp__SetLastError@4      004ee074     kernel32:KERNEL32.dll
 0002:00000078       __imp__InterlockedDecrement@4 004ee078     kernel32:KERNEL32.dll
 0002:0000007c       __imp__InterlockedIncrement@4 004ee07c     kernel32:KERNEL32.dll
 0002:00000080       __imp__lstrcpynA@12        004ee080     kernel32:KERNEL32.dll
 0002:00000084       __imp__WritePrivateProfileStringA@16 004ee084     kernel32:KERNEL32.dll
 0002:00000088       __imp__GetExitCodeThread@8 004ee088     kernel32:KERNEL32.dll
 0002:0000008c       __imp__GetCommandLineA@0   004ee08c     kernel32:KERNEL32.dll
 0002:00000090       __imp__CreateEventA@16     004ee090     kernel32:KERNEL32.dll
 0002:00000094       __imp__GlobalMemoryStatus@4 004ee094     kernel32:KERNEL32.dll
 0002:00000098       __imp__OpenProcess@12      004ee098     kernel32:KERNEL32.dll
 0002:0000009c       __imp__Sleep@4             004ee09c     kernel32:KERNEL32.dll
 0002:000000a0       __imp__GetProcessTimes@20  004ee0a0     kernel32:KERNEL32.dll
 0002:000000a4       __imp__GetSystemTimeAsFileTime@4 004ee0a4     kernel32:KERNEL32.dll
 0002:000000a8       __imp__Process32Next@8     004ee0a8     kernel32:KERNEL32.dll
 0002:000000ac       __imp__Process32First@8    004ee0ac     kernel32:KERNEL32.dll
 0002:000000b0       __imp__CreateToolhelp32Snapshot@8 004ee0b0     kernel32:KERNEL32.dll
 0002:000000b4       __imp__GetSystemDirectoryA@8 004ee0b4     kernel32:KERNEL32.dll
 0002:000000b8       __imp__FindFirstFileA@8    004ee0b8     kernel32:KERNEL32.dll
 0002:000000bc       __imp__CreateDirectoryA@8  004ee0bc     kernel32:KERNEL32.dll
 0002:000000c0       __imp__LocalFree@4         004ee0c0     kernel32:KERNEL32.dll
 0002:000000c4       __imp__GetVolumeInformationA@32 004ee0c4     kernel32:KERNEL32.dll
 0002:000000c8       __imp__GetDriveTypeA@4     004ee0c8     kernel32:KERNEL32.dll
 0002:000000cc       __imp__GetLogicalDriveStringsA@8 004ee0cc     kernel32:KERNEL32.dll
 0002:000000d0       __imp__FreeLibrary@4       004ee0d0     kernel32:KERNEL32.dll
 0002:000000d4       __imp__GetProcAddress@8    004ee0d4     kernel32:KERNEL32.dll
 0002:000000d8       __imp__LoadLibraryA@4      004ee0d8     kernel32:KERNEL32.dll
 0002:000000dc       __imp__GetVersionExA@4     004ee0dc     kernel32:KERNEL32.dll
 0002:000000e0       __imp__CreateSemaphoreA@16 004ee0e0     kernel32:KERNEL32.dll
 0002:000000e4       __imp__ReleaseSemaphore@12 004ee0e4     kernel32:KERNEL32.dll
 0002:000000e8       __imp__InterlockedExchange@8 004ee0e8     kernel32:KERNEL32.dll
 0002:000000ec       __imp__GetPrivateProfileSectionA@16 004ee0ec     kernel32:KERNEL32.dll
 0002:000000f0       __imp__DeviceIoControl@32  004ee0f0     kernel32:KERNEL32.dll
 0002:000000f4       __imp__CreateIoCompletionPort@16 004ee0f4     kernel32:KERNEL32.dll
 0002:000000f8       __imp__PostQueuedCompletionStatus@16 004ee0f8     kernel32:KERNEL32.dll
 0002:000000fc       __imp__GetQueuedCompletionStatus@20 004ee0fc     kernel32:KERNEL32.dll
 0002:00000100       __imp__ResetEvent@4        004ee100     kernel32:KERNEL32.dll
 0002:00000104       __imp__lstrcmpA@8          004ee104     kernel32:KERNEL32.dll
 0002:00000108       __imp__InterlockedExchangeAdd@8 004ee108     kernel32:KERNEL32.dll
 0002:0000010c       __imp__WaitForMultipleObjects@16 004ee10c     kernel32:KERNEL32.dll
 0002:00000110       __imp__lstrcatA@8          004ee110     kernel32:KERNEL32.dll
 0002:00000114       __imp__GetCurrentThreadId@0 004ee114     kernel32:KERNEL32.dll
 0002:00000118       __imp__lstrlenA@4          004ee118     kernel32:KERNEL32.dll
 0002:0000011c       __imp__GetModuleHandleA@4  004ee11c     kernel32:KERNEL32.dll
 0002:00000120       __imp__SetEvent@4          004ee120     kernel32:KERNEL32.dll
 0002:00000124       __imp__WaitForSingleObject@8 004ee124     kernel32:KERNEL32.dll
 0002:00000128       __imp__CloseHandle@4       004ee128     kernel32:KERNEL32.dll
 0002:0000012c       __imp__lstrcmpiA@8         004ee12c     kernel32:KERNEL32.dll
 0002:00000130       __imp__lstrcpyA@8          004ee130     kernel32:KERNEL32.dll
 0002:00000134       __imp__GetLastError@0      004ee134     kernel32:KERNEL32.dll
 0002:00000138       __imp__FormatMessageA@28   004ee138     kernel32:KERNEL32.dll
 0002:0000013c       __imp__WideCharToMultiByte@32 004ee13c     kernel32:KERNEL32.dll
 0002:00000140       __imp__GetTickCount@0      004ee140     kernel32:KERNEL32.dll
 0002:00000144       __imp__GetPrivateProfileIntA@16 004ee144     kernel32:KERNEL32.dll
 0002:00000148       __imp__GetModuleFileNameA@12 004ee148     kernel32:KERNEL32.dll
 0002:0000014c       __imp__GetPrivateProfileStringA@24 004ee14c     kernel32:KERNEL32.dll
 0002:00000150       __imp__InitializeCriticalSection@4 004ee150     kernel32:KERNEL32.dll
 0002:00000154       __imp__DeleteCriticalSection@4 004ee154     kernel32:KERNEL32.dll
 0002:00000158       __imp__EnterCriticalSection@4 004ee158     kernel32:KERNEL32.dll
 0002:0000015c       __imp__LeaveCriticalSection@4 004ee15c     kernel32:KERNEL32.dll
 0002:00000160       __imp__GetACP@0            004ee160     kernel32:KERNEL32.dll
 0002:00000164       __imp__FindClose@4         004ee164     kernel32:KERNEL32.dll
 0002:00000168       __imp__GetSystemInfo@4     004ee168     kernel32:KERNEL32.dll
 0002:0000016c       __imp__lstrlenW@4          004ee16c     kernel32:KERNEL32.dll
 0002:00000170       __imp__ResumeThread@4      004ee170     kernel32:KERNEL32.dll
 0002:00000174       __imp__GetFileAttributesA@4 004ee174     kernel32:KERNEL32.dll
 0002:00000178       __imp__CreateThread@24     004ee178     kernel32:KERNEL32.dll
 0002:0000017c       __imp__MultiByteToWideChar@24 004ee17c     kernel32:KERNEL32.dll
 0002:00000180       \177KERNEL32_NULL_THUNK_DATA 004ee180     kernel32:KERNEL32.dll
 0002:00000184       __imp_?AddHead@CPtrList@@QAEPAU__POSITION@@PAX@Z 004ee184     mfc42:MFC42.DLL
 0002:00000188       __imp_?AddTail@CStringList@@QAEPAU__POSITION@@ABVCString@@@Z 004ee188     mfc42:MFC42.DLL
 0002:0000018c       __imp_?RemoveAll@CStringList@@QAEXXZ 004ee18c     mfc42:MFC42.DLL
 0002:00000190       __imp_??0CStringList@@QAE@H@Z 004ee190     mfc42:MFC42.DLL
 0002:00000194       __imp_??1CStringList@@UAE@XZ 004ee194     mfc42:MFC42.DLL
 0002:00000198       __imp_?SetSize@CByteArray@@QAEXHH@Z 004ee198     mfc42:MFC42.DLL
 0002:0000019c       __imp_??0CByteArray@@QAE@XZ 004ee19c     mfc42:MFC42.DLL
 0002:000001a0       __imp_??1CByteArray@@UAE@XZ 004ee1a0     mfc42:MFC42.DLL
 0002:000001a4       __imp_??0CFile@@QAE@XZ     004ee1a4     mfc42:MFC42.DLL
 0002:000001a8       __imp_?Open@CFile@@UAEHPBDIPAVCFileException@@@Z 004ee1a8     mfc42:MFC42.DLL
 0002:000001ac       __imp_??1CFile@@UAE@XZ     004ee1ac     mfc42:MFC42.DLL
 0002:000001b0       __imp_?Read@CFile@@UAEIPAXI@Z 004ee1b0     mfc42:MFC42.DLL
 0002:000001b4       __imp_?Write@CFile@@UAEXPBXI@Z 004ee1b4     mfc42:MFC42.DLL
 0002:000001b8       __imp_?Close@CFile@@UAEXXZ 004ee1b8     mfc42:MFC42.DLL
 0002:000001bc       __imp_??0CStringArray@@QAE@XZ 004ee1bc     mfc42:MFC42.DLL
 0002:000001c0       __imp_??1CStringArray@@UAE@XZ 004ee1c0     mfc42:MFC42.DLL
 0002:000001c4       __imp_?MakeUpper@CString@@QAEXXZ 004ee1c4     mfc42:MFC42.DLL
 0002:000001c8       __imp_?MakeLower@CString@@QAEXXZ 004ee1c8     mfc42:MFC42.DLL
 0002:000001cc       __imp_??H@YG?AVCString@@ABV0@D@Z 004ee1cc     mfc42:MFC42.DLL
 0002:000001d0       __imp_?TrimLeft@CString@@QAEXPBD@Z 004ee1d0     mfc42:MFC42.DLL
 0002:000001d4       __imp_?TrimRight@CString@@QAEXPBD@Z 004ee1d4     mfc42:MFC42.DLL
 0002:000001d8       __imp_?Replace@CString@@QAEHPBD0@Z 004ee1d8     mfc42:MFC42.DLL
 0002:000001dc       __imp_??0CString@@QAE@DH@Z 004ee1dc     mfc42:MFC42.DLL
 0002:000001e0       __imp_??0CTime@@QAE@HHHHHHH@Z 004ee1e0     mfc42:MFC42.DLL
 0002:000001e4       __imp_?Find@CPtrList@@QBEPAU__POSITION@@PAXPAU2@@Z 004ee1e4     mfc42:MFC42.DLL
 0002:000001e8       __imp_?RemoveAt@CPtrList@@QAEXPAU__POSITION@@@Z 004ee1e8     mfc42:MFC42.DLL
 0002:000001ec       __imp_?RemoveHead@CPtrList@@QAEPAXXZ 004ee1ec     mfc42:MFC42.DLL
 0002:000001f0       __imp_?AddTail@CPtrList@@QAEPAU__POSITION@@PAX@Z 004ee1f0     mfc42:MFC42.DLL
 0002:000001f4       __imp_?RemoveTail@CPtrList@@QAEPAXXZ 004ee1f4     mfc42:MFC42.DLL
 0002:000001f8       __imp_??0CPtrList@@QAE@H@Z 004ee1f8     mfc42:MFC42.DLL
 0002:000001fc       __imp_??1CPtrList@@UAE@XZ  004ee1fc     mfc42:MFC42.DLL
 0002:00000200       __imp_?SetAtGrow@CStringArray@@QAEXHPBD@Z 004ee200     mfc42:MFC42.DLL
 0002:00000204       __imp_?SerializeElements@@YGXAAVCArchive@@PAVCString@@H@Z 004ee204     mfc42:MFC42.DLL
 0002:00000208       __imp_?ConstructElements@@YGXPAVCString@@H@Z 004ee208     mfc42:MFC42.DLL
 0002:0000020c       __imp_?Right@CString@@QBE?AV1@H@Z 004ee20c     mfc42:MFC42.DLL
 0002:00000210       __imp_?AfxIsValidString@@YGHPBDH@Z 004ee210     mfc42:MFC42.DLL
 0002:00000214       __imp_?Find@CString@@QBEHPBDH@Z 004ee214     mfc42:MFC42.DLL
 0002:00000218       __imp_?SetAtGrow@CDWordArray@@QAEXHK@Z 004ee218     mfc42:MFC42.DLL
 0002:0000021c       __imp_??0CDWordArray@@QAE@XZ 004ee21c     mfc42:MFC42.DLL
 0002:00000220       __imp_??1CDWordArray@@UAE@XZ 004ee220     mfc42:MFC42.DLL
 0002:00000224       __imp_?HashKey@@YGIPBD@Z   004ee224     mfc42:MFC42.DLL
 0002:00000228       __imp_?DestructElements@@YGXPAVCString@@H@Z 004ee228     mfc42:MFC42.DLL
 0002:0000022c       __imp_?AfxFreeLibrary@@YGHPAUHINSTANCE__@@@Z 004ee22c     mfc42:MFC42.DLL
 0002:00000230       __imp_?AfxWinInit@@YGHPAUHINSTANCE__@@0PADH@Z 004ee230     mfc42:MFC42.DLL
 0002:00000234       __imp_?AfxGetModuleState@@YGPAVAFX_MODULE_STATE@@XZ 004ee234     mfc42:MFC42.DLL
 0002:00000238       __imp_?AfxSocketInit@@YGHPAUWSAData@@@Z 004ee238     mfc42:MFC42.DLL
 0002:0000023c       __imp_?AfxLoadLibrary@@YGPAUHINSTANCE__@@PBD@Z 004ee23c     mfc42:MFC42.DLL
 0002:00000240       __imp_??1CWinApp@@UAE@XZ   004ee240     mfc42:MFC42.DLL
 0002:00000244       __imp_??0CWinApp@@QAE@PBD@Z 004ee244     mfc42:MFC42.DLL
 0002:00000248       __imp_?Create@CPlex@@SGPAU1@AAPAU1@II@Z 004ee248     mfc42:MFC42.DLL
 0002:0000024c       __imp_?FreeDataChain@CPlex@@QAEXXZ 004ee24c     mfc42:MFC42.DLL
 0002:00000250       __imp_??0CString@@QAE@PBD@Z 004ee250     mfc42:MFC42.DLL
 0002:00000254       __imp_?Write@CArchive@@QAEXPBXI@Z 004ee254     mfc42:MFC42.DLL
 0002:00000258       __imp_?Read@CArchive@@QAEIPAXI@Z 004ee258     mfc42:MFC42.DLL
 0002:0000025c       __imp_?WriteCount@CArchive@@QAEXK@Z 004ee25c     mfc42:MFC42.DLL
 0002:00000260       __imp_?ReadCount@CArchive@@QAEKXZ 004ee260     mfc42:MFC42.DLL
 0002:00000264       __imp_?GetRuntimeClass@CObject@@UBEPAUCRuntimeClass@@XZ 004ee264     mfc42:MFC42.DLL
 0002:00000268       __imp_?ReverseFind@CString@@QBEHD@Z 004ee268     mfc42:MFC42.DLL
 0002:0000026c       __imp_?Left@CString@@QBE?AV1@H@Z 004ee26c     mfc42:MFC42.DLL
 0002:00000270       __imp_??H@YG?AVCString@@PBDABV0@@Z 004ee270     mfc42:MFC42.DLL
 0002:00000274       __imp_??H@YG?AVCString@@ABV0@PBD@Z 004ee274     mfc42:MFC42.DLL
 0002:00000278       __imp_??H@YG?AVCString@@ABV0@0@Z 004ee278     mfc42:MFC42.DLL
 0002:0000027c       __imp_?Empty@CString@@QAEXXZ 004ee27c     mfc42:MFC42.DLL
 0002:00000280       __imp_?Mid@CString@@QBE?AV1@HH@Z 004ee280     mfc42:MFC42.DLL
 0002:00000284       __imp_??0CString@@QAE@PBDH@Z 004ee284     mfc42:MFC42.DLL
 0002:00000288       __imp_?GetBuffer@CString@@QAEPADH@Z 004ee288     mfc42:MFC42.DLL
 0002:0000028c       __imp_?ReleaseBuffer@CString@@QAEXH@Z 004ee28c     mfc42:MFC42.DLL
 0002:00000290       __imp_?GetLocalTm@CTime@@QBEPAUtm@@PAU2@@Z 004ee290     mfc42:MFC42.DLL
 0002:00000294       __imp_??YCString@@QAEABV0@D@Z 004ee294     mfc42:MFC42.DLL
 0002:00000298       __imp_?Remove@CString@@QAEHD@Z 004ee298     mfc42:MFC42.DLL
 0002:0000029c       __imp_?TrimLeft@CString@@QAEXXZ 004ee29c     mfc42:MFC42.DLL
 0002:000002a0       __imp_?TrimRight@CString@@QAEXXZ 004ee2a0     mfc42:MFC42.DLL
 0002:000002a4       __imp_??YCString@@QAEABV0@ABV0@@Z 004ee2a4     mfc42:MFC42.DLL
 0002:000002a8       __imp_??YCString@@QAEABV0@PBD@Z 004ee2a8     mfc42:MFC42.DLL
 0002:000002ac       __imp_?GetTickCount@CTime@@SG?AV1@XZ 004ee2ac     mfc42:MFC42.DLL
 0002:000002b0       __imp_??0CString@@QAE@ABV0@@Z 004ee2b0     mfc42:MFC42.DLL
 0002:000002b4       __imp_??0CFileFind@@QAE@XZ 004ee2b4     mfc42:MFC42.DLL
 0002:000002b8       __imp_?FindFile@CFileFind@@UAEHPBDK@Z 004ee2b8     mfc42:MFC42.DLL
 0002:000002bc       __imp_??1CFileFind@@UAE@XZ 004ee2bc     mfc42:MFC42.DLL
 0002:000002c0       __imp_?ReadString@CStdioFile@@UAEHAAVCString@@@Z 004ee2c0     mfc42:MFC42.DLL
 0002:000002c4       __imp_??0CStdioFile@@QAE@XZ 004ee2c4     mfc42:MFC42.DLL
 0002:000002c8       __imp_?Open@CStdioFile@@UAEHPBDIPAVCFileException@@@Z 004ee2c8     mfc42:MFC42.DLL
 0002:000002cc       __imp_?WriteString@CStdioFile@@UAEXPBD@Z 004ee2cc     mfc42:MFC42.DLL
 0002:000002d0       __imp_?Format@CString@@QAAXPBDZZ 004ee2d0     mfc42:MFC42.DLL
 0002:000002d4       __imp_?Close@CStdioFile@@UAEXXZ 004ee2d4     mfc42:MFC42.DLL
 0002:000002d8       __imp_??1CStdioFile@@UAE@XZ 004ee2d8     mfc42:MFC42.DLL
 0002:000002dc       __imp_?Delete@CException@@QAEXXZ 004ee2dc     mfc42:MFC42.DLL
 0002:000002e0       __imp_??4CString@@QAEABV0@ABV0@@Z 004ee2e0     mfc42:MFC42.DLL
 0002:000002e4       __imp_??4CString@@QAEABV0@PBD@Z 004ee2e4     mfc42:MFC42.DLL
 0002:000002e8       __imp_??0CString@@QAE@XZ   004ee2e8     mfc42:MFC42.DLL
 0002:000002ec       __imp_??2@YAPAXI@Z         004ee2ec     mfc42:MFC42.DLL
 0002:000002f0       __imp_??3@YAXPAX@Z         004ee2f0     mfc42:MFC42.DLL
 0002:000002f4       __imp_??1CString@@QAE@XZ   004ee2f4     mfc42:MFC42.DLL
 0002:000002f8       \177MFC42_NULL_THUNK_DATA  004ee2f8     mfc42:MFC42.DLL
 0002:000002fc       __imp_??1_Winit@std@@QAE@XZ 004ee2fc     msvcprt:MSVCP60.dll
 0002:00000300       __imp_?_Refcnt@?$basic_string@DU?$char_traits@D@std@@V?$allocator@D@2@@std@@AAEAAEPBD@Z 004ee300     msvcprt:MSVCP60.dll
 0002:00000304       __imp_?max_size@?$basic_string@DU?$char_traits@D@std@@V?$allocator@D@2@@std@@QBEIXZ 004ee304     msvcprt:MSVCP60.dll
 0002:00000308       __imp_?_Xlen@std@@YAXXZ    004ee308     msvcprt:MSVCP60.dll
 0002:0000030c       __imp_?_Copy@?$basic_string@DU?$char_traits@D@std@@V?$allocator@D@2@@std@@AAEXI@Z 004ee30c     msvcprt:MSVCP60.dll
 0002:00000310       __imp_?_Eos@?$basic_string@DU?$char_traits@D@std@@V?$allocator@D@2@@std@@AAEXI@Z 004ee310     msvcprt:MSVCP60.dll
 0002:00000314       __imp_?_C@?1??_Nullstr@?$basic_string@DU?$char_traits@D@std@@V?$allocator@D@2@@std@@CAPBDXZ@4DB 004ee314     msvcprt:MSVCP60.dll
 0002:00000318       __imp_?npos@?$basic_string@DU?$char_traits@D@std@@V?$allocator@D@2@@std@@2IB 004ee318     msvcprt:MSVCP60.dll
 0002:0000031c       __imp_?assign@?$basic_string@DU?$char_traits@D@std@@V?$allocator@D@2@@std@@QAEAAV12@ABV12@II@Z 004ee31c     msvcprt:MSVCP60.dll
 0002:00000320       __imp_??_7runtime_error@std@@6B@ 004ee320     msvcprt:MSVCP60.dll
 0002:00000324       __imp_??1runtime_error@std@@UAE@XZ 004ee324     msvcprt:MSVCP60.dll
 0002:00000328       __imp_??0runtime_error@std@@QAE@ABV01@@Z 004ee328     msvcprt:MSVCP60.dll
 0002:0000032c       __imp_?_Grow@?$basic_string@DU?$char_traits@D@std@@V?$allocator@D@2@@std@@AAE_NI_N@Z 004ee32c     msvcprt:MSVCP60.dll
 0002:00000330       __imp_?assign@?$basic_string@DU?$char_traits@D@std@@V?$allocator@D@2@@std@@QAEAAV12@PBDI@Z 004ee330     msvcprt:MSVCP60.dll
 0002:00000334       __imp_?_Tidy@?$basic_string@DU?$char_traits@D@std@@V?$allocator@D@2@@std@@AAEX_N@Z 004ee334     msvcprt:MSVCP60.dll
 0002:00000338       __imp_??1?$basic_string@DU?$char_traits@D@std@@V?$allocator@D@2@@std@@QAE@XZ 004ee338     msvcprt:MSVCP60.dll
 0002:0000033c       __imp_??6std@@YAAAV?$basic_ostream@DU?$char_traits@D@std@@@0@AAV10@PBD@Z 004ee33c     msvcprt:MSVCP60.dll
 0002:00000340       __imp_?endl@std@@YAAAV?$basic_ostream@DU?$char_traits@D@std@@@1@AAV21@@Z 004ee340     msvcprt:MSVCP60.dll
 0002:00000344       __imp_??6?$basic_ostream@DU?$char_traits@D@std@@@std@@QAEAAV01@H@Z 004ee344     msvcprt:MSVCP60.dll
 0002:00000348       __imp_??6?$basic_ostream@DU?$char_traits@D@std@@@std@@QAEAAV01@P6AAAV01@AAV01@@Z@Z 004ee348     msvcprt:MSVCP60.dll
 0002:0000034c       __imp_?read@?$basic_istream@DU?$char_traits@D@std@@@std@@QAEAAV12@PADH@Z 004ee34c     msvcprt:MSVCP60.dll
 0002:00000350       __imp_?gcount@?$basic_istream@DU?$char_traits@D@std@@@std@@QBEHXZ 004ee350     msvcprt:MSVCP60.dll
 0002:00000354       __imp_?write@?$basic_ostream@DU?$char_traits@D@std@@@std@@QAEAAV12@PBDH@Z 004ee354     msvcprt:MSVCP60.dll
 0002:00000358       __imp_?good@ios_base@std@@QBE_NXZ 004ee358     msvcprt:MSVCP60.dll
 0002:0000035c       __imp_?nothrow@std@@3Unothrow_t@1@B 004ee35c     msvcprt:MSVCP60.dll
 0002:00000360       __imp_??0_Winit@std@@QAE@XZ 004ee360     msvcprt:MSVCP60.dll
 0002:00000364       __imp_??1Init@ios_base@std@@QAE@XZ 004ee364     msvcprt:MSVCP60.dll
 0002:00000368       __imp_??0Init@ios_base@std@@QAE@XZ 004ee368     msvcprt:MSVCP60.dll
 0002:0000036c       __imp_??0_Lockit@std@@QAE@XZ 004ee36c     msvcprt:MSVCP60.dll
 0002:00000370       __imp_??1_Lockit@std@@QAE@XZ 004ee370     msvcprt:MSVCP60.dll
 0002:00000374       __imp_?_Split@?$basic_string@DU?$char_traits@D@std@@V?$allocator@D@2@@std@@AAEXXZ 004ee374     msvcprt:MSVCP60.dll
 0002:00000378       __imp_?_Xran@std@@YAXXZ    004ee378     msvcprt:MSVCP60.dll
 0002:0000037c       __imp_?erase@?$basic_string@DU?$char_traits@D@std@@V?$allocator@D@2@@std@@QAEAAV12@II@Z 004ee37c     msvcprt:MSVCP60.dll
 0002:00000380       __imp_?getline@std@@YAAAV?$basic_istream@DU?$char_traits@D@std@@@1@AAV21@AAV?$basic_string@DU?$char_traits@D@std@@V?$allocator@D@2@@1@D@Z 004ee380     msvcprt:MSVCP60.dll
 0002:00000384       __imp_?end@?$basic_string@DU?$char_traits@D@std@@V?$allocator@D@2@@std@@QAEPADXZ 004ee384     msvcprt:MSVCP60.dll
 0002:00000388       __imp_?replace@?$basic_string@DU?$char_traits@D@std@@V?$allocator@D@2@@std@@QAEAAV12@PAD0PBD1@Z 004ee388     msvcprt:MSVCP60.dll
 0002:0000038c       __imp_?_Freeze@?$basic_string@DU?$char_traits@D@std@@V?$allocator@D@2@@std@@AAEXXZ 004ee38c     msvcprt:MSVCP60.dll
 0002:00000390       __imp_??Hstd@@YA?AV?$basic_string@DU?$char_traits@D@std@@V?$allocator@D@2@@0@ABV10@PBD@Z 004ee390     msvcprt:MSVCP60.dll
 0002:00000394       __imp_??Hstd@@YA?AV?$basic_string@DU?$char_traits@D@std@@V?$allocator@D@2@@0@PBDABV10@@Z 004ee394     msvcprt:MSVCP60.dll
 0002:00000398       __imp_?append@?$basic_string@DU?$char_traits@D@std@@V?$allocator@D@2@@std@@QAEAAV12@ABV12@II@Z 004ee398     msvcprt:MSVCP60.dll
 0002:0000039c       __imp_?append@?$basic_string@DU?$char_traits@D@std@@V?$allocator@D@2@@std@@QAEAAV12@ID@Z 004ee39c     msvcprt:MSVCP60.dll
 0002:000003a0       __imp_??0?$basic_string@DU?$char_traits@D@std@@V?$allocator@D@2@@std@@QAE@ABV01@@Z 004ee3a0     msvcprt:MSVCP60.dll
 0002:000003a4       __imp_??_D?$basic_ostringstream@DU?$char_traits@D@std@@V?$allocator@D@2@@std@@QAEXXZ 004ee3a4     msvcprt:MSVCP60.dll
 0002:000003a8       __imp_??1?$basic_ostream@DU?$char_traits@D@std@@@std@@UAE@XZ 004ee3a8     msvcprt:MSVCP60.dll
 0002:000003ac       __imp_??1?$basic_ios@DU?$char_traits@D@std@@@std@@UAE@XZ 004ee3ac     msvcprt:MSVCP60.dll
 0002:000003b0       __imp_??_7?$basic_ostream@DU?$char_traits@D@std@@@std@@6B@ 004ee3b0     msvcprt:MSVCP60.dll
 0002:000003b4       __imp_??1?$basic_stringbuf@DU?$char_traits@D@std@@V?$allocator@D@2@@std@@UAE@XZ 004ee3b4     msvcprt:MSVCP60.dll
 0002:000003b8       __imp_?str@?$basic_ostringstream@DU?$char_traits@D@std@@V?$allocator@D@2@@std@@QBE?AV?$basic_string@DU?$char_traits@D@std@@V?$allocator@D@2@@2@XZ 004ee3b8     msvcprt:MSVCP60.dll
 0002:000003bc       __imp_?setw@std@@YA?AU?$_Smanip@H@1@H@Z 004ee3bc     msvcprt:MSVCP60.dll
 0002:000003c0       __imp_??_7?$basic_ostringstream@DU?$char_traits@D@std@@V?$allocator@D@2@@std@@6B@ 004ee3c0     msvcprt:MSVCP60.dll
 0002:000003c4       __imp_??0?$basic_stringbuf@DU?$char_traits@D@std@@V?$allocator@D@2@@std@@QAE@H@Z 004ee3c4     msvcprt:MSVCP60.dll
 0002:000003c8       __imp_??0?$basic_ostream@DU?$char_traits@D@std@@@std@@QAE@PAV?$basic_streambuf@DU?$char_traits@D@std@@@1@_N1@Z 004ee3c8     msvcprt:MSVCP60.dll
 0002:000003cc       __imp_??_7?$basic_ios@DU?$char_traits@D@std@@@std@@6B@ 004ee3cc     msvcprt:MSVCP60.dll
 0002:000003d0       __imp_??0ios_base@std@@IAE@XZ 004ee3d0     msvcprt:MSVCP60.dll
 0002:000003d4       __imp_??_8?$basic_ostringstream@DU?$char_traits@D@std@@V?$allocator@D@2@@std@@7B@ 004ee3d4     msvcprt:MSVCP60.dll
 0002:000003d8       __imp_?append@?$basic_string@DU?$char_traits@D@std@@V?$allocator@D@2@@std@@QAEAAV12@PBDI@Z 004ee3d8     msvcprt:MSVCP60.dll
 0002:000003dc       __imp_??6std@@YAAAV?$basic_ostream@DU?$char_traits@D@std@@@0@AAV10@ABV?$basic_string@DU?$char_traits@D@std@@V?$allocator@D@2@@0@@Z 004ee3dc     msvcprt:MSVCP60.dll
 0002:000003e0       __imp_??6std@@YAAAV?$basic_ostream@DU?$char_traits@D@std@@@0@AAV10@D@Z 004ee3e0     msvcprt:MSVCP60.dll
 0002:000003e4       __imp_?assign@?$basic_string@DU?$char_traits@D@std@@V?$allocator@D@2@@std@@QAEAAV12@PBD0@Z 004ee3e4     msvcprt:MSVCP60.dll
 0002:000003e8       \177MSVCP60_NULL_THUNK_DATA 004ee3e8     msvcprt:MSVCP60.dll
 0002:000003ec       __imp____CxxFrameHandler   004ee3ec     msvcrt:MSVCRT.dll
 0002:000003f0       __imp___atoi64             004ee3f0     msvcrt:MSVCRT.dll
 0002:000003f4       __imp__atoi                004ee3f4     msvcrt:MSVCRT.dll
 0002:000003f8       __imp__strrchr             004ee3f8     msvcrt:MSVCRT.dll
 0002:000003fc       __imp___mbsnbcpy           004ee3fc     msvcrt:MSVCRT.dll
 0002:00000400       __imp___sopen              004ee400     msvcrt:MSVCRT.dll
 0002:00000404       __imp___lseeki64           004ee404     msvcrt:MSVCRT.dll
 0002:00000408       __imp___close              004ee408     msvcrt:MSVCRT.dll
 0002:0000040c       __imp__strcmpi             004ee40c     msvcrt:MSVCRT.dll
 0002:0000040c       __imp___strcmpi            004ee40c     msvcrt:MSVCRT.dll
 0002:00000410       __imp___callnewh           004ee410     msvcrt:MSVCRT.dll
 0002:00000414       __imp__strcat              004ee414     msvcrt:MSVCRT.dll
 0002:00000418       __imp___ftol               004ee418     msvcrt:MSVCRT.dll
 0002:0000041c       __imp__ceil                004ee41c     msvcrt:MSVCRT.dll
 0002:00000420       __imp__strtoul             004ee420     msvcrt:MSVCRT.dll
 0002:00000424       __imp__strcmp              004ee424     msvcrt:MSVCRT.dll
 0002:00000428       __imp__strncmp             004ee428     msvcrt:MSVCRT.dll
 0002:0000042c       __imp__malloc              004ee42c     msvcrt:MSVCRT.dll
 0002:00000430       __imp__free                004ee430     msvcrt:MSVCRT.dll
 0002:00000434       __imp___write              004ee434     msvcrt:MSVCRT.dll
 0002:00000438       __imp___read               004ee438     msvcrt:MSVCRT.dll
 0002:0000043c       __imp__strncat             004ee43c     msvcrt:MSVCRT.dll
 0002:00000440       __imp___setmode            004ee440     msvcrt:MSVCRT.dll
 0002:00000444       __imp__mbtowc              004ee444     msvcrt:MSVCRT.dll
 0002:00000448       __imp____mb_cur_max        004ee448     msvcrt:MSVCRT.dll
 0002:0000044c       __imp__wctomb              004ee44c     msvcrt:MSVCRT.dll
 0002:00000450       __imp__srand               004ee450     msvcrt:MSVCRT.dll
 0002:00000454       __imp__rand                004ee454     msvcrt:MSVCRT.dll
 0002:00000458       __imp___beginthreadex      004ee458     msvcrt:MSVCRT.dll
 0002:0000045c       __imp__strchr              004ee45c     msvcrt:MSVCRT.dll
 0002:00000460       __imp__strstr              004ee460     msvcrt:MSVCRT.dll
 0002:00000464       __imp__strncpy             004ee464     msvcrt:MSVCRT.dll
 0002:00000468       __imp__strcpy              004ee468     msvcrt:MSVCRT.dll
 0002:0000046c       __imp__fflush              004ee46c     msvcrt:MSVCRT.dll
 0002:00000470       __imp__fclose              004ee470     msvcrt:MSVCRT.dll
 0002:00000474       __imp__fopen               004ee474     msvcrt:MSVCRT.dll
 0002:00000478       __imp__fseek               004ee478     msvcrt:MSVCRT.dll
 0002:0000047c       __imp__ftell               004ee47c     msvcrt:MSVCRT.dll
 0002:00000480       __imp__fread               004ee480     msvcrt:MSVCRT.dll
 0002:00000484       __imp__fwrite              004ee484     msvcrt:MSVCRT.dll
 0002:00000488       __imp___mbclen             004ee488     msvcrt:MSVCRT.dll
 0002:0000048c       __imp__memcmp              004ee48c     msvcrt:MSVCRT.dll
 0002:00000490       __imp__strlen              004ee490     msvcrt:MSVCRT.dll
 0002:00000494       __imp__strtol              004ee494     msvcrt:MSVCRT.dll
 0002:00000498       __imp__memmove             004ee498     msvcrt:MSVCRT.dll
 0002:0000049c       __imp__memcpy              004ee49c     msvcrt:MSVCRT.dll
 0002:000004a0       __imp___mbscmp             004ee4a0     msvcrt:MSVCRT.dll
 0002:000004a4       __imp__memset              004ee4a4     msvcrt:MSVCRT.dll
 0002:000004a8       __imp__sprintf             004ee4a8     msvcrt:MSVCRT.dll
 0002:000004ac       __imp__sscanf              004ee4ac     msvcrt:MSVCRT.dll
 0002:000004b0       __imp___finite             004ee4b0     msvcrt:MSVCRT.dll
 0002:000004b4       __imp___isnan              004ee4b4     msvcrt:MSVCRT.dll
 0002:000004b8       __imp__strtod              004ee4b8     msvcrt:MSVCRT.dll
 0002:000004bc       __imp__gmtime              004ee4bc     msvcrt:MSVCRT.dll
 0002:000004c0       __imp__mktime              004ee4c0     msvcrt:MSVCRT.dll
 0002:000004c4       __imp__strftime            004ee4c4     msvcrt:MSVCRT.dll
 0002:000004c8       __imp__fprintf             004ee4c8     msvcrt:MSVCRT.dll
 0002:000004cc       __imp___CxxThrowException@8 004ee4cc     msvcrt:MSVCRT.dll
 0002:000004d0       __imp__vsprintf            004ee4d0     msvcrt:MSVCRT.dll
 0002:000004d4       __imp___strlwr             004ee4d4     msvcrt:MSVCRT.dll
 0002:000004d8       __imp___splitpath          004ee4d8     msvcrt:MSVCRT.dll
 0002:000004dc       __imp__localtime           004ee4dc     msvcrt:MSVCRT.dll
 0002:000004e0       __imp___mbsrchr            004ee4e0     msvcrt:MSVCRT.dll
 0002:000004e4       __imp___vsnprintf          004ee4e4     msvcrt:MSVCRT.dll
 0002:000004e8       __imp__wcslen              004ee4e8     msvcrt:MSVCRT.dll
 0002:000004ec       __imp___mbstok             004ee4ec     msvcrt:MSVCRT.dll
 0002:000004f0       __imp___purecall           004ee4f0     msvcrt:MSVCRT.dll
 0002:000004f4       __imp___itoa               004ee4f4     msvcrt:MSVCRT.dll
 0002:000004f8       __imp___controlfp          004ee4f8     msvcrt:MSVCRT.dll
 0002:000004fc       __imp___mbsicmp            004ee4fc     msvcrt:MSVCRT.dll
 0002:00000500       __imp__calloc              004ee500     msvcrt:MSVCRT.dll
 0002:00000504       __imp___mbslen             004ee504     msvcrt:MSVCRT.dll
 0002:00000508       __imp_??0exception@@QAE@ABV0@@Z 004ee508     msvcrt:MSVCRT.dll
 0002:0000050c       __imp_??1exception@@UAE@XZ 004ee50c     msvcrt:MSVCRT.dll
 0002:00000510       __imp_??0exception@@QAE@ABQBD@Z 004ee510     msvcrt:MSVCRT.dll
 0002:00000514       __imp__strpbrk             004ee514     msvcrt:MSVCRT.dll
 0002:00000518       __imp____dllonexit         004ee518     msvcrt:MSVCRT.dll
 0002:0000051c       __imp___onexit             004ee51c     msvcrt:MSVCRT.dll
 0002:00000520       __imp___except_handler3    004ee520     msvcrt:MSVCRT.dll
 0002:00000524       __imp_?terminate@@YAXXZ    004ee524     msvcrt:MSVCRT.dll
 0002:00000528       __imp_??1type_info@@UAE@XZ 004ee528     msvcrt:MSVCRT.dll
 0002:0000052c       __imp___exit               004ee52c     msvcrt:MSVCRT.dll
 0002:00000530       __imp___XcptFilter         004ee530     msvcrt:MSVCRT.dll
 0002:00000534       __imp__exit                004ee534     msvcrt:MSVCRT.dll
 0002:00000538       __imp____p___initenv       004ee538     msvcrt:MSVCRT.dll
 0002:0000053c       __imp____getmainargs       004ee53c     msvcrt:MSVCRT.dll
 0002:00000540       __imp___initterm           004ee540     msvcrt:MSVCRT.dll
 0002:00000544       __imp____setusermatherr    004ee544     msvcrt:MSVCRT.dll
 0002:00000548       __imp___adjust_fdiv        004ee548     msvcrt:MSVCRT.dll
 0002:0000054c       __imp____p__commode        004ee54c     msvcrt:MSVCRT.dll
 0002:00000550       __imp____p__fmode          004ee550     msvcrt:MSVCRT.dll
 0002:00000554       __imp____set_app_type      004ee554     msvcrt:MSVCRT.dll
 0002:00000558       __imp__time                004ee558     msvcrt:MSVCRT.dll
 0002:0000055c       \177MSVCRT_NULL_THUNK_DATA 004ee55c     msvcrt:MSVCRT.dll
 0002:00000560       __imp__SysAllocString@4    004ee560     oleaut32:OLEAUT32.dll
 0002:00000564       __imp__SysFreeString@4     004ee564     oleaut32:OLEAUT32.dll
 0002:00000568       __imp__VariantInit@4       004ee568     oleaut32:OLEAUT32.dll
 0002:0000056c       __imp__VariantChangeType@16 004ee56c     oleaut32:OLEAUT32.dll
 0002:00000570       __imp__SysStringByteLen@4  004ee570     oleaut32:OLEAUT32.dll
 0002:00000574       __imp__SysAllocStringByteLen@8 004ee574     oleaut32:OLEAUT32.dll
 0002:00000578       __imp__VariantCopy@8       004ee578     oleaut32:OLEAUT32.dll
 0002:0000057c       __imp__VariantClear@4      004ee57c     oleaut32:OLEAUT32.dll
 0002:00000580       __imp__SetErrorInfo@8      004ee580     oleaut32:OLEAUT32.dll
 0002:00000584       __imp__GetErrorInfo@8      004ee584     oleaut32:OLEAUT32.dll
 0002:00000588       __imp__CreateErrorInfo@4   004ee588     oleaut32:OLEAUT32.dll
 0002:0000058c       \177OLEAUT32_NULL_THUNK_DATA 004ee58c     oleaut32:OLEAUT32.dll
 0002:00000590       __imp__EnumProcessModules@16 004ee590     psapi:PSAPI.DLL
 0002:00000594       __imp__GetProcessMemoryInfo@12 004ee594     psapi:PSAPI.DLL
 0002:00000598       __imp__EnumProcesses@12    004ee598     psapi:PSAPI.DLL
 0002:0000059c       __imp__GetModuleFileNameExA@16 004ee59c     psapi:PSAPI.DLL
 0002:000005a0       \177PSAPI_NULL_THUNK_DATA  004ee5a0     psapi:PSAPI.DLL
 0002:000005a4       __imp__UuidCreate@4        004ee5a4     Rpcrt4:RPCRT4.dll
 0002:000005a8       \177RPCRT4_NULL_THUNK_DATA 004ee5a8     Rpcrt4:RPCRT4.dll
 0002:000005ac       __imp__SetProcessWindowStation@4 004ee5ac     user32:USER32.dll
 0002:000005b0       __imp__OpenDesktopA@16     004ee5b0     user32:USER32.dll
 0002:000005b4       __imp__SetThreadDesktop@4  004ee5b4     user32:USER32.dll
 0002:000005b8       __imp__CloseWindowStation@4 004ee5b8     user32:USER32.dll
 0002:000005bc       __imp__CloseDesktop@4      004ee5bc     user32:USER32.dll
 0002:000005c0       __imp__LoadStringA@16      004ee5c0     user32:USER32.dll
 0002:000005c4       __imp__GetSystemMetrics@4  004ee5c4     user32:USER32.dll
 0002:000005c8       __imp__PostQuitMessage@4   004ee5c8     user32:USER32.dll
 0002:000005cc       __imp__DefWindowProcA@16   004ee5cc     user32:USER32.dll
 0002:000005d0       __imp__DestroyWindow@4     004ee5d0     user32:USER32.dll
 0002:000005d4       __imp__OpenWindowStationA@12 004ee5d4     user32:USER32.dll
 0002:000005d8       __imp__CharNextA@4         004ee5d8     user32:USER32.dll
 0002:000005dc       __imp__MessageBoxA@16      004ee5dc     user32:USER32.dll
 0002:000005e0       __imp__CreateWindowExA@48  004ee5e0     user32:USER32.dll
 0002:000005e4       __imp__UnregisterClassA@8  004ee5e4     user32:USER32.dll
 0002:000005e8       __imp__LoadCursorA@8       004ee5e8     user32:USER32.dll
 0002:000005ec       __imp__RegisterClassA@4    004ee5ec     user32:USER32.dll
 0002:000005f0       __imp__GetMessageA@16      004ee5f0     user32:USER32.dll
 0002:000005f4       __imp__DispatchMessageA@4  004ee5f4     user32:USER32.dll
 0002:000005f8       __imp__IsWindow@4          004ee5f8     user32:USER32.dll
 0002:000005fc       __imp__PostMessageA@16     004ee5fc     user32:USER32.dll
 0002:00000600       __imp__GetParent@4         004ee600     user32:USER32.dll
 0002:00000604       __imp__GetThreadDesktop@4  004ee604     user32:USER32.dll
 0002:00000608       __imp__PostThreadMessageA@16 004ee608     user32:USER32.dll
 0002:0000060c       __imp__GetProcessWindowStation@0 004ee60c     user32:USER32.dll
 0002:00000610       \177USER32_NULL_THUNK_DATA 004ee610     user32:USER32.dll
 0002:00000614       __imp__WSASend@28          004ee614     Ws2_32:WS2_32.dll
 0002:00000618       __imp__WSAGetOverlappedResult@20 004ee618     Ws2_32:WS2_32.dll
 0002:0000061c       __imp__WSAWaitForMultipleEvents@20 004ee61c     Ws2_32:WS2_32.dll
 0002:00000620       __imp__WSAEnumNetworkEvents@12 004ee620     Ws2_32:WS2_32.dll
 0002:00000624       __imp__WSARecv@28          004ee624     Ws2_32:WS2_32.dll
 0002:00000628       __imp__WSAIoctl@36         004ee628     Ws2_32:WS2_32.dll
 0002:0000062c       __imp__WSAEventSelect@12   004ee62c     Ws2_32:WS2_32.dll
 0002:00000630       \177WS2_32_NULL_THUNK_DATA 004ee630     Ws2_32:WS2_32.dll
 0002:00000634       __imp__shutdown@8          004ee634     wsock32:WSOCK32.dll
 0002:00000638       __imp__WSASetLastError@4   004ee638     wsock32:WSOCK32.dll
 0002:0000063c       __imp__inet_ntoa@4         004ee63c     wsock32:WSOCK32.dll
 0002:00000640       __imp__getpeername@12      004ee640     wsock32:WSOCK32.dll
 0002:00000644       __imp__accept@12           004ee644     wsock32:WSOCK32.dll
 0002:00000648       __imp__getservbyname@8     004ee648     wsock32:WSOCK32.dll
 0002:0000064c       __imp__gethostbyaddr@12    004ee64c     wsock32:WSOCK32.dll
 0002:00000650       __imp__getservbyport@8     004ee650     wsock32:WSOCK32.dll
 0002:00000654       __imp__closesocket@4       004ee654     wsock32:WSOCK32.dll
 0002:00000658       __imp__getsockopt@20       004ee658     wsock32:WSOCK32.dll
 0002:0000065c       __imp__inet_addr@4         004ee65c     wsock32:WSOCK32.dll
 0002:00000660       __imp__send@16             004ee660     wsock32:WSOCK32.dll
 0002:00000664       __imp__WSACleanup@0        004ee664     wsock32:WSOCK32.dll
 0002:00000668       __imp__recvfrom@24         004ee668     wsock32:WSOCK32.dll
 0002:0000066c       __imp__sendto@24           004ee66c     wsock32:WSOCK32.dll
 0002:00000670       __imp__connect@12          004ee670     wsock32:WSOCK32.dll
 0002:00000674       __imp__ioctlsocket@12      004ee674     wsock32:WSOCK32.dll
 0002:00000678       __imp__ntohl@4             004ee678     wsock32:WSOCK32.dll
 0002:0000067c       __imp__ntohs@4             004ee67c     wsock32:WSOCK32.dll
 0002:00000680       __imp__select@20           004ee680     wsock32:WSOCK32.dll
 0002:00000684       __imp____WSAFDIsSet@8      004ee684     wsock32:WSOCK32.dll
 0002:00000688       __imp__recv@16             004ee688     wsock32:WSOCK32.dll
 0002:0000068c       __imp__WSAStartup@8        004ee68c     wsock32:WSOCK32.dll
 0002:00000690       __imp__socket@12           004ee690     wsock32:WSOCK32.dll
 0002:00000694       __imp__WSAGetLastError@0   004ee694     wsock32:WSOCK32.dll
 0002:00000698       __imp__setsockopt@20       004ee698     wsock32:WSOCK32.dll
 0002:0000069c       __imp__htonl@4             004ee69c     wsock32:WSOCK32.dll
 0002:000006a0       __imp__htons@4             004ee6a0     wsock32:WSOCK32.dll
 0002:000006a4       __imp__bind@12             004ee6a4     wsock32:WSOCK32.dll
 0002:000006a8       __imp__listen@8            004ee6a8     wsock32:WSOCK32.dll
 0002:000006ac       __imp__gethostbyname@4     004ee6ac     wsock32:WSOCK32.dll
 0002:000006b0       __imp__getsockname@12      004ee6b0     wsock32:WSOCK32.dll
 0002:000006b4       \177WSOCK32_NULL_THUNK_DATA 004ee6b4     wsock32:WSOCK32.dll
 0002:000006b8       __imp__MiniDumpWriteDump@28 004ee6b8     dbghelp:dbghelp.dll
 0002:000006bc       \177dbghelp_NULL_THUNK_DATA 004ee6bc     dbghelp:dbghelp.dll
 0002:000006c0       __imp__GetAdaptersInfo@8   004ee6c0     Iphlpapi:iphlpapi.dll
 0002:000006c4       \177iphlpapi_NULL_THUNK_DATA 004ee6c4     Iphlpapi:iphlpapi.dll
 0002:000006c8       __imp__CoCreateInstance@20 004ee6c8     ole32:ole32.dll
 0002:000006cc       __imp__CoUninitialize@0    004ee6cc     ole32:ole32.dll
 0002:000006d0       __imp__CoInitialize@4      004ee6d0     ole32:ole32.dll
 0002:000006d4       __imp__OleRun@4            004ee6d4     ole32:ole32.dll
 0002:000006d8       \177ole32_NULL_THUNK_DATA  004ee6d8     ole32:ole32.dll
 0002:000006dc       __imp__deflateInit_        004ee6dc     zdll:zlib1.dll
 0002:000006e0       __imp__inflateEnd          004ee6e0     zdll:zlib1.dll
 0002:000006e4       __imp__inflate             004ee6e4     zdll:zlib1.dll
 0002:000006e8       __imp__inflateInit_        004ee6e8     zdll:zlib1.dll
 0002:000006ec       __imp__deflateEnd          004ee6ec     zdll:zlib1.dll
 0002:000006f0       __imp__deflate             004ee6f0     zdll:zlib1.dll
 0002:000006f4       \177zlib1_NULL_THUNK_DATA  004ee6f4     zdll:zlib1.dll
 0002:0000071c       ??_7DataRecord@@6B@        004ee71c     DataRecord.obj
 0002:00000740       __real@8@4005c800000000000000 004ee740     DataRecord.obj
 0002:00000748       ??_7?$CMap@KKU_tagWAIT_FRESHRESULT@@AAU1@@@6B@ 004ee748     Server.obj
 0002:0000075c       ??_7CObject@@6B@           004ee75c     Server.obj
 0002:00000770       ??_7CGameService@@6B@      004ee770     TcSgSvr.obj
 0002:0000079c       ??_7CGameServer@@6B@       004ee79c     TcSgSvr.obj
 0002:000010c8       ??_7CSkServer@@6B@         004ef0c8     TcSgSvr.obj
 0002:000019e0       ??_7CMySockClit@@6B@       004ef9e0     TcSgSvr.obj
 0002:00001be8       ??_7CSockClient@@6B@       004efbe8     TcSgSvr.obj
 0002:00001dec       ??_7CGameTable@@6B@        004efdec     TcSgTbl.obj
 0002:000021f0       __real@8@3fffc000000000000000 004f01f0     TcSgTbl.obj
 0002:000021f8       __real@8@00000000000000000000 004f01f8     TcSgTbl.obj
 0002:00002258       ??_7ns1__ItemInfo@@6B@     004f0258     soapC.obj
 0002:00002278       ??_7ns1__ArrayOfAwardItemInfo@@6B@ 004f0278     soapC.obj
 0002:00002298       ??_7ns1__AwardItemInfo@@6B@ 004f0298     soapC.obj
 0002:000022b8       ??_7ns1__AwardInfo@@6B@    004f02b8     soapC.obj
 0002:000022d8       ??_7ns1__AwardLotteryPrizeInfo@@6B@ 004f02d8     soapC.obj
 0002:000022f8       ??_7ns1__ArrayOfAwardLotteryPrizeInfo@@6B@ 004f02f8     soapC.obj
 0002:00002318       ??_7_ns1__GetItemByCode@@6B@ 004f0318     soapC.obj
 0002:00002338       ??_7_ns1__GetItemByCodeResponse@@6B@ 004f0338     soapC.obj
 0002:00002358       ??_7_ns1__GetItemByItemID@@6B@ 004f0358     soapC.obj
 0002:00002378       ??_7_ns1__GetItemByItemIDResponse@@6B@ 004f0378     soapC.obj
 0002:00002398       ??_7_ns1__GetItemValue@@6B@ 004f0398     soapC.obj
 0002:000023b8       ??_7_ns1__GetItemValueResponse@@6B@ 004f03b8     soapC.obj
 0002:000023d8       ??_7_ns1__GetClothingID@@6B@ 004f03d8     soapC.obj
